(lp0
(lp1
I1
a(lp2
I-1
aI-1
aa(lp3
I-1
aI2
aa(lp4
I-1
aI5
aa(lp5
I2
aI-1
aa(lp6
I2
aI2
aa(lp7
I2
aI5
aa(lp8
I5
aI-1
aa(lp9
I5
aI2
aa(lp10
I5
aI5
aaI6
aa(lp11
I1
a(lp12
I12
aI12
aa(lp13
I12
aI15
aa(lp14
I12
aI18
aa(lp15
I15
aI12
aa(lp16
I15
aI15
aa(lp17
I15
aI18
aa(lp18
I18
aI12
aa(lp19
I18
aI15
aa(lp20
I18
aI18
aaI6
aa(lp21
I1
a(lp22
I-1
aI-1
aa(lp23
I-1
aI3
aa(lp24
I-1
aI7
aa(lp25
I3
aI-1
aa(lp26
I3
aI3
aa(lp27
I3
aI7
aa(lp28
I7
aI-1
aa(lp29
I7
aI3
aa(lp30
I7
aI7
aaI8
aa(lp31
I1
a(lp32
I3
aI1
aa(lp33
I3
aI5
aa(lp34
I3
aI9
aa(lp35
I7
aI1
aa(lp36
I7
aI5
aa(lp37
I7
aI9
aa(lp38
I11
aI1
aa(lp39
I11
aI5
aa(lp40
I11
aI9
aaI8
aa(lp41
I1
a(lp42
I3
aI2
aa(lp43
I3
aI6
aa(lp44
I3
aI10
aa(lp45
I7
aI2
aa(lp46
I7
aI6
aa(lp47
I7
aI10
aa(lp48
I11
aI2
aa(lp49
I11
aI6
aa(lp50
I11
aI10
aaI8
aa(lp51
I1
a(lp52
I2
aI0
aa(lp53
I2
aI5
aa(lp54
I2
aI10
aa(lp55
I7
aI0
aa(lp56
I7
aI5
aa(lp57
I7
aI10
aa(lp58
I12
aI0
aa(lp59
I12
aI5
aa(lp60
I12
aI10
aaI10
aa(lp61
I1
a(lp62
I2
aI1
aa(lp63
I2
aI6
aa(lp64
I2
aI11
aa(lp65
I7
aI1
aa(lp66
I7
aI6
aa(lp67
I7
aI11
aa(lp68
I12
aI1
aa(lp69
I12
aI6
aa(lp70
I12
aI11
aaI10
aa(lp71
I1
a(lp72
I2
aI2
aa(lp73
I2
aI7
aa(lp74
I2
aI12
aa(lp75
I7
aI2
aa(lp76
I7
aI7
aa(lp77
I7
aI12
aa(lp78
I12
aI2
aa(lp79
I12
aI7
aa(lp80
I12
aI12
aaI10
aa(lp81
I1
a(lp82
I3
aI-1
aa(lp83
I3
aI4
aa(lp84
I3
aI9
aa(lp85
I8
aI-1
aa(lp86
I8
aI4
aa(lp87
I8
aI9
aa(lp88
I13
aI-1
aa(lp89
I13
aI4
aa(lp90
I13
aI9
aaI10
aa(lp91
I1
a(lp92
I3
aI0
aa(lp93
I3
aI5
aa(lp94
I3
aI10
aa(lp95
I8
aI0
aa(lp96
I8
aI5
aa(lp97
I8
aI10
aa(lp98
I13
aI0
aa(lp99
I13
aI5
aa(lp100
I13
aI10
aaI10
aa(lp101
I1
a(lp102
I3
aI1
aa(lp103
I3
aI6
aa(lp104
I3
aI11
aa(lp105
I8
aI1
aa(lp106
I8
aI6
aa(lp107
I8
aI11
aa(lp108
I13
aI1
aa(lp109
I13
aI6
aa(lp110
I13
aI11
aaI10
aa(lp111
I1
a(lp112
I3
aI2
aa(lp113
I3
aI7
aa(lp114
I3
aI12
aa(lp115
I8
aI2
aa(lp116
I8
aI7
aa(lp117
I8
aI12
aa(lp118
I13
aI2
aa(lp119
I13
aI7
aa(lp120
I13
aI12
aaI10
aa(lp121
I1
a(lp122
I3
aI3
aa(lp123
I3
aI8
aa(lp124
I3
aI13
aa(lp125
I8
aI3
aa(lp126
I8
aI8
aa(lp127
I8
aI13
aa(lp128
I13
aI3
aa(lp129
I13
aI8
aa(lp130
I13
aI13
aaI10
aa(lp131
I1
a(lp132
I4
aI0
aa(lp133
I4
aI5
aa(lp134
I4
aI10
aa(lp135
I9
aI0
aa(lp136
I9
aI5
aa(lp137
I9
aI10
aa(lp138
I14
aI0
aa(lp139
I14
aI5
aa(lp140
I14
aI10
aaI10
aa(lp141
I1
a(lp142
I4
aI2
aa(lp143
I4
aI7
aa(lp144
I4
aI12
aa(lp145
I9
aI2
aa(lp146
I9
aI7
aa(lp147
I9
aI12
aa(lp148
I14
aI2
aa(lp149
I14
aI7
aa(lp150
I14
aI12
aaI10
aa(lp151
I1
a(lp152
I8
aI7
aa(lp153
I8
aI12
aa(lp154
I8
aI17
aa(lp155
I13
aI7
aa(lp156
I13
aI12
aa(lp157
I13
aI17
aa(lp158
I18
aI7
aa(lp159
I18
aI12
aa(lp160
I18
aI17
aaI10
aa(lp161
I1
a(lp162
I8
aI8
aa(lp163
I8
aI13
aa(lp164
I8
aI18
aa(lp165
I13
aI8
aa(lp166
I13
aI13
aa(lp167
I13
aI18
aa(lp168
I18
aI8
aa(lp169
I18
aI13
aa(lp170
I18
aI18
aaI10
aa(lp171
I1
a(lp172
I1
aI-1
aa(lp173
I1
aI5
aa(lp174
I1
aI11
aa(lp175
I7
aI-1
aa(lp176
I7
aI5
aa(lp177
I7
aI11
aa(lp178
I13
aI-1
aa(lp179
I13
aI5
aa(lp180
I13
aI11
aaI12
aa(lp181
I1
a(lp182
I1
aI0
aa(lp183
I1
aI6
aa(lp184
I1
aI12
aa(lp185
I7
aI0
aa(lp186
I7
aI6
aa(lp187
I7
aI12
aa(lp188
I13
aI0
aa(lp189
I13
aI6
aa(lp190
I13
aI12
aaI12
aa(lp191
I1
a(lp192
I1
aI1
aa(lp193
I1
aI7
aa(lp194
I1
aI13
aa(lp195
I7
aI1
aa(lp196
I7
aI7
aa(lp197
I7
aI13
aa(lp198
I13
aI1
aa(lp199
I13
aI7
aa(lp200
I13
aI13
aaI12
aa(lp201
I1
a(lp202
I2
aI-1
aa(lp203
I2
aI5
aa(lp204
I2
aI11
aa(lp205
I8
aI-1
aa(lp206
I8
aI5
aa(lp207
I8
aI11
aa(lp208
I14
aI-1
aa(lp209
I14
aI5
aa(lp210
I14
aI11
aaI12
aa(lp211
I1
a(lp212
I2
aI0
aa(lp213
I2
aI6
aa(lp214
I2
aI12
aa(lp215
I8
aI0
aa(lp216
I8
aI6
aa(lp217
I8
aI12
aa(lp218
I14
aI0
aa(lp219
I14
aI6
aa(lp220
I14
aI12
aaI12
aa(lp221
I1
a(lp222
I2
aI1
aa(lp223
I2
aI7
aa(lp224
I2
aI13
aa(lp225
I8
aI1
aa(lp226
I8
aI7
aa(lp227
I8
aI13
aa(lp228
I14
aI1
aa(lp229
I14
aI7
aa(lp230
I14
aI13
aaI12
aa(lp231
I1
a(lp232
I3
aI-1
aa(lp233
I3
aI5
aa(lp234
I3
aI11
aa(lp235
I9
aI-1
aa(lp236
I9
aI5
aa(lp237
I9
aI11
aa(lp238
I15
aI-1
aa(lp239
I15
aI5
aa(lp240
I15
aI11
aaI12
aa(lp241
I1
a(lp242
I3
aI0
aa(lp243
I3
aI6
aa(lp244
I3
aI12
aa(lp245
I9
aI0
aa(lp246
I9
aI6
aa(lp247
I9
aI12
aa(lp248
I15
aI0
aa(lp249
I15
aI6
aa(lp250
I15
aI12
aaI12
aa(lp251
I1
a(lp252
I3
aI1
aa(lp253
I3
aI7
aa(lp254
I3
aI13
aa(lp255
I9
aI1
aa(lp256
I9
aI7
aa(lp257
I9
aI13
aa(lp258
I15
aI1
aa(lp259
I15
aI7
aa(lp260
I15
aI13
aaI12
aa(lp261
I1
a(lp262
I3
aI2
aa(lp263
I3
aI8
aa(lp264
I3
aI14
aa(lp265
I9
aI2
aa(lp266
I9
aI8
aa(lp267
I9
aI14
aa(lp268
I15
aI2
aa(lp269
I15
aI8
aa(lp270
I15
aI14
aaI12
aa(lp271
I1
a(lp272
I-1
aI-1
aa(lp273
I-1
aI6
aa(lp274
I-1
aI13
aa(lp275
I6
aI-1
aa(lp276
I6
aI6
aa(lp277
I6
aI13
aa(lp278
I13
aI-1
aa(lp279
I13
aI6
aa(lp280
I13
aI13
aaI14
aa(lp281
I1
a(lp282
I-1
aI0
aa(lp283
I-1
aI7
aa(lp284
I-1
aI14
aa(lp285
I6
aI0
aa(lp286
I6
aI7
aa(lp287
I6
aI14
aa(lp288
I13
aI0
aa(lp289
I13
aI7
aa(lp290
I13
aI14
aaI14
aa(lp291
I1
a(lp292
I0
aI-1
aa(lp293
I0
aI6
aa(lp294
I0
aI13
aa(lp295
I7
aI-1
aa(lp296
I7
aI6
aa(lp297
I7
aI13
aa(lp298
I14
aI-1
aa(lp299
I14
aI6
aa(lp300
I14
aI13
aaI14
aa(lp301
I1
a(lp302
I0
aI0
aa(lp303
I0
aI7
aa(lp304
I0
aI14
aa(lp305
I7
aI0
aa(lp306
I7
aI7
aa(lp307
I7
aI14
aa(lp308
I14
aI0
aa(lp309
I14
aI7
aa(lp310
I14
aI14
aaI14
aa(lp311
I1
a(lp312
I1
aI-1
aa(lp313
I1
aI6
aa(lp314
I1
aI13
aa(lp315
I8
aI-1
aa(lp316
I8
aI6
aa(lp317
I8
aI13
aa(lp318
I15
aI-1
aa(lp319
I15
aI6
aa(lp320
I15
aI13
aaI14
aa(lp321
I1
a(lp322
I1
aI0
aa(lp323
I1
aI7
aa(lp324
I1
aI14
aa(lp325
I8
aI0
aa(lp326
I8
aI7
aa(lp327
I8
aI14
aa(lp328
I15
aI0
aa(lp329
I15
aI7
aa(lp330
I15
aI14
aaI14
aa(lp331
I1
a(lp332
I2
aI-1
aa(lp333
I2
aI6
aa(lp334
I2
aI13
aa(lp335
I9
aI-1
aa(lp336
I9
aI6
aa(lp337
I9
aI13
aa(lp338
I16
aI-1
aa(lp339
I16
aI6
aa(lp340
I16
aI13
aaI14
aa(lp341
I1
a(lp342
I2
aI0
aa(lp343
I2
aI7
aa(lp344
I2
aI14
aa(lp345
I9
aI0
aa(lp346
I9
aI7
aa(lp347
I9
aI14
aa(lp348
I16
aI0
aa(lp349
I16
aI7
aa(lp350
I16
aI14
aaI14
aa(lp351
I1
a(lp352
I-1
aI-1
aa(lp353
I-1
aI7
aa(lp354
I-1
aI15
aa(lp355
I7
aI-1
aa(lp356
I7
aI7
aa(lp357
I7
aI15
aa(lp358
I15
aI-1
aa(lp359
I15
aI7
aa(lp360
I15
aI15
aaI16
aa(lp361
I1
a(lp362
I0
aI-1
aa(lp363
I0
aI7
aa(lp364
I0
aI15
aa(lp365
I8
aI-1
aa(lp366
I8
aI7
aa(lp367
I8
aI15
aa(lp368
I16
aI-1
aa(lp369
I16
aI7
aa(lp370
I16
aI15
aaI16
aa(lp371
I1
a(lp372
I1
aI-1
aa(lp373
I1
aI7
aa(lp374
I1
aI15
aa(lp375
I9
aI-1
aa(lp376
I9
aI7
aa(lp377
I9
aI15
aa(lp378
I17
aI-1
aa(lp379
I17
aI7
aa(lp380
I17
aI15
aaI16
aa(lp381
I-1
a(lp382
I1
aI5
aa(lp383
I1
aI10
aa(lp384
I1
aI15
aa(lp385
I6
aI5
aa(lp386
I6
aI10
aa(lp387
I6
aI15
aa(lp388
I11
aI5
aa(lp389
I11
aI10
aa(lp390
I11
aI15
aaI10
aa(lp391
I-1
a(lp392
I2
aI5
aa(lp393
I2
aI10
aa(lp394
I2
aI15
aa(lp395
I7
aI5
aa(lp396
I7
aI10
aa(lp397
I7
aI15
aa(lp398
I12
aI5
aa(lp399
I12
aI10
aa(lp400
I12
aI15
aaI10
aa(lp401
I-1
a(lp402
I2
aI6
aa(lp403
I2
aI11
aa(lp404
I2
aI16
aa(lp405
I7
aI6
aa(lp406
I7
aI11
aa(lp407
I7
aI16
aa(lp408
I12
aI6
aa(lp409
I12
aI11
aa(lp410
I12
aI16
aaI10
aa(lp411
I-1
a(lp412
I3
aI5
aa(lp413
I3
aI10
aa(lp414
I3
aI15
aa(lp415
I8
aI5
aa(lp416
I8
aI10
aa(lp417
I8
aI15
aa(lp418
I13
aI5
aa(lp419
I13
aI10
aa(lp420
I13
aI15
aaI10
aa(lp421
I-1
a(lp422
I3
aI6
aa(lp423
I3
aI11
aa(lp424
I3
aI16
aa(lp425
I8
aI6
aa(lp426
I8
aI11
aa(lp427
I8
aI16
aa(lp428
I13
aI6
aa(lp429
I13
aI11
aa(lp430
I13
aI16
aaI10
aa(lp431
I-1
a(lp432
I3
aI7
aa(lp433
I3
aI12
aa(lp434
I3
aI17
aa(lp435
I8
aI7
aa(lp436
I8
aI12
aa(lp437
I8
aI17
aa(lp438
I13
aI7
aa(lp439
I13
aI12
aa(lp440
I13
aI17
aaI10
aa(lp441
I-1
a(lp442
I8
aI-1
aa(lp443
I8
aI4
aa(lp444
I8
aI9
aa(lp445
I13
aI-1
aa(lp446
I13
aI4
aa(lp447
I13
aI9
aa(lp448
I18
aI-1
aa(lp449
I18
aI4
aa(lp450
I18
aI9
aaI10
aa(lp451
I-1
a(lp452
I0
aI4
aa(lp453
I0
aI10
aa(lp454
I0
aI16
aa(lp455
I6
aI4
aa(lp456
I6
aI10
aa(lp457
I6
aI16
aa(lp458
I12
aI4
aa(lp459
I12
aI10
aa(lp460
I12
aI16
aaI12
aa(lp461
I-1
a(lp462
I0
aI5
aa(lp463
I0
aI11
aa(lp464
I0
aI17
aa(lp465
I6
aI5
aa(lp466
I6
aI11
aa(lp467
I6
aI17
aa(lp468
I12
aI5
aa(lp469
I12
aI11
aa(lp470
I12
aI17
aaI12
aa(lp471
I-1
a(lp472
I1
aI4
aa(lp473
I1
aI10
aa(lp474
I1
aI16
aa(lp475
I7
aI4
aa(lp476
I7
aI10
aa(lp477
I7
aI16
aa(lp478
I13
aI4
aa(lp479
I13
aI10
aa(lp480
I13
aI16
aaI12
aa(lp481
I-1
a(lp482
I1
aI5
aa(lp483
I1
aI11
aa(lp484
I1
aI17
aa(lp485
I7
aI5
aa(lp486
I7
aI11
aa(lp487
I7
aI17
aa(lp488
I13
aI5
aa(lp489
I13
aI11
aa(lp490
I13
aI17
aaI12
aa(lp491
I-1
a(lp492
I1
aI6
aa(lp493
I1
aI12
aa(lp494
I1
aI18
aa(lp495
I7
aI6
aa(lp496
I7
aI12
aa(lp497
I7
aI18
aa(lp498
I13
aI6
aa(lp499
I13
aI12
aa(lp500
I13
aI18
aaI12
aa(lp501
I-1
a(lp502
I2
aI4
aa(lp503
I2
aI10
aa(lp504
I2
aI16
aa(lp505
I8
aI4
aa(lp506
I8
aI10
aa(lp507
I8
aI16
aa(lp508
I14
aI4
aa(lp509
I14
aI10
aa(lp510
I14
aI16
aaI12
aa(lp511
I-1
a(lp512
I2
aI5
aa(lp513
I2
aI11
aa(lp514
I2
aI17
aa(lp515
I8
aI5
aa(lp516
I8
aI11
aa(lp517
I8
aI17
aa(lp518
I14
aI5
aa(lp519
I14
aI11
aa(lp520
I14
aI17
aaI12
aa(lp521
I-1
a(lp522
I2
aI6
aa(lp523
I2
aI12
aa(lp524
I2
aI18
aa(lp525
I8
aI6
aa(lp526
I8
aI12
aa(lp527
I8
aI18
aa(lp528
I14
aI6
aa(lp529
I14
aI12
aa(lp530
I14
aI18
aaI12
aa(lp531
I-1
a(lp532
I3
aI4
aa(lp533
I3
aI10
aa(lp534
I3
aI16
aa(lp535
I9
aI4
aa(lp536
I9
aI10
aa(lp537
I9
aI16
aa(lp538
I15
aI4
aa(lp539
I15
aI10
aa(lp540
I15
aI16
aaI12
aa(lp541
I-1
a(lp542
I3
aI5
aa(lp543
I3
aI11
aa(lp544
I3
aI17
aa(lp545
I9
aI5
aa(lp546
I9
aI11
aa(lp547
I9
aI17
aa(lp548
I15
aI5
aa(lp549
I15
aI11
aa(lp550
I15
aI17
aaI12
aa(lp551
I-1
a(lp552
I3
aI6
aa(lp553
I3
aI12
aa(lp554
I3
aI18
aa(lp555
I9
aI6
aa(lp556
I9
aI12
aa(lp557
I9
aI18
aa(lp558
I15
aI6
aa(lp559
I15
aI12
aa(lp560
I15
aI18
aaI12
aa(lp561
I-1
a(lp562
I-1
aI3
aa(lp563
I-1
aI10
aa(lp564
I-1
aI17
aa(lp565
I6
aI3
aa(lp566
I6
aI10
aa(lp567
I6
aI17
aa(lp568
I13
aI3
aa(lp569
I13
aI10
aa(lp570
I13
aI17
aaI14
aa(lp571
I-1
a(lp572
I-1
aI4
aa(lp573
I-1
aI11
aa(lp574
I-1
aI18
aa(lp575
I6
aI4
aa(lp576
I6
aI11
aa(lp577
I6
aI18
aa(lp578
I13
aI4
aa(lp579
I13
aI11
aa(lp580
I13
aI18
aaI14
aa(lp581
I-1
a(lp582
I0
aI3
aa(lp583
I0
aI10
aa(lp584
I0
aI17
aa(lp585
I7
aI3
aa(lp586
I7
aI10
aa(lp587
I7
aI17
aa(lp588
I14
aI3
aa(lp589
I14
aI10
aa(lp590
I14
aI17
aaI14
aa(lp591
I-1
a(lp592
I0
aI4
aa(lp593
I0
aI11
aa(lp594
I0
aI18
aa(lp595
I7
aI4
aa(lp596
I7
aI11
aa(lp597
I7
aI18
aa(lp598
I14
aI4
aa(lp599
I14
aI11
aa(lp600
I14
aI18
aaI14
aa(lp601
I-1
a(lp602
I1
aI3
aa(lp603
I1
aI10
aa(lp604
I1
aI17
aa(lp605
I8
aI3
aa(lp606
I8
aI10
aa(lp607
I8
aI17
aa(lp608
I15
aI3
aa(lp609
I15
aI10
aa(lp610
I15
aI17
aaI14
aa(lp611
I-1
a(lp612
I1
aI4
aa(lp613
I1
aI11
aa(lp614
I1
aI18
aa(lp615
I8
aI4
aa(lp616
I8
aI11
aa(lp617
I8
aI18
aa(lp618
I15
aI4
aa(lp619
I15
aI11
aa(lp620
I15
aI18
aaI14
aa(lp621
I-1
a(lp622
I2
aI3
aa(lp623
I2
aI10
aa(lp624
I2
aI17
aa(lp625
I9
aI3
aa(lp626
I9
aI10
aa(lp627
I9
aI17
aa(lp628
I16
aI3
aa(lp629
I16
aI10
aa(lp630
I16
aI17
aaI14
aa(lp631
I-1
a(lp632
I2
aI4
aa(lp633
I2
aI11
aa(lp634
I2
aI18
aa(lp635
I9
aI4
aa(lp636
I9
aI11
aa(lp637
I9
aI18
aa(lp638
I16
aI4
aa(lp639
I16
aI11
aa(lp640
I16
aI18
aaI14
aa(lp641
I-1
a(lp642
I-1
aI2
aa(lp643
I-1
aI10
aa(lp644
I-1
aI18
aa(lp645
I7
aI2
aa(lp646
I7
aI10
aa(lp647
I7
aI18
aa(lp648
I15
aI2
aa(lp649
I15
aI10
aa(lp650
I15
aI18
aaI16
aa(lp651
I-1
a(lp652
I0
aI2
aa(lp653
I0
aI10
aa(lp654
I0
aI18
aa(lp655
I8
aI2
aa(lp656
I8
aI10
aa(lp657
I8
aI18
aa(lp658
I16
aI2
aa(lp659
I16
aI10
aa(lp660
I16
aI18
aaI16
aa(lp661
I-1
a(lp662
I1
aI2
aa(lp663
I1
aI10
aa(lp664
I1
aI18
aa(lp665
I9
aI2
aa(lp666
I9
aI10
aa(lp667
I9
aI18
aa(lp668
I17
aI2
aa(lp669
I17
aI10
aa(lp670
I17
aI18
aaI16
aa.