(lp0
(lp1
I1
a(lp2
I-1
aI8
aa(lp3
I-1
aI10
aa(lp4
I-1
aI12
aa(lp5
I1
aI8
aa(lp6
I1
aI10
aa(lp7
I1
aI12
aa(lp8
I3
aI8
aa(lp9
I3
aI10
aa(lp10
I3
aI12
aaI4
aa(lp11
I1
a(lp12
I5
aI3
aa(lp13
I5
aI5
aa(lp14
I5
aI7
aa(lp15
I7
aI3
aa(lp16
I7
aI5
aa(lp17
I7
aI7
aa(lp18
I9
aI3
aa(lp19
I9
aI5
aa(lp20
I9
aI7
aaI4
aa(lp21
I1
a(lp22
I6
aI2
aa(lp23
I6
aI4
aa(lp24
I6
aI6
aa(lp25
I8
aI2
aa(lp26
I8
aI4
aa(lp27
I8
aI6
aa(lp28
I10
aI2
aa(lp29
I10
aI4
aa(lp30
I10
aI6
aaI4
aa(lp31
I1
a(lp32
I13
aI12
aa(lp33
I13
aI14
aa(lp34
I13
aI16
aa(lp35
I15
aI12
aa(lp36
I15
aI14
aa(lp37
I15
aI16
aa(lp38
I17
aI12
aa(lp39
I17
aI14
aa(lp40
I17
aI16
aaI4
aa(lp41
I1
a(lp42
I13
aI13
aa(lp43
I13
aI15
aa(lp44
I13
aI17
aa(lp45
I15
aI13
aa(lp46
I15
aI15
aa(lp47
I15
aI17
aa(lp48
I17
aI13
aa(lp49
I17
aI15
aa(lp50
I17
aI17
aaI4
aa(lp51
I1
a(lp52
I14
aI12
aa(lp53
I14
aI14
aa(lp54
I14
aI16
aa(lp55
I16
aI12
aa(lp56
I16
aI14
aa(lp57
I16
aI16
aa(lp58
I18
aI12
aa(lp59
I18
aI14
aa(lp60
I18
aI16
aaI4
aa(lp61
I1
a(lp62
I-1
aI-1
aa(lp63
I-1
aI2
aa(lp64
I-1
aI5
aa(lp65
I2
aI-1
aa(lp66
I2
aI2
aa(lp67
I2
aI5
aa(lp68
I5
aI-1
aa(lp69
I5
aI2
aa(lp70
I5
aI5
aaI6
aa(lp71
I1
a(lp72
I-1
aI0
aa(lp73
I-1
aI3
aa(lp74
I-1
aI6
aa(lp75
I2
aI0
aa(lp76
I2
aI3
aa(lp77
I2
aI6
aa(lp78
I5
aI0
aa(lp79
I5
aI3
aa(lp80
I5
aI6
aaI6
aa(lp81
I1
a(lp82
I-1
aI1
aa(lp83
I-1
aI4
aa(lp84
I-1
aI7
aa(lp85
I2
aI1
aa(lp86
I2
aI4
aa(lp87
I2
aI7
aa(lp88
I5
aI1
aa(lp89
I5
aI4
aa(lp90
I5
aI7
aaI6
aa(lp91
I1
a(lp92
I-1
aI7
aa(lp93
I-1
aI10
aa(lp94
I-1
aI13
aa(lp95
I2
aI7
aa(lp96
I2
aI10
aa(lp97
I2
aI13
aa(lp98
I5
aI7
aa(lp99
I5
aI10
aa(lp100
I5
aI13
aaI6
aa(lp101
I1
a(lp102
I-1
aI8
aa(lp103
I-1
aI11
aa(lp104
I-1
aI14
aa(lp105
I2
aI8
aa(lp106
I2
aI11
aa(lp107
I2
aI14
aa(lp108
I5
aI8
aa(lp109
I5
aI11
aa(lp110
I5
aI14
aaI6
aa(lp111
I1
a(lp112
I0
aI-1
aa(lp113
I0
aI2
aa(lp114
I0
aI5
aa(lp115
I3
aI-1
aa(lp116
I3
aI2
aa(lp117
I3
aI5
aa(lp118
I6
aI-1
aa(lp119
I6
aI2
aa(lp120
I6
aI5
aaI6
aa(lp121
I1
a(lp122
I3
aI2
aa(lp123
I3
aI5
aa(lp124
I3
aI8
aa(lp125
I6
aI2
aa(lp126
I6
aI5
aa(lp127
I6
aI8
aa(lp128
I9
aI2
aa(lp129
I9
aI5
aa(lp130
I9
aI8
aaI6
aa(lp131
I1
a(lp132
I3
aI3
aa(lp133
I3
aI6
aa(lp134
I3
aI9
aa(lp135
I6
aI3
aa(lp136
I6
aI6
aa(lp137
I6
aI9
aa(lp138
I9
aI3
aa(lp139
I9
aI6
aa(lp140
I9
aI9
aaI6
aa(lp141
I1
a(lp142
I3
aI12
aa(lp143
I3
aI15
aa(lp144
I3
aI18
aa(lp145
I6
aI12
aa(lp146
I6
aI15
aa(lp147
I6
aI18
aa(lp148
I9
aI12
aa(lp149
I9
aI15
aa(lp150
I9
aI18
aaI6
aa(lp151
I1
a(lp152
I4
aI1
aa(lp153
I4
aI4
aa(lp154
I4
aI7
aa(lp155
I7
aI1
aa(lp156
I7
aI4
aa(lp157
I7
aI7
aa(lp158
I10
aI1
aa(lp159
I10
aI4
aa(lp160
I10
aI7
aaI6
aa(lp161
I1
a(lp162
I4
aI2
aa(lp163
I4
aI5
aa(lp164
I4
aI8
aa(lp165
I7
aI2
aa(lp166
I7
aI5
aa(lp167
I7
aI8
aa(lp168
I10
aI2
aa(lp169
I10
aI5
aa(lp170
I10
aI8
aaI6
aa(lp171
I1
a(lp172
I4
aI3
aa(lp173
I4
aI6
aa(lp174
I4
aI9
aa(lp175
I7
aI3
aa(lp176
I7
aI6
aa(lp177
I7
aI9
aa(lp178
I10
aI3
aa(lp179
I10
aI6
aa(lp180
I10
aI9
aaI6
aa(lp181
I1
a(lp182
I5
aI1
aa(lp183
I5
aI4
aa(lp184
I5
aI7
aa(lp185
I8
aI1
aa(lp186
I8
aI4
aa(lp187
I8
aI7
aa(lp188
I11
aI1
aa(lp189
I11
aI4
aa(lp190
I11
aI7
aaI6
aa(lp191
I1
a(lp192
I5
aI2
aa(lp193
I5
aI5
aa(lp194
I5
aI8
aa(lp195
I8
aI2
aa(lp196
I8
aI5
aa(lp197
I8
aI8
aa(lp198
I11
aI2
aa(lp199
I11
aI5
aa(lp200
I11
aI8
aaI6
aa(lp201
I1
a(lp202
I6
aI4
aa(lp203
I6
aI7
aa(lp204
I6
aI10
aa(lp205
I9
aI4
aa(lp206
I9
aI7
aa(lp207
I9
aI10
aa(lp208
I12
aI4
aa(lp209
I12
aI7
aa(lp210
I12
aI10
aaI6
aa(lp211
I1
a(lp212
I6
aI5
aa(lp213
I6
aI8
aa(lp214
I6
aI11
aa(lp215
I9
aI5
aa(lp216
I9
aI8
aa(lp217
I9
aI11
aa(lp218
I12
aI5
aa(lp219
I12
aI8
aa(lp220
I12
aI11
aaI6
aa(lp221
I1
a(lp222
I7
aI4
aa(lp223
I7
aI7
aa(lp224
I7
aI10
aa(lp225
I10
aI4
aa(lp226
I10
aI7
aa(lp227
I10
aI10
aa(lp228
I13
aI4
aa(lp229
I13
aI7
aa(lp230
I13
aI10
aaI6
aa(lp231
I1
a(lp232
I7
aI5
aa(lp233
I7
aI8
aa(lp234
I7
aI11
aa(lp235
I10
aI5
aa(lp236
I10
aI8
aa(lp237
I10
aI11
aa(lp238
I13
aI5
aa(lp239
I13
aI8
aa(lp240
I13
aI11
aaI6
aa(lp241
I1
a(lp242
I8
aI5
aa(lp243
I8
aI8
aa(lp244
I8
aI11
aa(lp245
I11
aI5
aa(lp246
I11
aI8
aa(lp247
I11
aI11
aa(lp248
I14
aI5
aa(lp249
I14
aI8
aa(lp250
I14
aI11
aaI6
aa(lp251
I1
a(lp252
I10
aI8
aa(lp253
I10
aI11
aa(lp254
I10
aI14
aa(lp255
I13
aI8
aa(lp256
I13
aI11
aa(lp257
I13
aI14
aa(lp258
I16
aI8
aa(lp259
I16
aI11
aa(lp260
I16
aI14
aaI6
aa(lp261
I1
a(lp262
I12
aI10
aa(lp263
I12
aI13
aa(lp264
I12
aI16
aa(lp265
I15
aI10
aa(lp266
I15
aI13
aa(lp267
I15
aI16
aa(lp268
I18
aI10
aa(lp269
I18
aI13
aa(lp270
I18
aI16
aaI6
aa(lp271
I1
a(lp272
I12
aI11
aa(lp273
I12
aI14
aa(lp274
I12
aI17
aa(lp275
I15
aI11
aa(lp276
I15
aI14
aa(lp277
I15
aI17
aa(lp278
I18
aI11
aa(lp279
I18
aI14
aa(lp280
I18
aI17
aaI6
aa(lp281
I1
a(lp282
I12
aI12
aa(lp283
I12
aI15
aa(lp284
I12
aI18
aa(lp285
I15
aI12
aa(lp286
I15
aI15
aa(lp287
I15
aI18
aa(lp288
I18
aI12
aa(lp289
I18
aI15
aa(lp290
I18
aI18
aaI6
aa(lp291
I1
a(lp292
I-1
aI-1
aa(lp293
I-1
aI3
aa(lp294
I-1
aI7
aa(lp295
I3
aI-1
aa(lp296
I3
aI3
aa(lp297
I3
aI7
aa(lp298
I7
aI-1
aa(lp299
I7
aI3
aa(lp300
I7
aI7
aaI8
aa(lp301
I1
a(lp302
I-1
aI0
aa(lp303
I-1
aI4
aa(lp304
I-1
aI8
aa(lp305
I3
aI0
aa(lp306
I3
aI4
aa(lp307
I3
aI8
aa(lp308
I7
aI0
aa(lp309
I7
aI4
aa(lp310
I7
aI8
aaI8
aa(lp311
I1
a(lp312
I1
aI1
aa(lp313
I1
aI5
aa(lp314
I1
aI9
aa(lp315
I5
aI1
aa(lp316
I5
aI5
aa(lp317
I5
aI9
aa(lp318
I9
aI1
aa(lp319
I9
aI5
aa(lp320
I9
aI9
aaI8
aa(lp321
I1
a(lp322
I2
aI0
aa(lp323
I2
aI4
aa(lp324
I2
aI8
aa(lp325
I6
aI0
aa(lp326
I6
aI4
aa(lp327
I6
aI8
aa(lp328
I10
aI0
aa(lp329
I10
aI4
aa(lp330
I10
aI8
aaI8
aa(lp331
I1
a(lp332
I2
aI1
aa(lp333
I2
aI5
aa(lp334
I2
aI9
aa(lp335
I6
aI1
aa(lp336
I6
aI5
aa(lp337
I6
aI9
aa(lp338
I10
aI1
aa(lp339
I10
aI5
aa(lp340
I10
aI9
aaI8
aa(lp341
I1
a(lp342
I2
aI2
aa(lp343
I2
aI6
aa(lp344
I2
aI10
aa(lp345
I6
aI2
aa(lp346
I6
aI6
aa(lp347
I6
aI10
aa(lp348
I10
aI2
aa(lp349
I10
aI6
aa(lp350
I10
aI10
aaI8
aa(lp351
I1
a(lp352
I2
aI3
aa(lp353
I2
aI7
aa(lp354
I2
aI11
aa(lp355
I6
aI3
aa(lp356
I6
aI7
aa(lp357
I6
aI11
aa(lp358
I10
aI3
aa(lp359
I10
aI7
aa(lp360
I10
aI11
aaI8
aa(lp361
I1
a(lp362
I3
aI0
aa(lp363
I3
aI4
aa(lp364
I3
aI8
aa(lp365
I7
aI0
aa(lp366
I7
aI4
aa(lp367
I7
aI8
aa(lp368
I11
aI0
aa(lp369
I11
aI4
aa(lp370
I11
aI8
aaI8
aa(lp371
I1
a(lp372
I3
aI1
aa(lp373
I3
aI5
aa(lp374
I3
aI9
aa(lp375
I7
aI1
aa(lp376
I7
aI5
aa(lp377
I7
aI9
aa(lp378
I11
aI1
aa(lp379
I11
aI5
aa(lp380
I11
aI9
aaI8
aa(lp381
I1
a(lp382
I3
aI2
aa(lp383
I3
aI6
aa(lp384
I3
aI10
aa(lp385
I7
aI2
aa(lp386
I7
aI6
aa(lp387
I7
aI10
aa(lp388
I11
aI2
aa(lp389
I11
aI6
aa(lp390
I11
aI10
aaI8
aa(lp391
I1
a(lp392
I3
aI3
aa(lp393
I3
aI7
aa(lp394
I3
aI11
aa(lp395
I7
aI3
aa(lp396
I7
aI7
aa(lp397
I7
aI11
aa(lp398
I11
aI3
aa(lp399
I11
aI7
aa(lp400
I11
aI11
aaI8
aa(lp401
I1
a(lp402
I3
aI4
aa(lp403
I3
aI8
aa(lp404
I3
aI12
aa(lp405
I7
aI4
aa(lp406
I7
aI8
aa(lp407
I7
aI12
aa(lp408
I11
aI4
aa(lp409
I11
aI8
aa(lp410
I11
aI12
aaI8
aa(lp411
I1
a(lp412
I4
aI0
aa(lp413
I4
aI4
aa(lp414
I4
aI8
aa(lp415
I8
aI0
aa(lp416
I8
aI4
aa(lp417
I8
aI8
aa(lp418
I12
aI0
aa(lp419
I12
aI4
aa(lp420
I12
aI8
aaI8
aa(lp421
I1
a(lp422
I4
aI1
aa(lp423
I4
aI5
aa(lp424
I4
aI9
aa(lp425
I8
aI1
aa(lp426
I8
aI5
aa(lp427
I8
aI9
aa(lp428
I12
aI1
aa(lp429
I12
aI5
aa(lp430
I12
aI9
aaI8
aa(lp431
I1
a(lp432
I4
aI2
aa(lp433
I4
aI6
aa(lp434
I4
aI10
aa(lp435
I8
aI2
aa(lp436
I8
aI6
aa(lp437
I8
aI10
aa(lp438
I12
aI2
aa(lp439
I12
aI6
aa(lp440
I12
aI10
aaI8
aa(lp441
I1
a(lp442
I4
aI3
aa(lp443
I4
aI7
aa(lp444
I4
aI11
aa(lp445
I8
aI3
aa(lp446
I8
aI7
aa(lp447
I8
aI11
aa(lp448
I12
aI3
aa(lp449
I12
aI7
aa(lp450
I12
aI11
aaI8
aa(lp451
I1
a(lp452
I4
aI4
aa(lp453
I4
aI8
aa(lp454
I4
aI12
aa(lp455
I8
aI4
aa(lp456
I8
aI8
aa(lp457
I8
aI12
aa(lp458
I12
aI4
aa(lp459
I12
aI8
aa(lp460
I12
aI12
aaI8
aa(lp461
I1
a(lp462
I5
aI1
aa(lp463
I5
aI5
aa(lp464
I5
aI9
aa(lp465
I9
aI1
aa(lp466
I9
aI5
aa(lp467
I9
aI9
aa(lp468
I13
aI1
aa(lp469
I13
aI5
aa(lp470
I13
aI9
aaI8
aa(lp471
I1
a(lp472
I5
aI2
aa(lp473
I5
aI6
aa(lp474
I5
aI10
aa(lp475
I9
aI2
aa(lp476
I9
aI6
aa(lp477
I9
aI10
aa(lp478
I13
aI2
aa(lp479
I13
aI6
aa(lp480
I13
aI10
aaI8
aa(lp481
I1
a(lp482
I5
aI3
aa(lp483
I5
aI7
aa(lp484
I5
aI11
aa(lp485
I9
aI3
aa(lp486
I9
aI7
aa(lp487
I9
aI11
aa(lp488
I13
aI3
aa(lp489
I13
aI7
aa(lp490
I13
aI11
aaI8
aa(lp491
I1
a(lp492
I5
aI4
aa(lp493
I5
aI8
aa(lp494
I5
aI12
aa(lp495
I9
aI4
aa(lp496
I9
aI8
aa(lp497
I9
aI12
aa(lp498
I13
aI4
aa(lp499
I13
aI8
aa(lp500
I13
aI12
aaI8
aa(lp501
I1
a(lp502
I6
aI3
aa(lp503
I6
aI7
aa(lp504
I6
aI11
aa(lp505
I10
aI3
aa(lp506
I10
aI7
aa(lp507
I10
aI11
aa(lp508
I14
aI3
aa(lp509
I14
aI7
aa(lp510
I14
aI11
aaI8
aa(lp511
I1
a(lp512
I6
aI4
aa(lp513
I6
aI8
aa(lp514
I6
aI12
aa(lp515
I10
aI4
aa(lp516
I10
aI8
aa(lp517
I10
aI12
aa(lp518
I14
aI4
aa(lp519
I14
aI8
aa(lp520
I14
aI12
aaI8
aa(lp521
I1
a(lp522
I9
aI7
aa(lp523
I9
aI11
aa(lp524
I9
aI15
aa(lp525
I13
aI7
aa(lp526
I13
aI11
aa(lp527
I13
aI15
aa(lp528
I17
aI7
aa(lp529
I17
aI11
aa(lp530
I17
aI15
aaI8
aa(lp531
I1
a(lp532
I9
aI8
aa(lp533
I9
aI12
aa(lp534
I9
aI16
aa(lp535
I13
aI8
aa(lp536
I13
aI12
aa(lp537
I13
aI16
aa(lp538
I17
aI8
aa(lp539
I17
aI12
aa(lp540
I17
aI16
aaI8
aa(lp541
I1
a(lp542
I9
aI9
aa(lp543
I9
aI13
aa(lp544
I9
aI17
aa(lp545
I13
aI9
aa(lp546
I13
aI13
aa(lp547
I13
aI17
aa(lp548
I17
aI9
aa(lp549
I17
aI13
aa(lp550
I17
aI17
aaI8
aa(lp551
I1
a(lp552
I9
aI10
aa(lp553
I9
aI14
aa(lp554
I9
aI18
aa(lp555
I13
aI10
aa(lp556
I13
aI14
aa(lp557
I13
aI18
aa(lp558
I17
aI10
aa(lp559
I17
aI14
aa(lp560
I17
aI18
aaI8
aa(lp561
I1
a(lp562
I10
aI7
aa(lp563
I10
aI11
aa(lp564
I10
aI15
aa(lp565
I14
aI7
aa(lp566
I14
aI11
aa(lp567
I14
aI15
aa(lp568
I18
aI7
aa(lp569
I18
aI11
aa(lp570
I18
aI15
aaI8
aa(lp571
I1
a(lp572
I10
aI8
aa(lp573
I10
aI12
aa(lp574
I10
aI16
aa(lp575
I14
aI8
aa(lp576
I14
aI12
aa(lp577
I14
aI16
aa(lp578
I18
aI8
aa(lp579
I18
aI12
aa(lp580
I18
aI16
aaI8
aa(lp581
I1
a(lp582
I10
aI9
aa(lp583
I10
aI13
aa(lp584
I10
aI17
aa(lp585
I14
aI9
aa(lp586
I14
aI13
aa(lp587
I14
aI17
aa(lp588
I18
aI9
aa(lp589
I18
aI13
aa(lp590
I18
aI17
aaI8
aa(lp591
I1
a(lp592
I10
aI10
aa(lp593
I10
aI14
aa(lp594
I10
aI18
aa(lp595
I14
aI10
aa(lp596
I14
aI14
aa(lp597
I14
aI18
aa(lp598
I18
aI10
aa(lp599
I18
aI14
aa(lp600
I18
aI18
aaI8
aa(lp601
I1
a(lp602
I-1
aI-1
aa(lp603
I-1
aI4
aa(lp604
I-1
aI9
aa(lp605
I4
aI-1
aa(lp606
I4
aI4
aa(lp607
I4
aI9
aa(lp608
I9
aI-1
aa(lp609
I9
aI4
aa(lp610
I9
aI9
aaI10
aa(lp611
I1
a(lp612
I0
aI-1
aa(lp613
I0
aI4
aa(lp614
I0
aI9
aa(lp615
I5
aI-1
aa(lp616
I5
aI4
aa(lp617
I5
aI9
aa(lp618
I10
aI-1
aa(lp619
I10
aI4
aa(lp620
I10
aI9
aaI10
aa(lp621
I1
a(lp622
I0
aI0
aa(lp623
I0
aI5
aa(lp624
I0
aI10
aa(lp625
I5
aI0
aa(lp626
I5
aI5
aa(lp627
I5
aI10
aa(lp628
I10
aI0
aa(lp629
I10
aI5
aa(lp630
I10
aI10
aaI10
aa(lp631
I1
a(lp632
I1
aI-1
aa(lp633
I1
aI4
aa(lp634
I1
aI9
aa(lp635
I6
aI-1
aa(lp636
I6
aI4
aa(lp637
I6
aI9
aa(lp638
I11
aI-1
aa(lp639
I11
aI4
aa(lp640
I11
aI9
aaI10
aa(lp641
I1
a(lp642
I1
aI0
aa(lp643
I1
aI5
aa(lp644
I1
aI10
aa(lp645
I6
aI0
aa(lp646
I6
aI5
aa(lp647
I6
aI10
aa(lp648
I11
aI0
aa(lp649
I11
aI5
aa(lp650
I11
aI10
aaI10
aa(lp651
I1
a(lp652
I1
aI1
aa(lp653
I1
aI6
aa(lp654
I1
aI11
aa(lp655
I6
aI1
aa(lp656
I6
aI6
aa(lp657
I6
aI11
aa(lp658
I11
aI1
aa(lp659
I11
aI6
aa(lp660
I11
aI11
aaI10
aa(lp661
I1
a(lp662
I1
aI2
aa(lp663
I1
aI7
aa(lp664
I1
aI12
aa(lp665
I6
aI2
aa(lp666
I6
aI7
aa(lp667
I6
aI12
aa(lp668
I11
aI2
aa(lp669
I11
aI7
aa(lp670
I11
aI12
aaI10
aa(lp671
I1
a(lp672
I1
aI3
aa(lp673
I1
aI8
aa(lp674
I1
aI13
aa(lp675
I6
aI3
aa(lp676
I6
aI8
aa(lp677
I6
aI13
aa(lp678
I11
aI3
aa(lp679
I11
aI8
aa(lp680
I11
aI13
aaI10
aa(lp681
I1
a(lp682
I2
aI-1
aa(lp683
I2
aI4
aa(lp684
I2
aI9
aa(lp685
I7
aI-1
aa(lp686
I7
aI4
aa(lp687
I7
aI9
aa(lp688
I12
aI-1
aa(lp689
I12
aI4
aa(lp690
I12
aI9
aaI10
aa(lp691
I1
a(lp692
I2
aI0
aa(lp693
I2
aI5
aa(lp694
I2
aI10
aa(lp695
I7
aI0
aa(lp696
I7
aI5
aa(lp697
I7
aI10
aa(lp698
I12
aI0
aa(lp699
I12
aI5
aa(lp700
I12
aI10
aaI10
aa(lp701
I1
a(lp702
I2
aI1
aa(lp703
I2
aI6
aa(lp704
I2
aI11
aa(lp705
I7
aI1
aa(lp706
I7
aI6
aa(lp707
I7
aI11
aa(lp708
I12
aI1
aa(lp709
I12
aI6
aa(lp710
I12
aI11
aaI10
aa(lp711
I1
a(lp712
I2
aI2
aa(lp713
I2
aI7
aa(lp714
I2
aI12
aa(lp715
I7
aI2
aa(lp716
I7
aI7
aa(lp717
I7
aI12
aa(lp718
I12
aI2
aa(lp719
I12
aI7
aa(lp720
I12
aI12
aaI10
aa(lp721
I1
a(lp722
I2
aI3
aa(lp723
I2
aI8
aa(lp724
I2
aI13
aa(lp725
I7
aI3
aa(lp726
I7
aI8
aa(lp727
I7
aI13
aa(lp728
I12
aI3
aa(lp729
I12
aI8
aa(lp730
I12
aI13
aaI10
aa(lp731
I1
a(lp732
I3
aI-1
aa(lp733
I3
aI4
aa(lp734
I3
aI9
aa(lp735
I8
aI-1
aa(lp736
I8
aI4
aa(lp737
I8
aI9
aa(lp738
I13
aI-1
aa(lp739
I13
aI4
aa(lp740
I13
aI9
aaI10
aa(lp741
I1
a(lp742
I3
aI0
aa(lp743
I3
aI5
aa(lp744
I3
aI10
aa(lp745
I8
aI0
aa(lp746
I8
aI5
aa(lp747
I8
aI10
aa(lp748
I13
aI0
aa(lp749
I13
aI5
aa(lp750
I13
aI10
aaI10
aa(lp751
I1
a(lp752
I3
aI1
aa(lp753
I3
aI6
aa(lp754
I3
aI11
aa(lp755
I8
aI1
aa(lp756
I8
aI6
aa(lp757
I8
aI11
aa(lp758
I13
aI1
aa(lp759
I13
aI6
aa(lp760
I13
aI11
aaI10
aa(lp761
I1
a(lp762
I3
aI2
aa(lp763
I3
aI7
aa(lp764
I3
aI12
aa(lp765
I8
aI2
aa(lp766
I8
aI7
aa(lp767
I8
aI12
aa(lp768
I13
aI2
aa(lp769
I13
aI7
aa(lp770
I13
aI12
aaI10
aa(lp771
I1
a(lp772
I3
aI3
aa(lp773
I3
aI8
aa(lp774
I3
aI13
aa(lp775
I8
aI3
aa(lp776
I8
aI8
aa(lp777
I8
aI13
aa(lp778
I13
aI3
aa(lp779
I13
aI8
aa(lp780
I13
aI13
aaI10
aa(lp781
I1
a(lp782
I4
aI-1
aa(lp783
I4
aI4
aa(lp784
I4
aI9
aa(lp785
I9
aI-1
aa(lp786
I9
aI4
aa(lp787
I9
aI9
aa(lp788
I14
aI-1
aa(lp789
I14
aI4
aa(lp790
I14
aI9
aaI10
aa(lp791
I1
a(lp792
I4
aI0
aa(lp793
I4
aI5
aa(lp794
I4
aI10
aa(lp795
I9
aI0
aa(lp796
I9
aI5
aa(lp797
I9
aI10
aa(lp798
I14
aI0
aa(lp799
I14
aI5
aa(lp800
I14
aI10
aaI10
aa(lp801
I1
a(lp802
I4
aI1
aa(lp803
I4
aI6
aa(lp804
I4
aI11
aa(lp805
I9
aI1
aa(lp806
I9
aI6
aa(lp807
I9
aI11
aa(lp808
I14
aI1
aa(lp809
I14
aI6
aa(lp810
I14
aI11
aaI10
aa(lp811
I1
a(lp812
I4
aI2
aa(lp813
I4
aI7
aa(lp814
I4
aI12
aa(lp815
I9
aI2
aa(lp816
I9
aI7
aa(lp817
I9
aI12
aa(lp818
I14
aI2
aa(lp819
I14
aI7
aa(lp820
I14
aI12
aaI10
aa(lp821
I1
a(lp822
I4
aI3
aa(lp823
I4
aI8
aa(lp824
I4
aI13
aa(lp825
I9
aI3
aa(lp826
I9
aI8
aa(lp827
I9
aI13
aa(lp828
I14
aI3
aa(lp829
I14
aI8
aa(lp830
I14
aI13
aaI10
aa(lp831
I1
a(lp832
I5
aI-1
aa(lp833
I5
aI4
aa(lp834
I5
aI9
aa(lp835
I10
aI-1
aa(lp836
I10
aI4
aa(lp837
I10
aI9
aa(lp838
I15
aI-1
aa(lp839
I15
aI4
aa(lp840
I15
aI9
aaI10
aa(lp841
I1
a(lp842
I5
aI0
aa(lp843
I5
aI5
aa(lp844
I5
aI10
aa(lp845
I10
aI0
aa(lp846
I10
aI5
aa(lp847
I10
aI10
aa(lp848
I15
aI0
aa(lp849
I15
aI5
aa(lp850
I15
aI10
aaI10
aa(lp851
I1
a(lp852
I5
aI1
aa(lp853
I5
aI6
aa(lp854
I5
aI11
aa(lp855
I10
aI1
aa(lp856
I10
aI6
aa(lp857
I10
aI11
aa(lp858
I15
aI1
aa(lp859
I15
aI6
aa(lp860
I15
aI11
aaI10
aa(lp861
I1
a(lp862
I5
aI2
aa(lp863
I5
aI7
aa(lp864
I5
aI12
aa(lp865
I10
aI2
aa(lp866
I10
aI7
aa(lp867
I10
aI12
aa(lp868
I15
aI2
aa(lp869
I15
aI7
aa(lp870
I15
aI12
aaI10
aa(lp871
I1
a(lp872
I5
aI3
aa(lp873
I5
aI8
aa(lp874
I5
aI13
aa(lp875
I10
aI3
aa(lp876
I10
aI8
aa(lp877
I10
aI13
aa(lp878
I15
aI3
aa(lp879
I15
aI8
aa(lp880
I15
aI13
aaI10
aa(lp881
I1
a(lp882
I7
aI7
aa(lp883
I7
aI12
aa(lp884
I7
aI17
aa(lp885
I12
aI7
aa(lp886
I12
aI12
aa(lp887
I12
aI17
aa(lp888
I17
aI7
aa(lp889
I17
aI12
aa(lp890
I17
aI17
aaI10
aa(lp891
I1
a(lp892
I7
aI8
aa(lp893
I7
aI13
aa(lp894
I7
aI18
aa(lp895
I12
aI8
aa(lp896
I12
aI13
aa(lp897
I12
aI18
aa(lp898
I17
aI8
aa(lp899
I17
aI13
aa(lp900
I17
aI18
aaI10
aa(lp901
I1
a(lp902
I8
aI6
aa(lp903
I8
aI11
aa(lp904
I8
aI16
aa(lp905
I13
aI6
aa(lp906
I13
aI11
aa(lp907
I13
aI16
aa(lp908
I18
aI6
aa(lp909
I18
aI11
aa(lp910
I18
aI16
aaI10
aa(lp911
I1
a(lp912
I8
aI7
aa(lp913
I8
aI12
aa(lp914
I8
aI17
aa(lp915
I13
aI7
aa(lp916
I13
aI12
aa(lp917
I13
aI17
aa(lp918
I18
aI7
aa(lp919
I18
aI12
aa(lp920
I18
aI17
aaI10
aa(lp921
I1
a(lp922
I8
aI8
aa(lp923
I8
aI13
aa(lp924
I8
aI18
aa(lp925
I13
aI8
aa(lp926
I13
aI13
aa(lp927
I13
aI18
aa(lp928
I18
aI8
aa(lp929
I18
aI13
aa(lp930
I18
aI18
aaI10
aa(lp931
I1
a(lp932
I-1
aI-1
aa(lp933
I-1
aI5
aa(lp934
I-1
aI11
aa(lp935
I5
aI-1
aa(lp936
I5
aI5
aa(lp937
I5
aI11
aa(lp938
I11
aI-1
aa(lp939
I11
aI5
aa(lp940
I11
aI11
aaI12
aa(lp941
I1
a(lp942
I-1
aI0
aa(lp943
I-1
aI6
aa(lp944
I-1
aI12
aa(lp945
I5
aI0
aa(lp946
I5
aI6
aa(lp947
I5
aI12
aa(lp948
I11
aI0
aa(lp949
I11
aI6
aa(lp950
I11
aI12
aaI12
aa(lp951
I1
a(lp952
I0
aI-1
aa(lp953
I0
aI5
aa(lp954
I0
aI11
aa(lp955
I6
aI-1
aa(lp956
I6
aI5
aa(lp957
I6
aI11
aa(lp958
I12
aI-1
aa(lp959
I12
aI5
aa(lp960
I12
aI11
aaI12
aa(lp961
I1
a(lp962
I0
aI0
aa(lp963
I0
aI6
aa(lp964
I0
aI12
aa(lp965
I6
aI0
aa(lp966
I6
aI6
aa(lp967
I6
aI12
aa(lp968
I12
aI0
aa(lp969
I12
aI6
aa(lp970
I12
aI12
aaI12
aa(lp971
I1
a(lp972
I0
aI1
aa(lp973
I0
aI7
aa(lp974
I0
aI13
aa(lp975
I6
aI1
aa(lp976
I6
aI7
aa(lp977
I6
aI13
aa(lp978
I12
aI1
aa(lp979
I12
aI7
aa(lp980
I12
aI13
aaI12
aa(lp981
I1
a(lp982
I1
aI-1
aa(lp983
I1
aI5
aa(lp984
I1
aI11
aa(lp985
I7
aI-1
aa(lp986
I7
aI5
aa(lp987
I7
aI11
aa(lp988
I13
aI-1
aa(lp989
I13
aI5
aa(lp990
I13
aI11
aaI12
aa(lp991
I1
a(lp992
I1
aI0
aa(lp993
I1
aI6
aa(lp994
I1
aI12
aa(lp995
I7
aI0
aa(lp996
I7
aI6
aa(lp997
I7
aI12
aa(lp998
I13
aI0
aa(lp999
I13
aI6
aa(lp1000
I13
aI12
aaI12
aa(lp1001
I1
a(lp1002
I1
aI1
aa(lp1003
I1
aI7
aa(lp1004
I1
aI13
aa(lp1005
I7
aI1
aa(lp1006
I7
aI7
aa(lp1007
I7
aI13
aa(lp1008
I13
aI1
aa(lp1009
I13
aI7
aa(lp1010
I13
aI13
aaI12
aa(lp1011
I1
a(lp1012
I1
aI2
aa(lp1013
I1
aI8
aa(lp1014
I1
aI14
aa(lp1015
I7
aI2
aa(lp1016
I7
aI8
aa(lp1017
I7
aI14
aa(lp1018
I13
aI2
aa(lp1019
I13
aI8
aa(lp1020
I13
aI14
aaI12
aa(lp1021
I1
a(lp1022
I2
aI-1
aa(lp1023
I2
aI5
aa(lp1024
I2
aI11
aa(lp1025
I8
aI-1
aa(lp1026
I8
aI5
aa(lp1027
I8
aI11
aa(lp1028
I14
aI-1
aa(lp1029
I14
aI5
aa(lp1030
I14
aI11
aaI12
aa(lp1031
I1
a(lp1032
I2
aI0
aa(lp1033
I2
aI6
aa(lp1034
I2
aI12
aa(lp1035
I8
aI0
aa(lp1036
I8
aI6
aa(lp1037
I8
aI12
aa(lp1038
I14
aI0
aa(lp1039
I14
aI6
aa(lp1040
I14
aI12
aaI12
aa(lp1041
I1
a(lp1042
I2
aI1
aa(lp1043
I2
aI7
aa(lp1044
I2
aI13
aa(lp1045
I8
aI1
aa(lp1046
I8
aI7
aa(lp1047
I8
aI13
aa(lp1048
I14
aI1
aa(lp1049
I14
aI7
aa(lp1050
I14
aI13
aaI12
aa(lp1051
I1
a(lp1052
I2
aI2
aa(lp1053
I2
aI8
aa(lp1054
I2
aI14
aa(lp1055
I8
aI2
aa(lp1056
I8
aI8
aa(lp1057
I8
aI14
aa(lp1058
I14
aI2
aa(lp1059
I14
aI8
aa(lp1060
I14
aI14
aaI12
aa(lp1061
I1
a(lp1062
I3
aI-1
aa(lp1063
I3
aI5
aa(lp1064
I3
aI11
aa(lp1065
I9
aI-1
aa(lp1066
I9
aI5
aa(lp1067
I9
aI11
aa(lp1068
I15
aI-1
aa(lp1069
I15
aI5
aa(lp1070
I15
aI11
aaI12
aa(lp1071
I1
a(lp1072
I3
aI0
aa(lp1073
I3
aI6
aa(lp1074
I3
aI12
aa(lp1075
I9
aI0
aa(lp1076
I9
aI6
aa(lp1077
I9
aI12
aa(lp1078
I15
aI0
aa(lp1079
I15
aI6
aa(lp1080
I15
aI12
aaI12
aa(lp1081
I1
a(lp1082
I3
aI1
aa(lp1083
I3
aI7
aa(lp1084
I3
aI13
aa(lp1085
I9
aI1
aa(lp1086
I9
aI7
aa(lp1087
I9
aI13
aa(lp1088
I15
aI1
aa(lp1089
I15
aI7
aa(lp1090
I15
aI13
aaI12
aa(lp1091
I1
a(lp1092
I3
aI2
aa(lp1093
I3
aI8
aa(lp1094
I3
aI14
aa(lp1095
I9
aI2
aa(lp1096
I9
aI8
aa(lp1097
I9
aI14
aa(lp1098
I15
aI2
aa(lp1099
I15
aI8
aa(lp1100
I15
aI14
aaI12
aa(lp1101
I1
a(lp1102
I4
aI-1
aa(lp1103
I4
aI5
aa(lp1104
I4
aI11
aa(lp1105
I10
aI-1
aa(lp1106
I10
aI5
aa(lp1107
I10
aI11
aa(lp1108
I16
aI-1
aa(lp1109
I16
aI5
aa(lp1110
I16
aI11
aaI12
aa(lp1111
I1
a(lp1112
I4
aI0
aa(lp1113
I4
aI6
aa(lp1114
I4
aI12
aa(lp1115
I10
aI0
aa(lp1116
I10
aI6
aa(lp1117
I10
aI12
aa(lp1118
I16
aI0
aa(lp1119
I16
aI6
aa(lp1120
I16
aI12
aaI12
aa(lp1121
I1
a(lp1122
I4
aI1
aa(lp1123
I4
aI7
aa(lp1124
I4
aI13
aa(lp1125
I10
aI1
aa(lp1126
I10
aI7
aa(lp1127
I10
aI13
aa(lp1128
I16
aI1
aa(lp1129
I16
aI7
aa(lp1130
I16
aI13
aaI12
aa(lp1131
I1
a(lp1132
I4
aI2
aa(lp1133
I4
aI8
aa(lp1134
I4
aI14
aa(lp1135
I10
aI2
aa(lp1136
I10
aI8
aa(lp1137
I10
aI14
aa(lp1138
I16
aI2
aa(lp1139
I16
aI8
aa(lp1140
I16
aI14
aaI12
aa(lp1141
I1
a(lp1142
I6
aI5
aa(lp1143
I6
aI11
aa(lp1144
I6
aI17
aa(lp1145
I12
aI5
aa(lp1146
I12
aI11
aa(lp1147
I12
aI17
aa(lp1148
I18
aI5
aa(lp1149
I18
aI11
aa(lp1150
I18
aI17
aaI12
aa(lp1151
I1
a(lp1152
I6
aI6
aa(lp1153
I6
aI12
aa(lp1154
I6
aI18
aa(lp1155
I12
aI6
aa(lp1156
I12
aI12
aa(lp1157
I12
aI18
aa(lp1158
I18
aI6
aa(lp1159
I18
aI12
aa(lp1160
I18
aI18
aaI12
aa(lp1161
I1
a(lp1162
I-1
aI-1
aa(lp1163
I-1
aI6
aa(lp1164
I-1
aI13
aa(lp1165
I6
aI-1
aa(lp1166
I6
aI6
aa(lp1167
I6
aI13
aa(lp1168
I13
aI-1
aa(lp1169
I13
aI6
aa(lp1170
I13
aI13
aaI14
aa(lp1171
I1
a(lp1172
I-1
aI0
aa(lp1173
I-1
aI7
aa(lp1174
I-1
aI14
aa(lp1175
I6
aI0
aa(lp1176
I6
aI7
aa(lp1177
I6
aI14
aa(lp1178
I13
aI0
aa(lp1179
I13
aI7
aa(lp1180
I13
aI14
aaI14
aa(lp1181
I1
a(lp1182
I-1
aI1
aa(lp1183
I-1
aI8
aa(lp1184
I-1
aI15
aa(lp1185
I6
aI1
aa(lp1186
I6
aI8
aa(lp1187
I6
aI15
aa(lp1188
I13
aI1
aa(lp1189
I13
aI8
aa(lp1190
I13
aI15
aaI14
aa(lp1191
I1
a(lp1192
I0
aI-1
aa(lp1193
I0
aI6
aa(lp1194
I0
aI13
aa(lp1195
I7
aI-1
aa(lp1196
I7
aI6
aa(lp1197
I7
aI13
aa(lp1198
I14
aI-1
aa(lp1199
I14
aI6
aa(lp1200
I14
aI13
aaI14
aa(lp1201
I1
a(lp1202
I0
aI0
aa(lp1203
I0
aI7
aa(lp1204
I0
aI14
aa(lp1205
I7
aI0
aa(lp1206
I7
aI7
aa(lp1207
I7
aI14
aa(lp1208
I14
aI0
aa(lp1209
I14
aI7
aa(lp1210
I14
aI14
aaI14
aa(lp1211
I1
a(lp1212
I0
aI1
aa(lp1213
I0
aI8
aa(lp1214
I0
aI15
aa(lp1215
I7
aI1
aa(lp1216
I7
aI8
aa(lp1217
I7
aI15
aa(lp1218
I14
aI1
aa(lp1219
I14
aI8
aa(lp1220
I14
aI15
aaI14
aa(lp1221
I1
a(lp1222
I1
aI-1
aa(lp1223
I1
aI6
aa(lp1224
I1
aI13
aa(lp1225
I8
aI-1
aa(lp1226
I8
aI6
aa(lp1227
I8
aI13
aa(lp1228
I15
aI-1
aa(lp1229
I15
aI6
aa(lp1230
I15
aI13
aaI14
aa(lp1231
I1
a(lp1232
I1
aI0
aa(lp1233
I1
aI7
aa(lp1234
I1
aI14
aa(lp1235
I8
aI0
aa(lp1236
I8
aI7
aa(lp1237
I8
aI14
aa(lp1238
I15
aI0
aa(lp1239
I15
aI7
aa(lp1240
I15
aI14
aaI14
aa(lp1241
I1
a(lp1242
I1
aI1
aa(lp1243
I1
aI8
aa(lp1244
I1
aI15
aa(lp1245
I8
aI1
aa(lp1246
I8
aI8
aa(lp1247
I8
aI15
aa(lp1248
I15
aI1
aa(lp1249
I15
aI8
aa(lp1250
I15
aI15
aaI14
aa(lp1251
I1
a(lp1252
I2
aI-1
aa(lp1253
I2
aI6
aa(lp1254
I2
aI13
aa(lp1255
I9
aI-1
aa(lp1256
I9
aI6
aa(lp1257
I9
aI13
aa(lp1258
I16
aI-1
aa(lp1259
I16
aI6
aa(lp1260
I16
aI13
aaI14
aa(lp1261
I1
a(lp1262
I2
aI0
aa(lp1263
I2
aI7
aa(lp1264
I2
aI14
aa(lp1265
I9
aI0
aa(lp1266
I9
aI7
aa(lp1267
I9
aI14
aa(lp1268
I16
aI0
aa(lp1269
I16
aI7
aa(lp1270
I16
aI14
aaI14
aa(lp1271
I1
a(lp1272
I2
aI1
aa(lp1273
I2
aI8
aa(lp1274
I2
aI15
aa(lp1275
I9
aI1
aa(lp1276
I9
aI8
aa(lp1277
I9
aI15
aa(lp1278
I16
aI1
aa(lp1279
I16
aI8
aa(lp1280
I16
aI15
aaI14
aa(lp1281
I1
a(lp1282
I3
aI-1
aa(lp1283
I3
aI6
aa(lp1284
I3
aI13
aa(lp1285
I10
aI-1
aa(lp1286
I10
aI6
aa(lp1287
I10
aI13
aa(lp1288
I17
aI-1
aa(lp1289
I17
aI6
aa(lp1290
I17
aI13
aaI14
aa(lp1291
I1
a(lp1292
I3
aI0
aa(lp1293
I3
aI7
aa(lp1294
I3
aI14
aa(lp1295
I10
aI0
aa(lp1296
I10
aI7
aa(lp1297
I10
aI14
aa(lp1298
I17
aI0
aa(lp1299
I17
aI7
aa(lp1300
I17
aI14
aaI14
aa(lp1301
I1
a(lp1302
I3
aI1
aa(lp1303
I3
aI8
aa(lp1304
I3
aI15
aa(lp1305
I10
aI1
aa(lp1306
I10
aI8
aa(lp1307
I10
aI15
aa(lp1308
I17
aI1
aa(lp1309
I17
aI8
aa(lp1310
I17
aI15
aaI14
aa(lp1311
I1
a(lp1312
I-1
aI-1
aa(lp1313
I-1
aI7
aa(lp1314
I-1
aI15
aa(lp1315
I7
aI-1
aa(lp1316
I7
aI7
aa(lp1317
I7
aI15
aa(lp1318
I15
aI-1
aa(lp1319
I15
aI7
aa(lp1320
I15
aI15
aaI16
aa(lp1321
I1
a(lp1322
I-1
aI0
aa(lp1323
I-1
aI8
aa(lp1324
I-1
aI16
aa(lp1325
I7
aI0
aa(lp1326
I7
aI8
aa(lp1327
I7
aI16
aa(lp1328
I15
aI0
aa(lp1329
I15
aI8
aa(lp1330
I15
aI16
aaI16
aa(lp1331
I1
a(lp1332
I0
aI-1
aa(lp1333
I0
aI7
aa(lp1334
I0
aI15
aa(lp1335
I8
aI-1
aa(lp1336
I8
aI7
aa(lp1337
I8
aI15
aa(lp1338
I16
aI-1
aa(lp1339
I16
aI7
aa(lp1340
I16
aI15
aaI16
aa(lp1341
I1
a(lp1342
I0
aI0
aa(lp1343
I0
aI8
aa(lp1344
I0
aI16
aa(lp1345
I8
aI0
aa(lp1346
I8
aI8
aa(lp1347
I8
aI16
aa(lp1348
I16
aI0
aa(lp1349
I16
aI8
aa(lp1350
I16
aI16
aaI16
aa(lp1351
I1
a(lp1352
I1
aI-1
aa(lp1353
I1
aI7
aa(lp1354
I1
aI15
aa(lp1355
I9
aI-1
aa(lp1356
I9
aI7
aa(lp1357
I9
aI15
aa(lp1358
I17
aI-1
aa(lp1359
I17
aI7
aa(lp1360
I17
aI15
aaI16
aa(lp1361
I1
a(lp1362
I1
aI0
aa(lp1363
I1
aI8
aa(lp1364
I1
aI16
aa(lp1365
I9
aI0
aa(lp1366
I9
aI8
aa(lp1367
I9
aI16
aa(lp1368
I17
aI0
aa(lp1369
I17
aI8
aa(lp1370
I17
aI16
aaI16
aa(lp1371
I1
a(lp1372
I2
aI-1
aa(lp1373
I2
aI7
aa(lp1374
I2
aI15
aa(lp1375
I10
aI-1
aa(lp1376
I10
aI7
aa(lp1377
I10
aI15
aa(lp1378
I18
aI-1
aa(lp1379
I18
aI7
aa(lp1380
I18
aI15
aaI16
aa(lp1381
I1
a(lp1382
I2
aI0
aa(lp1383
I2
aI8
aa(lp1384
I2
aI16
aa(lp1385
I10
aI0
aa(lp1386
I10
aI8
aa(lp1387
I10
aI16
aa(lp1388
I18
aI0
aa(lp1389
I18
aI8
aa(lp1390
I18
aI16
aaI16
aa(lp1391
I1
a(lp1392
I-1
aI-1
aa(lp1393
I-1
aI8
aa(lp1394
I-1
aI17
aa(lp1395
I8
aI-1
aa(lp1396
I8
aI8
aa(lp1397
I8
aI17
aa(lp1398
I17
aI-1
aa(lp1399
I17
aI8
aa(lp1400
I17
aI17
aaI18
aa(lp1401
I1
a(lp1402
I0
aI-1
aa(lp1403
I0
aI8
aa(lp1404
I0
aI17
aa(lp1405
I9
aI-1
aa(lp1406
I9
aI8
aa(lp1407
I9
aI17
aa(lp1408
I18
aI-1
aa(lp1409
I18
aI8
aa(lp1410
I18
aI17
aaI18
aa(lp1411
I-1
a(lp1412
I-1
aI5
aa(lp1413
I-1
aI7
aa(lp1414
I-1
aI9
aa(lp1415
I1
aI5
aa(lp1416
I1
aI7
aa(lp1417
I1
aI9
aa(lp1418
I3
aI5
aa(lp1419
I3
aI7
aa(lp1420
I3
aI9
aaI4
aa(lp1421
I-1
a(lp1422
I0
aI6
aa(lp1423
I0
aI8
aa(lp1424
I0
aI10
aa(lp1425
I2
aI6
aa(lp1426
I2
aI8
aa(lp1427
I2
aI10
aa(lp1428
I4
aI6
aa(lp1429
I4
aI8
aa(lp1430
I4
aI10
aaI4
aa(lp1431
I-1
a(lp1432
I1
aI6
aa(lp1433
I1
aI8
aa(lp1434
I1
aI10
aa(lp1435
I3
aI6
aa(lp1436
I3
aI8
aa(lp1437
I3
aI10
aa(lp1438
I5
aI6
aa(lp1439
I5
aI8
aa(lp1440
I5
aI10
aaI4
aa(lp1441
I-1
a(lp1442
I13
aI1
aa(lp1443
I13
aI3
aa(lp1444
I13
aI5
aa(lp1445
I15
aI1
aa(lp1446
I15
aI3
aa(lp1447
I15
aI5
aa(lp1448
I17
aI1
aa(lp1449
I17
aI3
aa(lp1450
I17
aI5
aaI4
aa(lp1451
I-1
a(lp1452
I14
aI1
aa(lp1453
I14
aI3
aa(lp1454
I14
aI5
aa(lp1455
I16
aI1
aa(lp1456
I16
aI3
aa(lp1457
I16
aI5
aa(lp1458
I18
aI1
aa(lp1459
I18
aI3
aa(lp1460
I18
aI5
aaI4
aa(lp1461
I-1
a(lp1462
I14
aI2
aa(lp1463
I14
aI4
aa(lp1464
I14
aI6
aa(lp1465
I16
aI2
aa(lp1466
I16
aI4
aa(lp1467
I16
aI6
aa(lp1468
I18
aI2
aa(lp1469
I18
aI4
aa(lp1470
I18
aI6
aaI4
aa(lp1471
I-1
a(lp1472
I-1
aI3
aa(lp1473
I-1
aI6
aa(lp1474
I-1
aI9
aa(lp1475
I2
aI3
aa(lp1476
I2
aI6
aa(lp1477
I2
aI9
aa(lp1478
I5
aI3
aa(lp1479
I5
aI6
aa(lp1480
I5
aI9
aaI6
aa(lp1481
I-1
a(lp1482
I-1
aI4
aa(lp1483
I-1
aI7
aa(lp1484
I-1
aI10
aa(lp1485
I2
aI4
aa(lp1486
I2
aI7
aa(lp1487
I2
aI10
aa(lp1488
I5
aI4
aa(lp1489
I5
aI7
aa(lp1490
I5
aI10
aaI6
aa(lp1491
I-1
a(lp1492
I-1
aI5
aa(lp1493
I-1
aI8
aa(lp1494
I-1
aI11
aa(lp1495
I2
aI5
aa(lp1496
I2
aI8
aa(lp1497
I2
aI11
aa(lp1498
I5
aI5
aa(lp1499
I5
aI8
aa(lp1500
I5
aI11
aaI6
aa(lp1501
I-1
a(lp1502
I-1
aI11
aa(lp1503
I-1
aI14
aa(lp1504
I-1
aI17
aa(lp1505
I2
aI11
aa(lp1506
I2
aI14
aa(lp1507
I2
aI17
aa(lp1508
I5
aI11
aa(lp1509
I5
aI14
aa(lp1510
I5
aI17
aaI6
aa(lp1511
I-1
a(lp1512
I-1
aI12
aa(lp1513
I-1
aI15
aa(lp1514
I-1
aI18
aa(lp1515
I2
aI12
aa(lp1516
I2
aI15
aa(lp1517
I2
aI18
aa(lp1518
I5
aI12
aa(lp1519
I5
aI15
aa(lp1520
I5
aI18
aaI6
aa(lp1521
I-1
a(lp1522
I0
aI4
aa(lp1523
I0
aI7
aa(lp1524
I0
aI10
aa(lp1525
I3
aI4
aa(lp1526
I3
aI7
aa(lp1527
I3
aI10
aa(lp1528
I6
aI4
aa(lp1529
I6
aI7
aa(lp1530
I6
aI10
aaI6
aa(lp1531
I-1
a(lp1532
I0
aI5
aa(lp1533
I0
aI8
aa(lp1534
I0
aI11
aa(lp1535
I3
aI5
aa(lp1536
I3
aI8
aa(lp1537
I3
aI11
aa(lp1538
I6
aI5
aa(lp1539
I6
aI8
aa(lp1540
I6
aI11
aaI6
aa(lp1541
I-1
a(lp1542
I2
aI-1
aa(lp1543
I2
aI2
aa(lp1544
I2
aI5
aa(lp1545
I5
aI-1
aa(lp1546
I5
aI2
aa(lp1547
I5
aI5
aa(lp1548
I8
aI-1
aa(lp1549
I8
aI2
aa(lp1550
I8
aI5
aaI6
aa(lp1551
I-1
a(lp1552
I3
aI-1
aa(lp1553
I3
aI2
aa(lp1554
I3
aI5
aa(lp1555
I6
aI-1
aa(lp1556
I6
aI2
aa(lp1557
I6
aI5
aa(lp1558
I9
aI-1
aa(lp1559
I9
aI2
aa(lp1560
I9
aI5
aaI6
aa(lp1561
I-1
a(lp1562
I4
aI-1
aa(lp1563
I4
aI2
aa(lp1564
I4
aI5
aa(lp1565
I7
aI-1
aa(lp1566
I7
aI2
aa(lp1567
I7
aI5
aa(lp1568
I10
aI-1
aa(lp1569
I10
aI2
aa(lp1570
I10
aI5
aaI6
aa(lp1571
I-1
a(lp1572
I4
aI10
aa(lp1573
I4
aI13
aa(lp1574
I4
aI16
aa(lp1575
I7
aI10
aa(lp1576
I7
aI13
aa(lp1577
I7
aI16
aa(lp1578
I10
aI10
aa(lp1579
I10
aI13
aa(lp1580
I10
aI16
aaI6
aa(lp1581
I-1
a(lp1582
I5
aI10
aa(lp1583
I5
aI13
aa(lp1584
I5
aI16
aa(lp1585
I8
aI10
aa(lp1586
I8
aI13
aa(lp1587
I8
aI16
aa(lp1588
I11
aI10
aa(lp1589
I11
aI13
aa(lp1590
I11
aI16
aaI6
aa(lp1591
I-1
a(lp1592
I7
aI7
aa(lp1593
I7
aI10
aa(lp1594
I7
aI13
aa(lp1595
I10
aI7
aa(lp1596
I10
aI10
aa(lp1597
I10
aI13
aa(lp1598
I13
aI7
aa(lp1599
I13
aI10
aa(lp1600
I13
aI13
aaI6
aa(lp1601
I-1
a(lp1602
I7
aI8
aa(lp1603
I7
aI11
aa(lp1604
I7
aI14
aa(lp1605
I10
aI8
aa(lp1606
I10
aI11
aa(lp1607
I10
aI14
aa(lp1608
I13
aI8
aa(lp1609
I13
aI11
aa(lp1610
I13
aI14
aaI6
aa(lp1611
I-1
a(lp1612
I10
aI4
aa(lp1613
I10
aI7
aa(lp1614
I10
aI10
aa(lp1615
I13
aI4
aa(lp1616
I13
aI7
aa(lp1617
I13
aI10
aa(lp1618
I16
aI4
aa(lp1619
I16
aI7
aa(lp1620
I16
aI10
aaI6
aa(lp1621
I-1
a(lp1622
I12
aI-1
aa(lp1623
I12
aI2
aa(lp1624
I12
aI5
aa(lp1625
I15
aI-1
aa(lp1626
I15
aI2
aa(lp1627
I15
aI5
aa(lp1628
I18
aI-1
aa(lp1629
I18
aI2
aa(lp1630
I18
aI5
aaI6
aa(lp1631
I-1
a(lp1632
I12
aI0
aa(lp1633
I12
aI3
aa(lp1634
I12
aI6
aa(lp1635
I15
aI0
aa(lp1636
I15
aI3
aa(lp1637
I15
aI6
aa(lp1638
I18
aI0
aa(lp1639
I18
aI3
aa(lp1640
I18
aI6
aaI6
aa(lp1641
I-1
a(lp1642
I12
aI1
aa(lp1643
I12
aI4
aa(lp1644
I12
aI7
aa(lp1645
I15
aI1
aa(lp1646
I15
aI4
aa(lp1647
I15
aI7
aa(lp1648
I18
aI1
aa(lp1649
I18
aI4
aa(lp1650
I18
aI7
aaI6
aa(lp1651
I-1
a(lp1652
I-1
aI3
aa(lp1653
I-1
aI7
aa(lp1654
I-1
aI11
aa(lp1655
I3
aI3
aa(lp1656
I3
aI7
aa(lp1657
I3
aI11
aa(lp1658
I7
aI3
aa(lp1659
I7
aI7
aa(lp1660
I7
aI11
aaI8
aa(lp1661
I-1
a(lp1662
I-1
aI4
aa(lp1663
I-1
aI8
aa(lp1664
I-1
aI12
aa(lp1665
I3
aI4
aa(lp1666
I3
aI8
aa(lp1667
I3
aI12
aa(lp1668
I7
aI4
aa(lp1669
I7
aI8
aa(lp1670
I7
aI12
aaI8
aa(lp1671
I-1
a(lp1672
I-1
aI10
aa(lp1673
I-1
aI14
aa(lp1674
I-1
aI18
aa(lp1675
I3
aI10
aa(lp1676
I3
aI14
aa(lp1677
I3
aI18
aa(lp1678
I7
aI10
aa(lp1679
I7
aI14
aa(lp1680
I7
aI18
aaI8
aa(lp1681
I-1
a(lp1682
I0
aI5
aa(lp1683
I0
aI9
aa(lp1684
I0
aI13
aa(lp1685
I4
aI5
aa(lp1686
I4
aI9
aa(lp1687
I4
aI13
aa(lp1688
I8
aI5
aa(lp1689
I8
aI9
aa(lp1690
I8
aI13
aaI8
aa(lp1691
I-1
a(lp1692
I1
aI5
aa(lp1693
I1
aI9
aa(lp1694
I1
aI13
aa(lp1695
I5
aI5
aa(lp1696
I5
aI9
aa(lp1697
I5
aI13
aa(lp1698
I9
aI5
aa(lp1699
I9
aI9
aa(lp1700
I9
aI13
aaI8
aa(lp1701
I-1
a(lp1702
I1
aI6
aa(lp1703
I1
aI10
aa(lp1704
I1
aI14
aa(lp1705
I5
aI6
aa(lp1706
I5
aI10
aa(lp1707
I5
aI14
aa(lp1708
I9
aI6
aa(lp1709
I9
aI10
aa(lp1710
I9
aI14
aaI8
aa(lp1711
I-1
a(lp1712
I2
aI5
aa(lp1713
I2
aI9
aa(lp1714
I2
aI13
aa(lp1715
I6
aI5
aa(lp1716
I6
aI9
aa(lp1717
I6
aI13
aa(lp1718
I10
aI5
aa(lp1719
I10
aI9
aa(lp1720
I10
aI13
aaI8
aa(lp1721
I-1
a(lp1722
I2
aI6
aa(lp1723
I2
aI10
aa(lp1724
I2
aI14
aa(lp1725
I6
aI6
aa(lp1726
I6
aI10
aa(lp1727
I6
aI14
aa(lp1728
I10
aI6
aa(lp1729
I10
aI10
aa(lp1730
I10
aI14
aaI8
aa(lp1731
I-1
a(lp1732
I2
aI7
aa(lp1733
I2
aI11
aa(lp1734
I2
aI15
aa(lp1735
I6
aI7
aa(lp1736
I6
aI11
aa(lp1737
I6
aI15
aa(lp1738
I10
aI7
aa(lp1739
I10
aI11
aa(lp1740
I10
aI15
aaI8
aa(lp1741
I-1
a(lp1742
I2
aI8
aa(lp1743
I2
aI12
aa(lp1744
I2
aI16
aa(lp1745
I6
aI8
aa(lp1746
I6
aI12
aa(lp1747
I6
aI16
aa(lp1748
I10
aI8
aa(lp1749
I10
aI12
aa(lp1750
I10
aI16
aaI8
aa(lp1751
I-1
a(lp1752
I3
aI6
aa(lp1753
I3
aI10
aa(lp1754
I3
aI14
aa(lp1755
I7
aI6
aa(lp1756
I7
aI10
aa(lp1757
I7
aI14
aa(lp1758
I11
aI6
aa(lp1759
I11
aI10
aa(lp1760
I11
aI14
aaI8
aa(lp1761
I-1
a(lp1762
I3
aI7
aa(lp1763
I3
aI11
aa(lp1764
I3
aI15
aa(lp1765
I7
aI7
aa(lp1766
I7
aI11
aa(lp1767
I7
aI15
aa(lp1768
I11
aI7
aa(lp1769
I11
aI11
aa(lp1770
I11
aI15
aaI8
aa(lp1771
I-1
a(lp1772
I3
aI8
aa(lp1773
I3
aI12
aa(lp1774
I3
aI16
aa(lp1775
I7
aI8
aa(lp1776
I7
aI12
aa(lp1777
I7
aI16
aa(lp1778
I11
aI8
aa(lp1779
I11
aI12
aa(lp1780
I11
aI16
aaI8
aa(lp1781
I-1
a(lp1782
I3
aI9
aa(lp1783
I3
aI13
aa(lp1784
I3
aI17
aa(lp1785
I7
aI9
aa(lp1786
I7
aI13
aa(lp1787
I7
aI17
aa(lp1788
I11
aI9
aa(lp1789
I11
aI13
aa(lp1790
I11
aI17
aaI8
aa(lp1791
I-1
a(lp1792
I4
aI6
aa(lp1793
I4
aI10
aa(lp1794
I4
aI14
aa(lp1795
I8
aI6
aa(lp1796
I8
aI10
aa(lp1797
I8
aI14
aa(lp1798
I12
aI6
aa(lp1799
I12
aI10
aa(lp1800
I12
aI14
aaI8
aa(lp1801
I-1
a(lp1802
I4
aI7
aa(lp1803
I4
aI11
aa(lp1804
I4
aI15
aa(lp1805
I8
aI7
aa(lp1806
I8
aI11
aa(lp1807
I8
aI15
aa(lp1808
I12
aI7
aa(lp1809
I12
aI11
aa(lp1810
I12
aI15
aaI8
aa(lp1811
I-1
a(lp1812
I4
aI8
aa(lp1813
I4
aI12
aa(lp1814
I4
aI16
aa(lp1815
I8
aI8
aa(lp1816
I8
aI12
aa(lp1817
I8
aI16
aa(lp1818
I12
aI8
aa(lp1819
I12
aI12
aa(lp1820
I12
aI16
aaI8
aa(lp1821
I-1
a(lp1822
I4
aI9
aa(lp1823
I4
aI13
aa(lp1824
I4
aI17
aa(lp1825
I8
aI9
aa(lp1826
I8
aI13
aa(lp1827
I8
aI17
aa(lp1828
I12
aI9
aa(lp1829
I12
aI13
aa(lp1830
I12
aI17
aaI8
aa(lp1831
I-1
a(lp1832
I5
aI6
aa(lp1833
I5
aI10
aa(lp1834
I5
aI14
aa(lp1835
I9
aI6
aa(lp1836
I9
aI10
aa(lp1837
I9
aI14
aa(lp1838
I13
aI6
aa(lp1839
I13
aI10
aa(lp1840
I13
aI14
aaI8
aa(lp1841
I-1
a(lp1842
I5
aI7
aa(lp1843
I5
aI11
aa(lp1844
I5
aI15
aa(lp1845
I9
aI7
aa(lp1846
I9
aI11
aa(lp1847
I9
aI15
aa(lp1848
I13
aI7
aa(lp1849
I13
aI11
aa(lp1850
I13
aI15
aaI8
aa(lp1851
I-1
a(lp1852
I5
aI8
aa(lp1853
I5
aI12
aa(lp1854
I5
aI16
aa(lp1855
I9
aI8
aa(lp1856
I9
aI12
aa(lp1857
I9
aI16
aa(lp1858
I13
aI8
aa(lp1859
I13
aI12
aa(lp1860
I13
aI16
aaI8
aa(lp1861
I-1
a(lp1862
I6
aI6
aa(lp1863
I6
aI10
aa(lp1864
I6
aI14
aa(lp1865
I10
aI6
aa(lp1866
I10
aI10
aa(lp1867
I10
aI14
aa(lp1868
I14
aI6
aa(lp1869
I14
aI10
aa(lp1870
I14
aI14
aaI8
aa(lp1871
I-1
a(lp1872
I6
aI7
aa(lp1873
I6
aI11
aa(lp1874
I6
aI15
aa(lp1875
I10
aI7
aa(lp1876
I10
aI11
aa(lp1877
I10
aI15
aa(lp1878
I14
aI7
aa(lp1879
I14
aI11
aa(lp1880
I14
aI15
aaI8
aa(lp1881
I-1
a(lp1882
I9
aI0
aa(lp1883
I9
aI4
aa(lp1884
I9
aI8
aa(lp1885
I13
aI0
aa(lp1886
I13
aI4
aa(lp1887
I13
aI8
aa(lp1888
I17
aI0
aa(lp1889
I17
aI4
aa(lp1890
I17
aI8
aaI8
aa(lp1891
I-1
a(lp1892
I9
aI1
aa(lp1893
I9
aI5
aa(lp1894
I9
aI9
aa(lp1895
I13
aI1
aa(lp1896
I13
aI5
aa(lp1897
I13
aI9
aa(lp1898
I17
aI1
aa(lp1899
I17
aI5
aa(lp1900
I17
aI9
aaI8
aa(lp1901
I-1
a(lp1902
I9
aI2
aa(lp1903
I9
aI6
aa(lp1904
I9
aI10
aa(lp1905
I13
aI2
aa(lp1906
I13
aI6
aa(lp1907
I13
aI10
aa(lp1908
I17
aI2
aa(lp1909
I17
aI6
aa(lp1910
I17
aI10
aaI8
aa(lp1911
I-1
a(lp1912
I9
aI3
aa(lp1913
I9
aI7
aa(lp1914
I9
aI11
aa(lp1915
I13
aI3
aa(lp1916
I13
aI7
aa(lp1917
I13
aI11
aa(lp1918
I17
aI3
aa(lp1919
I17
aI7
aa(lp1920
I17
aI11
aaI8
aa(lp1921
I-1
a(lp1922
I10
aI-1
aa(lp1923
I10
aI3
aa(lp1924
I10
aI7
aa(lp1925
I14
aI-1
aa(lp1926
I14
aI3
aa(lp1927
I14
aI7
aa(lp1928
I18
aI-1
aa(lp1929
I18
aI3
aa(lp1930
I18
aI7
aaI8
aa(lp1931
I-1
a(lp1932
I10
aI0
aa(lp1933
I10
aI4
aa(lp1934
I10
aI8
aa(lp1935
I14
aI0
aa(lp1936
I14
aI4
aa(lp1937
I14
aI8
aa(lp1938
I18
aI0
aa(lp1939
I18
aI4
aa(lp1940
I18
aI8
aaI8
aa(lp1941
I-1
a(lp1942
I10
aI1
aa(lp1943
I10
aI5
aa(lp1944
I10
aI9
aa(lp1945
I14
aI1
aa(lp1946
I14
aI5
aa(lp1947
I14
aI9
aa(lp1948
I18
aI1
aa(lp1949
I18
aI5
aa(lp1950
I18
aI9
aaI8
aa(lp1951
I-1
a(lp1952
I10
aI2
aa(lp1953
I10
aI6
aa(lp1954
I10
aI10
aa(lp1955
I14
aI2
aa(lp1956
I14
aI6
aa(lp1957
I14
aI10
aa(lp1958
I18
aI2
aa(lp1959
I18
aI6
aa(lp1960
I18
aI10
aaI8
aa(lp1961
I-1
a(lp1962
I10
aI3
aa(lp1963
I10
aI7
aa(lp1964
I10
aI11
aa(lp1965
I14
aI3
aa(lp1966
I14
aI7
aa(lp1967
I14
aI11
aa(lp1968
I18
aI3
aa(lp1969
I18
aI7
aa(lp1970
I18
aI11
aaI8
aa(lp1971
I-1
a(lp1972
I-1
aI3
aa(lp1973
I-1
aI8
aa(lp1974
I-1
aI13
aa(lp1975
I4
aI3
aa(lp1976
I4
aI8
aa(lp1977
I4
aI13
aa(lp1978
I9
aI3
aa(lp1979
I9
aI8
aa(lp1980
I9
aI13
aaI10
aa(lp1981
I-1
a(lp1982
I-1
aI4
aa(lp1983
I-1
aI9
aa(lp1984
I-1
aI14
aa(lp1985
I4
aI4
aa(lp1986
I4
aI9
aa(lp1987
I4
aI14
aa(lp1988
I9
aI4
aa(lp1989
I9
aI9
aa(lp1990
I9
aI14
aaI10
aa(lp1991
I-1
a(lp1992
I0
aI4
aa(lp1993
I0
aI9
aa(lp1994
I0
aI14
aa(lp1995
I5
aI4
aa(lp1996
I5
aI9
aa(lp1997
I5
aI14
aa(lp1998
I10
aI4
aa(lp1999
I10
aI9
aa(lp2000
I10
aI14
aaI10
aa(lp2001
I-1
a(lp2002
I0
aI5
aa(lp2003
I0
aI10
aa(lp2004
I0
aI15
aa(lp2005
I5
aI5
aa(lp2006
I5
aI10
aa(lp2007
I5
aI15
aa(lp2008
I10
aI5
aa(lp2009
I10
aI10
aa(lp2010
I10
aI15
aaI10
aa(lp2011
I-1
a(lp2012
I0
aI6
aa(lp2013
I0
aI11
aa(lp2014
I0
aI16
aa(lp2015
I5
aI6
aa(lp2016
I5
aI11
aa(lp2017
I5
aI16
aa(lp2018
I10
aI6
aa(lp2019
I10
aI11
aa(lp2020
I10
aI16
aaI10
aa(lp2021
I-1
a(lp2022
I1
aI4
aa(lp2023
I1
aI9
aa(lp2024
I1
aI14
aa(lp2025
I6
aI4
aa(lp2026
I6
aI9
aa(lp2027
I6
aI14
aa(lp2028
I11
aI4
aa(lp2029
I11
aI9
aa(lp2030
I11
aI14
aaI10
aa(lp2031
I-1
a(lp2032
I1
aI5
aa(lp2033
I1
aI10
aa(lp2034
I1
aI15
aa(lp2035
I6
aI5
aa(lp2036
I6
aI10
aa(lp2037
I6
aI15
aa(lp2038
I11
aI5
aa(lp2039
I11
aI10
aa(lp2040
I11
aI15
aaI10
aa(lp2041
I-1
a(lp2042
I1
aI6
aa(lp2043
I1
aI11
aa(lp2044
I1
aI16
aa(lp2045
I6
aI6
aa(lp2046
I6
aI11
aa(lp2047
I6
aI16
aa(lp2048
I11
aI6
aa(lp2049
I11
aI11
aa(lp2050
I11
aI16
aaI10
aa(lp2051
I-1
a(lp2052
I1
aI7
aa(lp2053
I1
aI12
aa(lp2054
I1
aI17
aa(lp2055
I6
aI7
aa(lp2056
I6
aI12
aa(lp2057
I6
aI17
aa(lp2058
I11
aI7
aa(lp2059
I11
aI12
aa(lp2060
I11
aI17
aaI10
aa(lp2061
I-1
a(lp2062
I1
aI8
aa(lp2063
I1
aI13
aa(lp2064
I1
aI18
aa(lp2065
I6
aI8
aa(lp2066
I6
aI13
aa(lp2067
I6
aI18
aa(lp2068
I11
aI8
aa(lp2069
I11
aI13
aa(lp2070
I11
aI18
aaI10
aa(lp2071
I-1
a(lp2072
I2
aI4
aa(lp2073
I2
aI9
aa(lp2074
I2
aI14
aa(lp2075
I7
aI4
aa(lp2076
I7
aI9
aa(lp2077
I7
aI14
aa(lp2078
I12
aI4
aa(lp2079
I12
aI9
aa(lp2080
I12
aI14
aaI10
aa(lp2081
I-1
a(lp2082
I2
aI5
aa(lp2083
I2
aI10
aa(lp2084
I2
aI15
aa(lp2085
I7
aI5
aa(lp2086
I7
aI10
aa(lp2087
I7
aI15
aa(lp2088
I12
aI5
aa(lp2089
I12
aI10
aa(lp2090
I12
aI15
aaI10
aa(lp2091
I-1
a(lp2092
I2
aI6
aa(lp2093
I2
aI11
aa(lp2094
I2
aI16
aa(lp2095
I7
aI6
aa(lp2096
I7
aI11
aa(lp2097
I7
aI16
aa(lp2098
I12
aI6
aa(lp2099
I12
aI11
aa(lp2100
I12
aI16
aaI10
aa(lp2101
I-1
a(lp2102
I2
aI7
aa(lp2103
I2
aI12
aa(lp2104
I2
aI17
aa(lp2105
I7
aI7
aa(lp2106
I7
aI12
aa(lp2107
I7
aI17
aa(lp2108
I12
aI7
aa(lp2109
I12
aI12
aa(lp2110
I12
aI17
aaI10
aa(lp2111
I-1
a(lp2112
I2
aI8
aa(lp2113
I2
aI13
aa(lp2114
I2
aI18
aa(lp2115
I7
aI8
aa(lp2116
I7
aI13
aa(lp2117
I7
aI18
aa(lp2118
I12
aI8
aa(lp2119
I12
aI13
aa(lp2120
I12
aI18
aaI10
aa(lp2121
I-1
a(lp2122
I3
aI5
aa(lp2123
I3
aI10
aa(lp2124
I3
aI15
aa(lp2125
I8
aI5
aa(lp2126
I8
aI10
aa(lp2127
I8
aI15
aa(lp2128
I13
aI5
aa(lp2129
I13
aI10
aa(lp2130
I13
aI15
aaI10
aa(lp2131
I-1
a(lp2132
I3
aI6
aa(lp2133
I3
aI11
aa(lp2134
I3
aI16
aa(lp2135
I8
aI6
aa(lp2136
I8
aI11
aa(lp2137
I8
aI16
aa(lp2138
I13
aI6
aa(lp2139
I13
aI11
aa(lp2140
I13
aI16
aaI10
aa(lp2141
I-1
a(lp2142
I3
aI7
aa(lp2143
I3
aI12
aa(lp2144
I3
aI17
aa(lp2145
I8
aI7
aa(lp2146
I8
aI12
aa(lp2147
I8
aI17
aa(lp2148
I13
aI7
aa(lp2149
I13
aI12
aa(lp2150
I13
aI17
aaI10
aa(lp2151
I-1
a(lp2152
I3
aI8
aa(lp2153
I3
aI13
aa(lp2154
I3
aI18
aa(lp2155
I8
aI8
aa(lp2156
I8
aI13
aa(lp2157
I8
aI18
aa(lp2158
I13
aI8
aa(lp2159
I13
aI13
aa(lp2160
I13
aI18
aaI10
aa(lp2161
I-1
a(lp2162
I4
aI5
aa(lp2163
I4
aI10
aa(lp2164
I4
aI15
aa(lp2165
I9
aI5
aa(lp2166
I9
aI10
aa(lp2167
I9
aI15
aa(lp2168
I14
aI5
aa(lp2169
I14
aI10
aa(lp2170
I14
aI15
aaI10
aa(lp2171
I-1
a(lp2172
I4
aI6
aa(lp2173
I4
aI11
aa(lp2174
I4
aI16
aa(lp2175
I9
aI6
aa(lp2176
I9
aI11
aa(lp2177
I9
aI16
aa(lp2178
I14
aI6
aa(lp2179
I14
aI11
aa(lp2180
I14
aI16
aaI10
aa(lp2181
I-1
a(lp2182
I4
aI7
aa(lp2183
I4
aI12
aa(lp2184
I4
aI17
aa(lp2185
I9
aI7
aa(lp2186
I9
aI12
aa(lp2187
I9
aI17
aa(lp2188
I14
aI7
aa(lp2189
I14
aI12
aa(lp2190
I14
aI17
aaI10
aa(lp2191
I-1
a(lp2192
I4
aI8
aa(lp2193
I4
aI13
aa(lp2194
I4
aI18
aa(lp2195
I9
aI8
aa(lp2196
I9
aI13
aa(lp2197
I9
aI18
aa(lp2198
I14
aI8
aa(lp2199
I14
aI13
aa(lp2200
I14
aI18
aaI10
aa(lp2201
I-1
a(lp2202
I5
aI5
aa(lp2203
I5
aI10
aa(lp2204
I5
aI15
aa(lp2205
I10
aI5
aa(lp2206
I10
aI10
aa(lp2207
I10
aI15
aa(lp2208
I15
aI5
aa(lp2209
I15
aI10
aa(lp2210
I15
aI15
aaI10
aa(lp2211
I-1
a(lp2212
I5
aI6
aa(lp2213
I5
aI11
aa(lp2214
I5
aI16
aa(lp2215
I10
aI6
aa(lp2216
I10
aI11
aa(lp2217
I10
aI16
aa(lp2218
I15
aI6
aa(lp2219
I15
aI11
aa(lp2220
I15
aI16
aaI10
aa(lp2221
I-1
a(lp2222
I5
aI7
aa(lp2223
I5
aI12
aa(lp2224
I5
aI17
aa(lp2225
I10
aI7
aa(lp2226
I10
aI12
aa(lp2227
I10
aI17
aa(lp2228
I15
aI7
aa(lp2229
I15
aI12
aa(lp2230
I15
aI17
aaI10
aa(lp2231
I-1
a(lp2232
I5
aI8
aa(lp2233
I5
aI13
aa(lp2234
I5
aI18
aa(lp2235
I10
aI8
aa(lp2236
I10
aI13
aa(lp2237
I10
aI18
aa(lp2238
I15
aI8
aa(lp2239
I15
aI13
aa(lp2240
I15
aI18
aaI10
aa(lp2241
I-1
a(lp2242
I7
aI-1
aa(lp2243
I7
aI4
aa(lp2244
I7
aI9
aa(lp2245
I12
aI-1
aa(lp2246
I12
aI4
aa(lp2247
I12
aI9
aa(lp2248
I17
aI-1
aa(lp2249
I17
aI4
aa(lp2250
I17
aI9
aaI10
aa(lp2251
I-1
a(lp2252
I7
aI0
aa(lp2253
I7
aI5
aa(lp2254
I7
aI10
aa(lp2255
I12
aI0
aa(lp2256
I12
aI5
aa(lp2257
I12
aI10
aa(lp2258
I17
aI0
aa(lp2259
I17
aI5
aa(lp2260
I17
aI10
aaI10
aa(lp2261
I-1
a(lp2262
I7
aI1
aa(lp2263
I7
aI6
aa(lp2264
I7
aI11
aa(lp2265
I12
aI1
aa(lp2266
I12
aI6
aa(lp2267
I12
aI11
aa(lp2268
I17
aI1
aa(lp2269
I17
aI6
aa(lp2270
I17
aI11
aaI10
aa(lp2271
I-1
a(lp2272
I8
aI-1
aa(lp2273
I8
aI4
aa(lp2274
I8
aI9
aa(lp2275
I13
aI-1
aa(lp2276
I13
aI4
aa(lp2277
I13
aI9
aa(lp2278
I18
aI-1
aa(lp2279
I18
aI4
aa(lp2280
I18
aI9
aaI10
aa(lp2281
I-1
a(lp2282
I8
aI0
aa(lp2283
I8
aI5
aa(lp2284
I8
aI10
aa(lp2285
I13
aI0
aa(lp2286
I13
aI5
aa(lp2287
I13
aI10
aa(lp2288
I18
aI0
aa(lp2289
I18
aI5
aa(lp2290
I18
aI10
aaI10
aa(lp2291
I-1
a(lp2292
I8
aI1
aa(lp2293
I8
aI6
aa(lp2294
I8
aI11
aa(lp2295
I13
aI1
aa(lp2296
I13
aI6
aa(lp2297
I13
aI11
aa(lp2298
I18
aI1
aa(lp2299
I18
aI6
aa(lp2300
I18
aI11
aaI10
aa(lp2301
I-1
a(lp2302
I8
aI2
aa(lp2303
I8
aI7
aa(lp2304
I8
aI12
aa(lp2305
I13
aI2
aa(lp2306
I13
aI7
aa(lp2307
I13
aI12
aa(lp2308
I18
aI2
aa(lp2309
I18
aI7
aa(lp2310
I18
aI12
aaI10
aa(lp2311
I-1
a(lp2312
I-1
aI3
aa(lp2313
I-1
aI9
aa(lp2314
I-1
aI15
aa(lp2315
I5
aI3
aa(lp2316
I5
aI9
aa(lp2317
I5
aI15
aa(lp2318
I11
aI3
aa(lp2319
I11
aI9
aa(lp2320
I11
aI15
aaI12
aa(lp2321
I-1
a(lp2322
I-1
aI4
aa(lp2323
I-1
aI10
aa(lp2324
I-1
aI16
aa(lp2325
I5
aI4
aa(lp2326
I5
aI10
aa(lp2327
I5
aI16
aa(lp2328
I11
aI4
aa(lp2329
I11
aI10
aa(lp2330
I11
aI16
aaI12
aa(lp2331
I-1
a(lp2332
I-1
aI5
aa(lp2333
I-1
aI11
aa(lp2334
I-1
aI17
aa(lp2335
I5
aI5
aa(lp2336
I5
aI11
aa(lp2337
I5
aI17
aa(lp2338
I11
aI5
aa(lp2339
I11
aI11
aa(lp2340
I11
aI17
aaI12
aa(lp2341
I-1
a(lp2342
I-1
aI6
aa(lp2343
I-1
aI12
aa(lp2344
I-1
aI18
aa(lp2345
I5
aI6
aa(lp2346
I5
aI12
aa(lp2347
I5
aI18
aa(lp2348
I11
aI6
aa(lp2349
I11
aI12
aa(lp2350
I11
aI18
aaI12
aa(lp2351
I-1
a(lp2352
I0
aI3
aa(lp2353
I0
aI9
aa(lp2354
I0
aI15
aa(lp2355
I6
aI3
aa(lp2356
I6
aI9
aa(lp2357
I6
aI15
aa(lp2358
I12
aI3
aa(lp2359
I12
aI9
aa(lp2360
I12
aI15
aaI12
aa(lp2361
I-1
a(lp2362
I0
aI4
aa(lp2363
I0
aI10
aa(lp2364
I0
aI16
aa(lp2365
I6
aI4
aa(lp2366
I6
aI10
aa(lp2367
I6
aI16
aa(lp2368
I12
aI4
aa(lp2369
I12
aI10
aa(lp2370
I12
aI16
aaI12
aa(lp2371
I-1
a(lp2372
I0
aI5
aa(lp2373
I0
aI11
aa(lp2374
I0
aI17
aa(lp2375
I6
aI5
aa(lp2376
I6
aI11
aa(lp2377
I6
aI17
aa(lp2378
I12
aI5
aa(lp2379
I12
aI11
aa(lp2380
I12
aI17
aaI12
aa(lp2381
I-1
a(lp2382
I0
aI6
aa(lp2383
I0
aI12
aa(lp2384
I0
aI18
aa(lp2385
I6
aI6
aa(lp2386
I6
aI12
aa(lp2387
I6
aI18
aa(lp2388
I12
aI6
aa(lp2389
I12
aI12
aa(lp2390
I12
aI18
aaI12
aa(lp2391
I-1
a(lp2392
I1
aI3
aa(lp2393
I1
aI9
aa(lp2394
I1
aI15
aa(lp2395
I7
aI3
aa(lp2396
I7
aI9
aa(lp2397
I7
aI15
aa(lp2398
I13
aI3
aa(lp2399
I13
aI9
aa(lp2400
I13
aI15
aaI12
aa(lp2401
I-1
a(lp2402
I1
aI4
aa(lp2403
I1
aI10
aa(lp2404
I1
aI16
aa(lp2405
I7
aI4
aa(lp2406
I7
aI10
aa(lp2407
I7
aI16
aa(lp2408
I13
aI4
aa(lp2409
I13
aI10
aa(lp2410
I13
aI16
aaI12
aa(lp2411
I-1
a(lp2412
I1
aI5
aa(lp2413
I1
aI11
aa(lp2414
I1
aI17
aa(lp2415
I7
aI5
aa(lp2416
I7
aI11
aa(lp2417
I7
aI17
aa(lp2418
I13
aI5
aa(lp2419
I13
aI11
aa(lp2420
I13
aI17
aaI12
aa(lp2421
I-1
a(lp2422
I1
aI6
aa(lp2423
I1
aI12
aa(lp2424
I1
aI18
aa(lp2425
I7
aI6
aa(lp2426
I7
aI12
aa(lp2427
I7
aI18
aa(lp2428
I13
aI6
aa(lp2429
I13
aI12
aa(lp2430
I13
aI18
aaI12
aa(lp2431
I-1
a(lp2432
I2
aI3
aa(lp2433
I2
aI9
aa(lp2434
I2
aI15
aa(lp2435
I8
aI3
aa(lp2436
I8
aI9
aa(lp2437
I8
aI15
aa(lp2438
I14
aI3
aa(lp2439
I14
aI9
aa(lp2440
I14
aI15
aaI12
aa(lp2441
I-1
a(lp2442
I2
aI4
aa(lp2443
I2
aI10
aa(lp2444
I2
aI16
aa(lp2445
I8
aI4
aa(lp2446
I8
aI10
aa(lp2447
I8
aI16
aa(lp2448
I14
aI4
aa(lp2449
I14
aI10
aa(lp2450
I14
aI16
aaI12
aa(lp2451
I-1
a(lp2452
I2
aI5
aa(lp2453
I2
aI11
aa(lp2454
I2
aI17
aa(lp2455
I8
aI5
aa(lp2456
I8
aI11
aa(lp2457
I8
aI17
aa(lp2458
I14
aI5
aa(lp2459
I14
aI11
aa(lp2460
I14
aI17
aaI12
aa(lp2461
I-1
a(lp2462
I2
aI6
aa(lp2463
I2
aI12
aa(lp2464
I2
aI18
aa(lp2465
I8
aI6
aa(lp2466
I8
aI12
aa(lp2467
I8
aI18
aa(lp2468
I14
aI6
aa(lp2469
I14
aI12
aa(lp2470
I14
aI18
aaI12
aa(lp2471
I-1
a(lp2472
I3
aI4
aa(lp2473
I3
aI10
aa(lp2474
I3
aI16
aa(lp2475
I9
aI4
aa(lp2476
I9
aI10
aa(lp2477
I9
aI16
aa(lp2478
I15
aI4
aa(lp2479
I15
aI10
aa(lp2480
I15
aI16
aaI12
aa(lp2481
I-1
a(lp2482
I3
aI5
aa(lp2483
I3
aI11
aa(lp2484
I3
aI17
aa(lp2485
I9
aI5
aa(lp2486
I9
aI11
aa(lp2487
I9
aI17
aa(lp2488
I15
aI5
aa(lp2489
I15
aI11
aa(lp2490
I15
aI17
aaI12
aa(lp2491
I-1
a(lp2492
I3
aI6
aa(lp2493
I3
aI12
aa(lp2494
I3
aI18
aa(lp2495
I9
aI6
aa(lp2496
I9
aI12
aa(lp2497
I9
aI18
aa(lp2498
I15
aI6
aa(lp2499
I15
aI12
aa(lp2500
I15
aI18
aaI12
aa(lp2501
I-1
a(lp2502
I4
aI4
aa(lp2503
I4
aI10
aa(lp2504
I4
aI16
aa(lp2505
I10
aI4
aa(lp2506
I10
aI10
aa(lp2507
I10
aI16
aa(lp2508
I16
aI4
aa(lp2509
I16
aI10
aa(lp2510
I16
aI16
aaI12
aa(lp2511
I-1
a(lp2512
I4
aI5
aa(lp2513
I4
aI11
aa(lp2514
I4
aI17
aa(lp2515
I10
aI5
aa(lp2516
I10
aI11
aa(lp2517
I10
aI17
aa(lp2518
I16
aI5
aa(lp2519
I16
aI11
aa(lp2520
I16
aI17
aaI12
aa(lp2521
I-1
a(lp2522
I4
aI6
aa(lp2523
I4
aI12
aa(lp2524
I4
aI18
aa(lp2525
I10
aI6
aa(lp2526
I10
aI12
aa(lp2527
I10
aI18
aa(lp2528
I16
aI6
aa(lp2529
I16
aI12
aa(lp2530
I16
aI18
aaI12
aa(lp2531
I-1
a(lp2532
I6
aI-1
aa(lp2533
I6
aI5
aa(lp2534
I6
aI11
aa(lp2535
I12
aI-1
aa(lp2536
I12
aI5
aa(lp2537
I12
aI11
aa(lp2538
I18
aI-1
aa(lp2539
I18
aI5
aa(lp2540
I18
aI11
aaI12
aa(lp2541
I-1
a(lp2542
I6
aI0
aa(lp2543
I6
aI6
aa(lp2544
I6
aI12
aa(lp2545
I12
aI0
aa(lp2546
I12
aI6
aa(lp2547
I12
aI12
aa(lp2548
I18
aI0
aa(lp2549
I18
aI6
aa(lp2550
I18
aI12
aaI12
aa(lp2551
I-1
a(lp2552
I-1
aI2
aa(lp2553
I-1
aI9
aa(lp2554
I-1
aI16
aa(lp2555
I6
aI2
aa(lp2556
I6
aI9
aa(lp2557
I6
aI16
aa(lp2558
I13
aI2
aa(lp2559
I13
aI9
aa(lp2560
I13
aI16
aaI14
aa(lp2561
I-1
a(lp2562
I-1
aI3
aa(lp2563
I-1
aI10
aa(lp2564
I-1
aI17
aa(lp2565
I6
aI3
aa(lp2566
I6
aI10
aa(lp2567
I6
aI17
aa(lp2568
I13
aI3
aa(lp2569
I13
aI10
aa(lp2570
I13
aI17
aaI14
aa(lp2571
I-1
a(lp2572
I-1
aI4
aa(lp2573
I-1
aI11
aa(lp2574
I-1
aI18
aa(lp2575
I6
aI4
aa(lp2576
I6
aI11
aa(lp2577
I6
aI18
aa(lp2578
I13
aI4
aa(lp2579
I13
aI11
aa(lp2580
I13
aI18
aaI14
aa(lp2581
I-1
a(lp2582
I0
aI2
aa(lp2583
I0
aI9
aa(lp2584
I0
aI16
aa(lp2585
I7
aI2
aa(lp2586
I7
aI9
aa(lp2587
I7
aI16
aa(lp2588
I14
aI2
aa(lp2589
I14
aI9
aa(lp2590
I14
aI16
aaI14
aa(lp2591
I-1
a(lp2592
I0
aI3
aa(lp2593
I0
aI10
aa(lp2594
I0
aI17
aa(lp2595
I7
aI3
aa(lp2596
I7
aI10
aa(lp2597
I7
aI17
aa(lp2598
I14
aI3
aa(lp2599
I14
aI10
aa(lp2600
I14
aI17
aaI14
aa(lp2601
I-1
a(lp2602
I0
aI4
aa(lp2603
I0
aI11
aa(lp2604
I0
aI18
aa(lp2605
I7
aI4
aa(lp2606
I7
aI11
aa(lp2607
I7
aI18
aa(lp2608
I14
aI4
aa(lp2609
I14
aI11
aa(lp2610
I14
aI18
aaI14
aa(lp2611
I-1
a(lp2612
I1
aI2
aa(lp2613
I1
aI9
aa(lp2614
I1
aI16
aa(lp2615
I8
aI2
aa(lp2616
I8
aI9
aa(lp2617
I8
aI16
aa(lp2618
I15
aI2
aa(lp2619
I15
aI9
aa(lp2620
I15
aI16
aaI14
aa(lp2621
I-1
a(lp2622
I1
aI3
aa(lp2623
I1
aI10
aa(lp2624
I1
aI17
aa(lp2625
I8
aI3
aa(lp2626
I8
aI10
aa(lp2627
I8
aI17
aa(lp2628
I15
aI3
aa(lp2629
I15
aI10
aa(lp2630
I15
aI17
aaI14
aa(lp2631
I-1
a(lp2632
I1
aI4
aa(lp2633
I1
aI11
aa(lp2634
I1
aI18
aa(lp2635
I8
aI4
aa(lp2636
I8
aI11
aa(lp2637
I8
aI18
aa(lp2638
I15
aI4
aa(lp2639
I15
aI11
aa(lp2640
I15
aI18
aaI14
aa(lp2641
I-1
a(lp2642
I2
aI2
aa(lp2643
I2
aI9
aa(lp2644
I2
aI16
aa(lp2645
I9
aI2
aa(lp2646
I9
aI9
aa(lp2647
I9
aI16
aa(lp2648
I16
aI2
aa(lp2649
I16
aI9
aa(lp2650
I16
aI16
aaI14
aa(lp2651
I-1
a(lp2652
I2
aI3
aa(lp2653
I2
aI10
aa(lp2654
I2
aI17
aa(lp2655
I9
aI3
aa(lp2656
I9
aI10
aa(lp2657
I9
aI17
aa(lp2658
I16
aI3
aa(lp2659
I16
aI10
aa(lp2660
I16
aI17
aaI14
aa(lp2661
I-1
a(lp2662
I2
aI4
aa(lp2663
I2
aI11
aa(lp2664
I2
aI18
aa(lp2665
I9
aI4
aa(lp2666
I9
aI11
aa(lp2667
I9
aI18
aa(lp2668
I16
aI4
aa(lp2669
I16
aI11
aa(lp2670
I16
aI18
aaI14
aa(lp2671
I-1
a(lp2672
I3
aI2
aa(lp2673
I3
aI9
aa(lp2674
I3
aI16
aa(lp2675
I10
aI2
aa(lp2676
I10
aI9
aa(lp2677
I10
aI16
aa(lp2678
I17
aI2
aa(lp2679
I17
aI9
aa(lp2680
I17
aI16
aaI14
aa(lp2681
I-1
a(lp2682
I3
aI3
aa(lp2683
I3
aI10
aa(lp2684
I3
aI17
aa(lp2685
I10
aI3
aa(lp2686
I10
aI10
aa(lp2687
I10
aI17
aa(lp2688
I17
aI3
aa(lp2689
I17
aI10
aa(lp2690
I17
aI17
aaI14
aa(lp2691
I-1
a(lp2692
I3
aI4
aa(lp2693
I3
aI11
aa(lp2694
I3
aI18
aa(lp2695
I10
aI4
aa(lp2696
I10
aI11
aa(lp2697
I10
aI18
aa(lp2698
I17
aI4
aa(lp2699
I17
aI11
aa(lp2700
I17
aI18
aaI14
aa(lp2701
I-1
a(lp2702
I-1
aI1
aa(lp2703
I-1
aI9
aa(lp2704
I-1
aI17
aa(lp2705
I7
aI1
aa(lp2706
I7
aI9
aa(lp2707
I7
aI17
aa(lp2708
I15
aI1
aa(lp2709
I15
aI9
aa(lp2710
I15
aI17
aaI16
aa(lp2711
I-1
a(lp2712
I-1
aI2
aa(lp2713
I-1
aI10
aa(lp2714
I-1
aI18
aa(lp2715
I7
aI2
aa(lp2716
I7
aI10
aa(lp2717
I7
aI18
aa(lp2718
I15
aI2
aa(lp2719
I15
aI10
aa(lp2720
I15
aI18
aaI16
aa(lp2721
I-1
a(lp2722
I0
aI1
aa(lp2723
I0
aI9
aa(lp2724
I0
aI17
aa(lp2725
I8
aI1
aa(lp2726
I8
aI9
aa(lp2727
I8
aI17
aa(lp2728
I16
aI1
aa(lp2729
I16
aI9
aa(lp2730
I16
aI17
aaI16
aa(lp2731
I-1
a(lp2732
I0
aI2
aa(lp2733
I0
aI10
aa(lp2734
I0
aI18
aa(lp2735
I8
aI2
aa(lp2736
I8
aI10
aa(lp2737
I8
aI18
aa(lp2738
I16
aI2
aa(lp2739
I16
aI10
aa(lp2740
I16
aI18
aaI16
aa(lp2741
I-1
a(lp2742
I1
aI1
aa(lp2743
I1
aI9
aa(lp2744
I1
aI17
aa(lp2745
I9
aI1
aa(lp2746
I9
aI9
aa(lp2747
I9
aI17
aa(lp2748
I17
aI1
aa(lp2749
I17
aI9
aa(lp2750
I17
aI17
aaI16
aa(lp2751
I-1
a(lp2752
I1
aI2
aa(lp2753
I1
aI10
aa(lp2754
I1
aI18
aa(lp2755
I9
aI2
aa(lp2756
I9
aI10
aa(lp2757
I9
aI18
aa(lp2758
I17
aI2
aa(lp2759
I17
aI10
aa(lp2760
I17
aI18
aaI16
aa(lp2761
I-1
a(lp2762
I2
aI2
aa(lp2763
I2
aI10
aa(lp2764
I2
aI18
aa(lp2765
I10
aI2
aa(lp2766
I10
aI10
aa(lp2767
I10
aI18
aa(lp2768
I18
aI2
aa(lp2769
I18
aI10
aa(lp2770
I18
aI18
aaI16
aa(lp2771
I-1
a(lp2772
I-1
aI0
aa(lp2773
I-1
aI9
aa(lp2774
I-1
aI18
aa(lp2775
I8
aI0
aa(lp2776
I8
aI9
aa(lp2777
I8
aI18
aa(lp2778
I17
aI0
aa(lp2779
I17
aI9
aa(lp2780
I17
aI18
aaI18
aa(lp2781
I-1
a(lp2782
I0
aI0
aa(lp2783
I0
aI9
aa(lp2784
I0
aI18
aa(lp2785
I9
aI0
aa(lp2786
I9
aI9
aa(lp2787
I9
aI18
aa(lp2788
I18
aI0
aa(lp2789
I18
aI9
aa(lp2790
I18
aI18
aaI18
aa.