(lp0
(lp1
I1
a(lp2
I-1
aI-1
aa(lp3
I-1
aI2
aa(lp4
I-1
aI5
aa(lp5
I2
aI-1
aa(lp6
I2
aI2
aa(lp7
I2
aI5
aa(lp8
I5
aI-1
aa(lp9
I5
aI2
aa(lp10
I5
aI5
aaI6
aa(lp11
I1
a(lp12
I-1
aI0
aa(lp13
I-1
aI3
aa(lp14
I-1
aI6
aa(lp15
I2
aI0
aa(lp16
I2
aI3
aa(lp17
I2
aI6
aa(lp18
I5
aI0
aa(lp19
I5
aI3
aa(lp20
I5
aI6
aaI6
aa(lp21
I1
a(lp22
I4
aI2
aa(lp23
I4
aI5
aa(lp24
I4
aI8
aa(lp25
I7
aI2
aa(lp26
I7
aI5
aa(lp27
I7
aI8
aa(lp28
I10
aI2
aa(lp29
I10
aI5
aa(lp30
I10
aI8
aaI6
aa(lp31
I1
a(lp32
I12
aI11
aa(lp33
I12
aI14
aa(lp34
I12
aI17
aa(lp35
I15
aI11
aa(lp36
I15
aI14
aa(lp37
I15
aI17
aa(lp38
I18
aI11
aa(lp39
I18
aI14
aa(lp40
I18
aI17
aaI6
aa(lp41
I1
a(lp42
I12
aI12
aa(lp43
I12
aI15
aa(lp44
I12
aI18
aa(lp45
I15
aI12
aa(lp46
I15
aI15
aa(lp47
I15
aI18
aa(lp48
I18
aI12
aa(lp49
I18
aI15
aa(lp50
I18
aI18
aaI6
aa(lp51
I1
a(lp52
I-1
aI-1
aa(lp53
I-1
aI3
aa(lp54
I-1
aI7
aa(lp55
I3
aI-1
aa(lp56
I3
aI3
aa(lp57
I3
aI7
aa(lp58
I7
aI-1
aa(lp59
I7
aI3
aa(lp60
I7
aI7
aaI8
aa(lp61
I1
a(lp62
I2
aI1
aa(lp63
I2
aI5
aa(lp64
I2
aI9
aa(lp65
I6
aI1
aa(lp66
I6
aI5
aa(lp67
I6
aI9
aa(lp68
I10
aI1
aa(lp69
I10
aI5
aa(lp70
I10
aI9
aaI8
aa(lp71
I1
a(lp72
I2
aI2
aa(lp73
I2
aI6
aa(lp74
I2
aI10
aa(lp75
I6
aI2
aa(lp76
I6
aI6
aa(lp77
I6
aI10
aa(lp78
I10
aI2
aa(lp79
I10
aI6
aa(lp80
I10
aI10
aaI8
aa(lp81
I1
a(lp82
I3
aI1
aa(lp83
I3
aI5
aa(lp84
I3
aI9
aa(lp85
I7
aI1
aa(lp86
I7
aI5
aa(lp87
I7
aI9
aa(lp88
I11
aI1
aa(lp89
I11
aI5
aa(lp90
I11
aI9
aaI8
aa(lp91
I1
a(lp92
I3
aI2
aa(lp93
I3
aI6
aa(lp94
I3
aI10
aa(lp95
I7
aI2
aa(lp96
I7
aI6
aa(lp97
I7
aI10
aa(lp98
I11
aI2
aa(lp99
I11
aI6
aa(lp100
I11
aI10
aaI8
aa(lp101
I1
a(lp102
I3
aI3
aa(lp103
I3
aI7
aa(lp104
I3
aI11
aa(lp105
I7
aI3
aa(lp106
I7
aI7
aa(lp107
I7
aI11
aa(lp108
I11
aI3
aa(lp109
I11
aI7
aa(lp110
I11
aI11
aaI8
aa(lp111
I1
a(lp112
I4
aI1
aa(lp113
I4
aI5
aa(lp114
I4
aI9
aa(lp115
I8
aI1
aa(lp116
I8
aI5
aa(lp117
I8
aI9
aa(lp118
I12
aI1
aa(lp119
I12
aI5
aa(lp120
I12
aI9
aaI8
aa(lp121
I1
a(lp122
I4
aI2
aa(lp123
I4
aI6
aa(lp124
I4
aI10
aa(lp125
I8
aI2
aa(lp126
I8
aI6
aa(lp127
I8
aI10
aa(lp128
I12
aI2
aa(lp129
I12
aI6
aa(lp130
I12
aI10
aaI8
aa(lp131
I1
a(lp132
I4
aI3
aa(lp133
I4
aI7
aa(lp134
I4
aI11
aa(lp135
I8
aI3
aa(lp136
I8
aI7
aa(lp137
I8
aI11
aa(lp138
I12
aI3
aa(lp139
I12
aI7
aa(lp140
I12
aI11
aaI8
aa(lp141
I1
a(lp142
I10
aI8
aa(lp143
I10
aI12
aa(lp144
I10
aI16
aa(lp145
I14
aI8
aa(lp146
I14
aI12
aa(lp147
I14
aI16
aa(lp148
I18
aI8
aa(lp149
I18
aI12
aa(lp150
I18
aI16
aaI8
aa(lp151
I1
a(lp152
I10
aI9
aa(lp153
I10
aI13
aa(lp154
I10
aI17
aa(lp155
I14
aI9
aa(lp156
I14
aI13
aa(lp157
I14
aI17
aa(lp158
I18
aI9
aa(lp159
I18
aI13
aa(lp160
I18
aI17
aaI8
aa(lp161
I1
a(lp162
I10
aI10
aa(lp163
I10
aI14
aa(lp164
I10
aI18
aa(lp165
I14
aI10
aa(lp166
I14
aI14
aa(lp167
I14
aI18
aa(lp168
I18
aI10
aa(lp169
I18
aI14
aa(lp170
I18
aI18
aaI8
aa(lp171
I1
a(lp172
I1
aI0
aa(lp173
I1
aI5
aa(lp174
I1
aI10
aa(lp175
I6
aI0
aa(lp176
I6
aI5
aa(lp177
I6
aI10
aa(lp178
I11
aI0
aa(lp179
I11
aI5
aa(lp180
I11
aI10
aaI10
aa(lp181
I1
a(lp182
I1
aI1
aa(lp183
I1
aI6
aa(lp184
I1
aI11
aa(lp185
I6
aI1
aa(lp186
I6
aI6
aa(lp187
I6
aI11
aa(lp188
I11
aI1
aa(lp189
I11
aI6
aa(lp190
I11
aI11
aaI10
aa(lp191
I1
a(lp192
I2
aI-1
aa(lp193
I2
aI4
aa(lp194
I2
aI9
aa(lp195
I7
aI-1
aa(lp196
I7
aI4
aa(lp197
I7
aI9
aa(lp198
I12
aI-1
aa(lp199
I12
aI4
aa(lp200
I12
aI9
aaI10
aa(lp201
I1
a(lp202
I2
aI0
aa(lp203
I2
aI5
aa(lp204
I2
aI10
aa(lp205
I7
aI0
aa(lp206
I7
aI5
aa(lp207
I7
aI10
aa(lp208
I12
aI0
aa(lp209
I12
aI5
aa(lp210
I12
aI10
aaI10
aa(lp211
I1
a(lp212
I2
aI1
aa(lp213
I2
aI6
aa(lp214
I2
aI11
aa(lp215
I7
aI1
aa(lp216
I7
aI6
aa(lp217
I7
aI11
aa(lp218
I12
aI1
aa(lp219
I12
aI6
aa(lp220
I12
aI11
aaI10
aa(lp221
I1
a(lp222
I2
aI2
aa(lp223
I2
aI7
aa(lp224
I2
aI12
aa(lp225
I7
aI2
aa(lp226
I7
aI7
aa(lp227
I7
aI12
aa(lp228
I12
aI2
aa(lp229
I12
aI7
aa(lp230
I12
aI12
aaI10
aa(lp231
I1
a(lp232
I2
aI3
aa(lp233
I2
aI8
aa(lp234
I2
aI13
aa(lp235
I7
aI3
aa(lp236
I7
aI8
aa(lp237
I7
aI13
aa(lp238
I12
aI3
aa(lp239
I12
aI8
aa(lp240
I12
aI13
aaI10
aa(lp241
I1
a(lp242
I3
aI-1
aa(lp243
I3
aI4
aa(lp244
I3
aI9
aa(lp245
I8
aI-1
aa(lp246
I8
aI4
aa(lp247
I8
aI9
aa(lp248
I13
aI-1
aa(lp249
I13
aI4
aa(lp250
I13
aI9
aaI10
aa(lp251
I1
a(lp252
I3
aI0
aa(lp253
I3
aI5
aa(lp254
I3
aI10
aa(lp255
I8
aI0
aa(lp256
I8
aI5
aa(lp257
I8
aI10
aa(lp258
I13
aI0
aa(lp259
I13
aI5
aa(lp260
I13
aI10
aaI10
aa(lp261
I1
a(lp262
I3
aI1
aa(lp263
I3
aI6
aa(lp264
I3
aI11
aa(lp265
I8
aI1
aa(lp266
I8
aI6
aa(lp267
I8
aI11
aa(lp268
I13
aI1
aa(lp269
I13
aI6
aa(lp270
I13
aI11
aaI10
aa(lp271
I1
a(lp272
I3
aI2
aa(lp273
I3
aI7
aa(lp274
I3
aI12
aa(lp275
I8
aI2
aa(lp276
I8
aI7
aa(lp277
I8
aI12
aa(lp278
I13
aI2
aa(lp279
I13
aI7
aa(lp280
I13
aI12
aaI10
aa(lp281
I1
a(lp282
I3
aI3
aa(lp283
I3
aI8
aa(lp284
I3
aI13
aa(lp285
I8
aI3
aa(lp286
I8
aI8
aa(lp287
I8
aI13
aa(lp288
I13
aI3
aa(lp289
I13
aI8
aa(lp290
I13
aI13
aaI10
aa(lp291
I1
a(lp292
I4
aI-1
aa(lp293
I4
aI4
aa(lp294
I4
aI9
aa(lp295
I9
aI-1
aa(lp296
I9
aI4
aa(lp297
I9
aI9
aa(lp298
I14
aI-1
aa(lp299
I14
aI4
aa(lp300
I14
aI9
aaI10
aa(lp301
I1
a(lp302
I4
aI0
aa(lp303
I4
aI5
aa(lp304
I4
aI10
aa(lp305
I9
aI0
aa(lp306
I9
aI5
aa(lp307
I9
aI10
aa(lp308
I14
aI0
aa(lp309
I14
aI5
aa(lp310
I14
aI10
aaI10
aa(lp311
I1
a(lp312
I4
aI1
aa(lp313
I4
aI6
aa(lp314
I4
aI11
aa(lp315
I9
aI1
aa(lp316
I9
aI6
aa(lp317
I9
aI11
aa(lp318
I14
aI1
aa(lp319
I14
aI6
aa(lp320
I14
aI11
aaI10
aa(lp321
I1
a(lp322
I4
aI2
aa(lp323
I4
aI7
aa(lp324
I4
aI12
aa(lp325
I9
aI2
aa(lp326
I9
aI7
aa(lp327
I9
aI12
aa(lp328
I14
aI2
aa(lp329
I14
aI7
aa(lp330
I14
aI12
aaI10
aa(lp331
I1
a(lp332
I4
aI3
aa(lp333
I4
aI8
aa(lp334
I4
aI13
aa(lp335
I9
aI3
aa(lp336
I9
aI8
aa(lp337
I9
aI13
aa(lp338
I14
aI3
aa(lp339
I14
aI8
aa(lp340
I14
aI13
aaI10
aa(lp341
I1
a(lp342
I8
aI7
aa(lp343
I8
aI12
aa(lp344
I8
aI17
aa(lp345
I13
aI7
aa(lp346
I13
aI12
aa(lp347
I13
aI17
aa(lp348
I18
aI7
aa(lp349
I18
aI12
aa(lp350
I18
aI17
aaI10
aa(lp351
I1
a(lp352
I8
aI8
aa(lp353
I8
aI13
aa(lp354
I8
aI18
aa(lp355
I13
aI8
aa(lp356
I13
aI13
aa(lp357
I13
aI18
aa(lp358
I18
aI8
aa(lp359
I18
aI13
aa(lp360
I18
aI18
aaI10
aa(lp361
I1
a(lp362
I0
aI-1
aa(lp363
I0
aI5
aa(lp364
I0
aI11
aa(lp365
I6
aI-1
aa(lp366
I6
aI5
aa(lp367
I6
aI11
aa(lp368
I12
aI-1
aa(lp369
I12
aI5
aa(lp370
I12
aI11
aaI12
aa(lp371
I1
a(lp372
I0
aI0
aa(lp373
I0
aI6
aa(lp374
I0
aI12
aa(lp375
I6
aI0
aa(lp376
I6
aI6
aa(lp377
I6
aI12
aa(lp378
I12
aI0
aa(lp379
I12
aI6
aa(lp380
I12
aI12
aaI12
aa(lp381
I1
a(lp382
I0
aI1
aa(lp383
I0
aI7
aa(lp384
I0
aI13
aa(lp385
I6
aI1
aa(lp386
I6
aI7
aa(lp387
I6
aI13
aa(lp388
I12
aI1
aa(lp389
I12
aI7
aa(lp390
I12
aI13
aaI12
aa(lp391
I1
a(lp392
I1
aI-1
aa(lp393
I1
aI5
aa(lp394
I1
aI11
aa(lp395
I7
aI-1
aa(lp396
I7
aI5
aa(lp397
I7
aI11
aa(lp398
I13
aI-1
aa(lp399
I13
aI5
aa(lp400
I13
aI11
aaI12
aa(lp401
I1
a(lp402
I1
aI0
aa(lp403
I1
aI6
aa(lp404
I1
aI12
aa(lp405
I7
aI0
aa(lp406
I7
aI6
aa(lp407
I7
aI12
aa(lp408
I13
aI0
aa(lp409
I13
aI6
aa(lp410
I13
aI12
aaI12
aa(lp411
I1
a(lp412
I1
aI1
aa(lp413
I1
aI7
aa(lp414
I1
aI13
aa(lp415
I7
aI1
aa(lp416
I7
aI7
aa(lp417
I7
aI13
aa(lp418
I13
aI1
aa(lp419
I13
aI7
aa(lp420
I13
aI13
aaI12
aa(lp421
I1
a(lp422
I2
aI-1
aa(lp423
I2
aI5
aa(lp424
I2
aI11
aa(lp425
I8
aI-1
aa(lp426
I8
aI5
aa(lp427
I8
aI11
aa(lp428
I14
aI-1
aa(lp429
I14
aI5
aa(lp430
I14
aI11
aaI12
aa(lp431
I1
a(lp432
I2
aI0
aa(lp433
I2
aI6
aa(lp434
I2
aI12
aa(lp435
I8
aI0
aa(lp436
I8
aI6
aa(lp437
I8
aI12
aa(lp438
I14
aI0
aa(lp439
I14
aI6
aa(lp440
I14
aI12
aaI12
aa(lp441
I1
a(lp442
I2
aI1
aa(lp443
I2
aI7
aa(lp444
I2
aI13
aa(lp445
I8
aI1
aa(lp446
I8
aI7
aa(lp447
I8
aI13
aa(lp448
I14
aI1
aa(lp449
I14
aI7
aa(lp450
I14
aI13
aaI12
aa(lp451
I1
a(lp452
I2
aI2
aa(lp453
I2
aI8
aa(lp454
I2
aI14
aa(lp455
I8
aI2
aa(lp456
I8
aI8
aa(lp457
I8
aI14
aa(lp458
I14
aI2
aa(lp459
I14
aI8
aa(lp460
I14
aI14
aaI12
aa(lp461
I1
a(lp462
I3
aI-1
aa(lp463
I3
aI5
aa(lp464
I3
aI11
aa(lp465
I9
aI-1
aa(lp466
I9
aI5
aa(lp467
I9
aI11
aa(lp468
I15
aI-1
aa(lp469
I15
aI5
aa(lp470
I15
aI11
aaI12
aa(lp471
I1
a(lp472
I3
aI0
aa(lp473
I3
aI6
aa(lp474
I3
aI12
aa(lp475
I9
aI0
aa(lp476
I9
aI6
aa(lp477
I9
aI12
aa(lp478
I15
aI0
aa(lp479
I15
aI6
aa(lp480
I15
aI12
aaI12
aa(lp481
I1
a(lp482
I3
aI1
aa(lp483
I3
aI7
aa(lp484
I3
aI13
aa(lp485
I9
aI1
aa(lp486
I9
aI7
aa(lp487
I9
aI13
aa(lp488
I15
aI1
aa(lp489
I15
aI7
aa(lp490
I15
aI13
aaI12
aa(lp491
I1
a(lp492
I3
aI2
aa(lp493
I3
aI8
aa(lp494
I3
aI14
aa(lp495
I9
aI2
aa(lp496
I9
aI8
aa(lp497
I9
aI14
aa(lp498
I15
aI2
aa(lp499
I15
aI8
aa(lp500
I15
aI14
aaI12
aa(lp501
I1
a(lp502
I4
aI1
aa(lp503
I4
aI7
aa(lp504
I4
aI13
aa(lp505
I10
aI1
aa(lp506
I10
aI7
aa(lp507
I10
aI13
aa(lp508
I16
aI1
aa(lp509
I16
aI7
aa(lp510
I16
aI13
aaI12
aa(lp511
I1
a(lp512
I6
aI6
aa(lp513
I6
aI12
aa(lp514
I6
aI18
aa(lp515
I12
aI6
aa(lp516
I12
aI12
aa(lp517
I12
aI18
aa(lp518
I18
aI6
aa(lp519
I18
aI12
aa(lp520
I18
aI18
aaI12
aa(lp521
I1
a(lp522
I-1
aI-1
aa(lp523
I-1
aI6
aa(lp524
I-1
aI13
aa(lp525
I6
aI-1
aa(lp526
I6
aI6
aa(lp527
I6
aI13
aa(lp528
I13
aI-1
aa(lp529
I13
aI6
aa(lp530
I13
aI13
aaI14
aa(lp531
I1
a(lp532
I-1
aI0
aa(lp533
I-1
aI7
aa(lp534
I-1
aI14
aa(lp535
I6
aI0
aa(lp536
I6
aI7
aa(lp537
I6
aI14
aa(lp538
I13
aI0
aa(lp539
I13
aI7
aa(lp540
I13
aI14
aaI14
aa(lp541
I1
a(lp542
I0
aI-1
aa(lp543
I0
aI6
aa(lp544
I0
aI13
aa(lp545
I7
aI-1
aa(lp546
I7
aI6
aa(lp547
I7
aI13
aa(lp548
I14
aI-1
aa(lp549
I14
aI6
aa(lp550
I14
aI13
aaI14
aa(lp551
I1
a(lp552
I0
aI0
aa(lp553
I0
aI7
aa(lp554
I0
aI14
aa(lp555
I7
aI0
aa(lp556
I7
aI7
aa(lp557
I7
aI14
aa(lp558
I14
aI0
aa(lp559
I14
aI7
aa(lp560
I14
aI14
aaI14
aa(lp561
I1
a(lp562
I1
aI-1
aa(lp563
I1
aI6
aa(lp564
I1
aI13
aa(lp565
I8
aI-1
aa(lp566
I8
aI6
aa(lp567
I8
aI13
aa(lp568
I15
aI-1
aa(lp569
I15
aI6
aa(lp570
I15
aI13
aaI14
aa(lp571
I1
a(lp572
I1
aI0
aa(lp573
I1
aI7
aa(lp574
I1
aI14
aa(lp575
I8
aI0
aa(lp576
I8
aI7
aa(lp577
I8
aI14
aa(lp578
I15
aI0
aa(lp579
I15
aI7
aa(lp580
I15
aI14
aaI14
aa(lp581
I1
a(lp582
I1
aI1
aa(lp583
I1
aI8
aa(lp584
I1
aI15
aa(lp585
I8
aI1
aa(lp586
I8
aI8
aa(lp587
I8
aI15
aa(lp588
I15
aI1
aa(lp589
I15
aI8
aa(lp590
I15
aI15
aaI14
aa(lp591
I1
a(lp592
I2
aI-1
aa(lp593
I2
aI6
aa(lp594
I2
aI13
aa(lp595
I9
aI-1
aa(lp596
I9
aI6
aa(lp597
I9
aI13
aa(lp598
I16
aI-1
aa(lp599
I16
aI6
aa(lp600
I16
aI13
aaI14
aa(lp601
I1
a(lp602
I2
aI0
aa(lp603
I2
aI7
aa(lp604
I2
aI14
aa(lp605
I9
aI0
aa(lp606
I9
aI7
aa(lp607
I9
aI14
aa(lp608
I16
aI0
aa(lp609
I16
aI7
aa(lp610
I16
aI14
aaI14
aa(lp611
I1
a(lp612
I2
aI1
aa(lp613
I2
aI8
aa(lp614
I2
aI15
aa(lp615
I9
aI1
aa(lp616
I9
aI8
aa(lp617
I9
aI15
aa(lp618
I16
aI1
aa(lp619
I16
aI8
aa(lp620
I16
aI15
aaI14
aa(lp621
I1
a(lp622
I3
aI0
aa(lp623
I3
aI7
aa(lp624
I3
aI14
aa(lp625
I10
aI0
aa(lp626
I10
aI7
aa(lp627
I10
aI14
aa(lp628
I17
aI0
aa(lp629
I17
aI7
aa(lp630
I17
aI14
aaI14
aa(lp631
I1
a(lp632
I-1
aI-1
aa(lp633
I-1
aI7
aa(lp634
I-1
aI15
aa(lp635
I7
aI-1
aa(lp636
I7
aI7
aa(lp637
I7
aI15
aa(lp638
I15
aI-1
aa(lp639
I15
aI7
aa(lp640
I15
aI15
aaI16
aa(lp641
I1
a(lp642
I0
aI-1
aa(lp643
I0
aI7
aa(lp644
I0
aI15
aa(lp645
I8
aI-1
aa(lp646
I8
aI7
aa(lp647
I8
aI15
aa(lp648
I16
aI-1
aa(lp649
I16
aI7
aa(lp650
I16
aI15
aaI16
aa(lp651
I1
a(lp652
I1
aI-1
aa(lp653
I1
aI7
aa(lp654
I1
aI15
aa(lp655
I9
aI-1
aa(lp656
I9
aI7
aa(lp657
I9
aI15
aa(lp658
I17
aI-1
aa(lp659
I17
aI7
aa(lp660
I17
aI15
aaI16
aa(lp661
I-1
a(lp662
I-1
aI4
aa(lp663
I-1
aI7
aa(lp664
I-1
aI10
aa(lp665
I2
aI4
aa(lp666
I2
aI7
aa(lp667
I2
aI10
aa(lp668
I5
aI4
aa(lp669
I5
aI7
aa(lp670
I5
aI10
aaI6
aa(lp671
I-1
a(lp672
I-1
aI12
aa(lp673
I-1
aI15
aa(lp674
I-1
aI18
aa(lp675
I2
aI12
aa(lp676
I2
aI15
aa(lp677
I2
aI18
aa(lp678
I5
aI12
aa(lp679
I5
aI15
aa(lp680
I5
aI18
aaI6
aa(lp681
I-1
a(lp682
I12
aI0
aa(lp683
I12
aI3
aa(lp684
I12
aI6
aa(lp685
I15
aI0
aa(lp686
I15
aI3
aa(lp687
I15
aI6
aa(lp688
I18
aI0
aa(lp689
I18
aI3
aa(lp690
I18
aI6
aaI6
aa(lp691
I-1
a(lp692
I-1
aI4
aa(lp693
I-1
aI8
aa(lp694
I-1
aI12
aa(lp695
I3
aI4
aa(lp696
I3
aI8
aa(lp697
I3
aI12
aa(lp698
I7
aI4
aa(lp699
I7
aI8
aa(lp700
I7
aI12
aaI8
aa(lp701
I-1
a(lp702
I2
aI6
aa(lp703
I2
aI10
aa(lp704
I2
aI14
aa(lp705
I6
aI6
aa(lp706
I6
aI10
aa(lp707
I6
aI14
aa(lp708
I10
aI6
aa(lp709
I10
aI10
aa(lp710
I10
aI14
aaI8
aa(lp711
I-1
a(lp712
I3
aI6
aa(lp713
I3
aI10
aa(lp714
I3
aI14
aa(lp715
I7
aI6
aa(lp716
I7
aI10
aa(lp717
I7
aI14
aa(lp718
I11
aI6
aa(lp719
I11
aI10
aa(lp720
I11
aI14
aaI8
aa(lp721
I-1
a(lp722
I10
aI-1
aa(lp723
I10
aI3
aa(lp724
I10
aI7
aa(lp725
I14
aI-1
aa(lp726
I14
aI3
aa(lp727
I14
aI7
aa(lp728
I18
aI-1
aa(lp729
I18
aI3
aa(lp730
I18
aI7
aaI8
aa(lp731
I-1
a(lp732
I0
aI5
aa(lp733
I0
aI10
aa(lp734
I0
aI15
aa(lp735
I5
aI5
aa(lp736
I5
aI10
aa(lp737
I5
aI15
aa(lp738
I10
aI5
aa(lp739
I10
aI10
aa(lp740
I10
aI15
aaI10
aa(lp741
I-1
a(lp742
I1
aI5
aa(lp743
I1
aI10
aa(lp744
I1
aI15
aa(lp745
I6
aI5
aa(lp746
I6
aI10
aa(lp747
I6
aI15
aa(lp748
I11
aI5
aa(lp749
I11
aI10
aa(lp750
I11
aI15
aaI10
aa(lp751
I-1
a(lp752
I1
aI6
aa(lp753
I1
aI11
aa(lp754
I1
aI16
aa(lp755
I6
aI6
aa(lp756
I6
aI11
aa(lp757
I6
aI16
aa(lp758
I11
aI6
aa(lp759
I11
aI11
aa(lp760
I11
aI16
aaI10
aa(lp761
I-1
a(lp762
I2
aI5
aa(lp763
I2
aI10
aa(lp764
I2
aI15
aa(lp765
I7
aI5
aa(lp766
I7
aI10
aa(lp767
I7
aI15
aa(lp768
I12
aI5
aa(lp769
I12
aI10
aa(lp770
I12
aI15
aaI10
aa(lp771
I-1
a(lp772
I2
aI6
aa(lp773
I2
aI11
aa(lp774
I2
aI16
aa(lp775
I7
aI6
aa(lp776
I7
aI11
aa(lp777
I7
aI16
aa(lp778
I12
aI6
aa(lp779
I12
aI11
aa(lp780
I12
aI16
aaI10
aa(lp781
I-1
a(lp782
I2
aI7
aa(lp783
I2
aI12
aa(lp784
I2
aI17
aa(lp785
I7
aI7
aa(lp786
I7
aI12
aa(lp787
I7
aI17
aa(lp788
I12
aI7
aa(lp789
I12
aI12
aa(lp790
I12
aI17
aaI10
aa(lp791
I-1
a(lp792
I3
aI5
aa(lp793
I3
aI10
aa(lp794
I3
aI15
aa(lp795
I8
aI5
aa(lp796
I8
aI10
aa(lp797
I8
aI15
aa(lp798
I13
aI5
aa(lp799
I13
aI10
aa(lp800
I13
aI15
aaI10
aa(lp801
I-1
a(lp802
I3
aI6
aa(lp803
I3
aI11
aa(lp804
I3
aI16
aa(lp805
I8
aI6
aa(lp806
I8
aI11
aa(lp807
I8
aI16
aa(lp808
I13
aI6
aa(lp809
I13
aI11
aa(lp810
I13
aI16
aaI10
aa(lp811
I-1
a(lp812
I3
aI7
aa(lp813
I3
aI12
aa(lp814
I3
aI17
aa(lp815
I8
aI7
aa(lp816
I8
aI12
aa(lp817
I8
aI17
aa(lp818
I13
aI7
aa(lp819
I13
aI12
aa(lp820
I13
aI17
aaI10
aa(lp821
I-1
a(lp822
I3
aI8
aa(lp823
I3
aI13
aa(lp824
I3
aI18
aa(lp825
I8
aI8
aa(lp826
I8
aI13
aa(lp827
I8
aI18
aa(lp828
I13
aI8
aa(lp829
I13
aI13
aa(lp830
I13
aI18
aaI10
aa(lp831
I-1
a(lp832
I4
aI5
aa(lp833
I4
aI10
aa(lp834
I4
aI15
aa(lp835
I9
aI5
aa(lp836
I9
aI10
aa(lp837
I9
aI15
aa(lp838
I14
aI5
aa(lp839
I14
aI10
aa(lp840
I14
aI15
aaI10
aa(lp841
I-1
a(lp842
I4
aI7
aa(lp843
I4
aI12
aa(lp844
I4
aI17
aa(lp845
I9
aI7
aa(lp846
I9
aI12
aa(lp847
I9
aI17
aa(lp848
I14
aI7
aa(lp849
I14
aI12
aa(lp850
I14
aI17
aaI10
aa(lp851
I-1
a(lp852
I4
aI8
aa(lp853
I4
aI13
aa(lp854
I4
aI18
aa(lp855
I9
aI8
aa(lp856
I9
aI13
aa(lp857
I9
aI18
aa(lp858
I14
aI8
aa(lp859
I14
aI13
aa(lp860
I14
aI18
aaI10
aa(lp861
I-1
a(lp862
I8
aI-1
aa(lp863
I8
aI4
aa(lp864
I8
aI9
aa(lp865
I13
aI-1
aa(lp866
I13
aI4
aa(lp867
I13
aI9
aa(lp868
I18
aI-1
aa(lp869
I18
aI4
aa(lp870
I18
aI9
aaI10
aa(lp871
I-1
a(lp872
I8
aI0
aa(lp873
I8
aI5
aa(lp874
I8
aI10
aa(lp875
I13
aI0
aa(lp876
I13
aI5
aa(lp877
I13
aI10
aa(lp878
I18
aI0
aa(lp879
I18
aI5
aa(lp880
I18
aI10
aaI10
aa(lp881
I-1
a(lp882
I8
aI1
aa(lp883
I8
aI6
aa(lp884
I8
aI11
aa(lp885
I13
aI1
aa(lp886
I13
aI6
aa(lp887
I13
aI11
aa(lp888
I18
aI1
aa(lp889
I18
aI6
aa(lp890
I18
aI11
aaI10
aa(lp891
I-1
a(lp892
I-1
aI4
aa(lp893
I-1
aI10
aa(lp894
I-1
aI16
aa(lp895
I5
aI4
aa(lp896
I5
aI10
aa(lp897
I5
aI16
aa(lp898
I11
aI4
aa(lp899
I11
aI10
aa(lp900
I11
aI16
aaI12
aa(lp901
I-1
a(lp902
I0
aI4
aa(lp903
I0
aI10
aa(lp904
I0
aI16
aa(lp905
I6
aI4
aa(lp906
I6
aI10
aa(lp907
I6
aI16
aa(lp908
I12
aI4
aa(lp909
I12
aI10
aa(lp910
I12
aI16
aaI12
aa(lp911
I-1
a(lp912
I0
aI5
aa(lp913
I0
aI11
aa(lp914
I0
aI17
aa(lp915
I6
aI5
aa(lp916
I6
aI11
aa(lp917
I6
aI17
aa(lp918
I12
aI5
aa(lp919
I12
aI11
aa(lp920
I12
aI17
aaI12
aa(lp921
I-1
a(lp922
I1
aI4
aa(lp923
I1
aI10
aa(lp924
I1
aI16
aa(lp925
I7
aI4
aa(lp926
I7
aI10
aa(lp927
I7
aI16
aa(lp928
I13
aI4
aa(lp929
I13
aI10
aa(lp930
I13
aI16
aaI12
aa(lp931
I-1
a(lp932
I1
aI5
aa(lp933
I1
aI11
aa(lp934
I1
aI17
aa(lp935
I7
aI5
aa(lp936
I7
aI11
aa(lp937
I7
aI17
aa(lp938
I13
aI5
aa(lp939
I13
aI11
aa(lp940
I13
aI17
aaI12
aa(lp941
I-1
a(lp942
I1
aI6
aa(lp943
I1
aI12
aa(lp944
I1
aI18
aa(lp945
I7
aI6
aa(lp946
I7
aI12
aa(lp947
I7
aI18
aa(lp948
I13
aI6
aa(lp949
I13
aI12
aa(lp950
I13
aI18
aaI12
aa(lp951
I-1
a(lp952
I2
aI4
aa(lp953
I2
aI10
aa(lp954
I2
aI16
aa(lp955
I8
aI4
aa(lp956
I8
aI10
aa(lp957
I8
aI16
aa(lp958
I14
aI4
aa(lp959
I14
aI10
aa(lp960
I14
aI16
aaI12
aa(lp961
I-1
a(lp962
I2
aI5
aa(lp963
I2
aI11
aa(lp964
I2
aI17
aa(lp965
I8
aI5
aa(lp966
I8
aI11
aa(lp967
I8
aI17
aa(lp968
I14
aI5
aa(lp969
I14
aI11
aa(lp970
I14
aI17
aaI12
aa(lp971
I-1
a(lp972
I2
aI6
aa(lp973
I2
aI12
aa(lp974
I2
aI18
aa(lp975
I8
aI6
aa(lp976
I8
aI12
aa(lp977
I8
aI18
aa(lp978
I14
aI6
aa(lp979
I14
aI12
aa(lp980
I14
aI18
aaI12
aa(lp981
I-1
a(lp982
I3
aI4
aa(lp983
I3
aI10
aa(lp984
I3
aI16
aa(lp985
I9
aI4
aa(lp986
I9
aI10
aa(lp987
I9
aI16
aa(lp988
I15
aI4
aa(lp989
I15
aI10
aa(lp990
I15
aI16
aaI12
aa(lp991
I-1
a(lp992
I3
aI5
aa(lp993
I3
aI11
aa(lp994
I3
aI17
aa(lp995
I9
aI5
aa(lp996
I9
aI11
aa(lp997
I9
aI17
aa(lp998
I15
aI5
aa(lp999
I15
aI11
aa(lp1000
I15
aI17
aaI12
aa(lp1001
I-1
a(lp1002
I3
aI6
aa(lp1003
I3
aI12
aa(lp1004
I3
aI18
aa(lp1005
I9
aI6
aa(lp1006
I9
aI12
aa(lp1007
I9
aI18
aa(lp1008
I15
aI6
aa(lp1009
I15
aI12
aa(lp1010
I15
aI18
aaI12
aa(lp1011
I-1
a(lp1012
I4
aI4
aa(lp1013
I4
aI10
aa(lp1014
I4
aI16
aa(lp1015
I10
aI4
aa(lp1016
I10
aI10
aa(lp1017
I10
aI16
aa(lp1018
I16
aI4
aa(lp1019
I16
aI10
aa(lp1020
I16
aI16
aaI12
aa(lp1021
I-1
a(lp1022
I-1
aI3
aa(lp1023
I-1
aI10
aa(lp1024
I-1
aI17
aa(lp1025
I6
aI3
aa(lp1026
I6
aI10
aa(lp1027
I6
aI17
aa(lp1028
I13
aI3
aa(lp1029
I13
aI10
aa(lp1030
I13
aI17
aaI14
aa(lp1031
I-1
a(lp1032
I-1
aI4
aa(lp1033
I-1
aI11
aa(lp1034
I-1
aI18
aa(lp1035
I6
aI4
aa(lp1036
I6
aI11
aa(lp1037
I6
aI18
aa(lp1038
I13
aI4
aa(lp1039
I13
aI11
aa(lp1040
I13
aI18
aaI14
aa(lp1041
I-1
a(lp1042
I0
aI3
aa(lp1043
I0
aI10
aa(lp1044
I0
aI17
aa(lp1045
I7
aI3
aa(lp1046
I7
aI10
aa(lp1047
I7
aI17
aa(lp1048
I14
aI3
aa(lp1049
I14
aI10
aa(lp1050
I14
aI17
aaI14
aa(lp1051
I-1
a(lp1052
I0
aI4
aa(lp1053
I0
aI11
aa(lp1054
I0
aI18
aa(lp1055
I7
aI4
aa(lp1056
I7
aI11
aa(lp1057
I7
aI18
aa(lp1058
I14
aI4
aa(lp1059
I14
aI11
aa(lp1060
I14
aI18
aaI14
aa(lp1061
I-1
a(lp1062
I1
aI3
aa(lp1063
I1
aI10
aa(lp1064
I1
aI17
aa(lp1065
I8
aI3
aa(lp1066
I8
aI10
aa(lp1067
I8
aI17
aa(lp1068
I15
aI3
aa(lp1069
I15
aI10
aa(lp1070
I15
aI17
aaI14
aa(lp1071
I-1
a(lp1072
I1
aI4
aa(lp1073
I1
aI11
aa(lp1074
I1
aI18
aa(lp1075
I8
aI4
aa(lp1076
I8
aI11
aa(lp1077
I8
aI18
aa(lp1078
I15
aI4
aa(lp1079
I15
aI11
aa(lp1080
I15
aI18
aaI14
aa(lp1081
I-1
a(lp1082
I2
aI3
aa(lp1083
I2
aI10
aa(lp1084
I2
aI17
aa(lp1085
I9
aI3
aa(lp1086
I9
aI10
aa(lp1087
I9
aI17
aa(lp1088
I16
aI3
aa(lp1089
I16
aI10
aa(lp1090
I16
aI17
aaI14
aa(lp1091
I-1
a(lp1092
I2
aI4
aa(lp1093
I2
aI11
aa(lp1094
I2
aI18
aa(lp1095
I9
aI4
aa(lp1096
I9
aI11
aa(lp1097
I9
aI18
aa(lp1098
I16
aI4
aa(lp1099
I16
aI11
aa(lp1100
I16
aI18
aaI14
aa(lp1101
I-1
a(lp1102
I3
aI3
aa(lp1103
I3
aI10
aa(lp1104
I3
aI17
aa(lp1105
I10
aI3
aa(lp1106
I10
aI10
aa(lp1107
I10
aI17
aa(lp1108
I17
aI3
aa(lp1109
I17
aI10
aa(lp1110
I17
aI17
aaI14
aa(lp1111
I-1
a(lp1112
I-1
aI2
aa(lp1113
I-1
aI10
aa(lp1114
I-1
aI18
aa(lp1115
I7
aI2
aa(lp1116
I7
aI10
aa(lp1117
I7
aI18
aa(lp1118
I15
aI2
aa(lp1119
I15
aI10
aa(lp1120
I15
aI18
aaI16
aa(lp1121
I-1
a(lp1122
I0
aI2
aa(lp1123
I0
aI10
aa(lp1124
I0
aI18
aa(lp1125
I8
aI2
aa(lp1126
I8
aI10
aa(lp1127
I8
aI18
aa(lp1128
I16
aI2
aa(lp1129
I16
aI10
aa(lp1130
I16
aI18
aaI16
aa(lp1131
I-1
a(lp1132
I1
aI2
aa(lp1133
I1
aI10
aa(lp1134
I1
aI18
aa(lp1135
I9
aI2
aa(lp1136
I9
aI10
aa(lp1137
I9
aI18
aa(lp1138
I17
aI2
aa(lp1139
I17
aI10
aa(lp1140
I17
aI18
aaI16
aa.