(lp0
(lp1
I1
a(lp2
I1
aI-1
aa(lp3
I1
aI5
aa(lp4
I1
aI11
aa(lp5
I7
aI-1
aa(lp6
I7
aI5
aa(lp7
I7
aI11
aa(lp8
I13
aI-1
aa(lp9
I13
aI5
aa(lp10
I13
aI11
aaI12
aa(lp11
I1
a(lp12
I2
aI-1
aa(lp13
I2
aI5
aa(lp14
I2
aI11
aa(lp15
I8
aI-1
aa(lp16
I8
aI5
aa(lp17
I8
aI11
aa(lp18
I14
aI-1
aa(lp19
I14
aI5
aa(lp20
I14
aI11
aaI12
aa(lp21
I1
a(lp22
I2
aI0
aa(lp23
I2
aI6
aa(lp24
I2
aI12
aa(lp25
I8
aI0
aa(lp26
I8
aI6
aa(lp27
I8
aI12
aa(lp28
I14
aI0
aa(lp29
I14
aI6
aa(lp30
I14
aI12
aaI12
aa(lp31
I1
a(lp32
I2
aI1
aa(lp33
I2
aI7
aa(lp34
I2
aI13
aa(lp35
I8
aI1
aa(lp36
I8
aI7
aa(lp37
I8
aI13
aa(lp38
I14
aI1
aa(lp39
I14
aI7
aa(lp40
I14
aI13
aaI12
aa(lp41
I1
a(lp42
I3
aI-1
aa(lp43
I3
aI5
aa(lp44
I3
aI11
aa(lp45
I9
aI-1
aa(lp46
I9
aI5
aa(lp47
I9
aI11
aa(lp48
I15
aI-1
aa(lp49
I15
aI5
aa(lp50
I15
aI11
aaI12
aa(lp51
I1
a(lp52
I3
aI1
aa(lp53
I3
aI7
aa(lp54
I3
aI13
aa(lp55
I9
aI1
aa(lp56
I9
aI7
aa(lp57
I9
aI13
aa(lp58
I15
aI1
aa(lp59
I15
aI7
aa(lp60
I15
aI13
aaI12
aa(lp61
I1
a(lp62
I1
aI-1
aa(lp63
I1
aI6
aa(lp64
I1
aI13
aa(lp65
I8
aI-1
aa(lp66
I8
aI6
aa(lp67
I8
aI13
aa(lp68
I15
aI-1
aa(lp69
I15
aI6
aa(lp70
I15
aI13
aaI14
aa(lp71
I1
a(lp72
I1
aI0
aa(lp73
I1
aI7
aa(lp74
I1
aI14
aa(lp75
I8
aI0
aa(lp76
I8
aI7
aa(lp77
I8
aI14
aa(lp78
I15
aI0
aa(lp79
I15
aI7
aa(lp80
I15
aI14
aaI14
aa(lp81
I1
a(lp82
I-1
aI-1
aa(lp83
I-1
aI7
aa(lp84
I-1
aI15
aa(lp85
I7
aI-1
aa(lp86
I7
aI7
aa(lp87
I7
aI15
aa(lp88
I15
aI-1
aa(lp89
I15
aI7
aa(lp90
I15
aI15
aaI16
aa(lp91
I-1
a(lp92
I1
aI4
aa(lp93
I1
aI10
aa(lp94
I1
aI16
aa(lp95
I7
aI4
aa(lp96
I7
aI10
aa(lp97
I7
aI16
aa(lp98
I13
aI4
aa(lp99
I13
aI10
aa(lp100
I13
aI16
aaI12
aa(lp101
I-1
a(lp102
I2
aI4
aa(lp103
I2
aI10
aa(lp104
I2
aI16
aa(lp105
I8
aI4
aa(lp106
I8
aI10
aa(lp107
I8
aI16
aa(lp108
I14
aI4
aa(lp109
I14
aI10
aa(lp110
I14
aI16
aaI12
aa(lp111
I-1
a(lp112
I2
aI5
aa(lp113
I2
aI11
aa(lp114
I2
aI17
aa(lp115
I8
aI5
aa(lp116
I8
aI11
aa(lp117
I8
aI17
aa(lp118
I14
aI5
aa(lp119
I14
aI11
aa(lp120
I14
aI17
aaI12
aa(lp121
I-1
a(lp122
I-1
aI3
aa(lp123
I-1
aI10
aa(lp124
I-1
aI17
aa(lp125
I6
aI3
aa(lp126
I6
aI10
aa(lp127
I6
aI17
aa(lp128
I13
aI3
aa(lp129
I13
aI10
aa(lp130
I13
aI17
aaI14
aa(lp131
I-1
a(lp132
I-1
aI4
aa(lp133
I-1
aI11
aa(lp134
I-1
aI18
aa(lp135
I6
aI4
aa(lp136
I6
aI11
aa(lp137
I6
aI18
aa(lp138
I13
aI4
aa(lp139
I13
aI11
aa(lp140
I13
aI18
aaI14
aa(lp141
I-1
a(lp142
I0
aI3
aa(lp143
I0
aI10
aa(lp144
I0
aI17
aa(lp145
I7
aI3
aa(lp146
I7
aI10
aa(lp147
I7
aI17
aa(lp148
I14
aI3
aa(lp149
I14
aI10
aa(lp150
I14
aI17
aaI14
aa(lp151
I-1
a(lp152
I0
aI4
aa(lp153
I0
aI11
aa(lp154
I0
aI18
aa(lp155
I7
aI4
aa(lp156
I7
aI11
aa(lp157
I7
aI18
aa(lp158
I14
aI4
aa(lp159
I14
aI11
aa(lp160
I14
aI18
aaI14
aa(lp161
I-1
a(lp162
I1
aI3
aa(lp163
I1
aI10
aa(lp164
I1
aI17
aa(lp165
I8
aI3
aa(lp166
I8
aI10
aa(lp167
I8
aI17
aa(lp168
I15
aI3
aa(lp169
I15
aI10
aa(lp170
I15
aI17
aaI14
aa(lp171
I-1
a(lp172
I1
aI4
aa(lp173
I1
aI11
aa(lp174
I1
aI18
aa(lp175
I8
aI4
aa(lp176
I8
aI11
aa(lp177
I8
aI18
aa(lp178
I15
aI4
aa(lp179
I15
aI11
aa(lp180
I15
aI18
aaI14
aa(lp181
I-1
a(lp182
I2
aI3
aa(lp183
I2
aI10
aa(lp184
I2
aI17
aa(lp185
I9
aI3
aa(lp186
I9
aI10
aa(lp187
I9
aI17
aa(lp188
I16
aI3
aa(lp189
I16
aI10
aa(lp190
I16
aI17
aaI14
aa(lp191
I-1
a(lp192
I-1
aI2
aa(lp193
I-1
aI10
aa(lp194
I-1
aI18
aa(lp195
I7
aI2
aa(lp196
I7
aI10
aa(lp197
I7
aI18
aa(lp198
I15
aI2
aa(lp199
I15
aI10
aa(lp200
I15
aI18
aaI16
aa(lp201
I-1
a(lp202
I0
aI2
aa(lp203
I0
aI10
aa(lp204
I0
aI18
aa(lp205
I8
aI2
aa(lp206
I8
aI10
aa(lp207
I8
aI18
aa(lp208
I16
aI2
aa(lp209
I16
aI10
aa(lp210
I16
aI18
aaI16
aa.