(lp0
(lp1
I1
a(lp2
I-1
aI-1
aa(lp3
I-1
aI3
aa(lp4
I-1
aI7
aa(lp5
I3
aI-1
aa(lp6
I3
aI3
aa(lp7
I3
aI7
aa(lp8
I7
aI-1
aa(lp9
I7
aI3
aa(lp10
I7
aI7
aaI8
aa(lp11
I1
a(lp12
I3
aI1
aa(lp13
I3
aI5
aa(lp14
I3
aI9
aa(lp15
I7
aI1
aa(lp16
I7
aI5
aa(lp17
I7
aI9
aa(lp18
I11
aI1
aa(lp19
I11
aI5
aa(lp20
I11
aI9
aaI8
aa(lp21
I1
a(lp22
I2
aI0
aa(lp23
I2
aI5
aa(lp24
I2
aI10
aa(lp25
I7
aI0
aa(lp26
I7
aI5
aa(lp27
I7
aI10
aa(lp28
I12
aI0
aa(lp29
I12
aI5
aa(lp30
I12
aI10
aaI10
aa(lp31
I1
a(lp32
I2
aI1
aa(lp33
I2
aI6
aa(lp34
I2
aI11
aa(lp35
I7
aI1
aa(lp36
I7
aI6
aa(lp37
I7
aI11
aa(lp38
I12
aI1
aa(lp39
I12
aI6
aa(lp40
I12
aI11
aaI10
aa(lp41
I1
a(lp42
I3
aI0
aa(lp43
I3
aI5
aa(lp44
I3
aI10
aa(lp45
I8
aI0
aa(lp46
I8
aI5
aa(lp47
I8
aI10
aa(lp48
I13
aI0
aa(lp49
I13
aI5
aa(lp50
I13
aI10
aaI10
aa(lp51
I1
a(lp52
I3
aI1
aa(lp53
I3
aI6
aa(lp54
I3
aI11
aa(lp55
I8
aI1
aa(lp56
I8
aI6
aa(lp57
I8
aI11
aa(lp58
I13
aI1
aa(lp59
I13
aI6
aa(lp60
I13
aI11
aaI10
aa(lp61
I1
a(lp62
I3
aI2
aa(lp63
I3
aI7
aa(lp64
I3
aI12
aa(lp65
I8
aI2
aa(lp66
I8
aI7
aa(lp67
I8
aI12
aa(lp68
I13
aI2
aa(lp69
I13
aI7
aa(lp70
I13
aI12
aaI10
aa(lp71
I1
a(lp72
I8
aI8
aa(lp73
I8
aI13
aa(lp74
I8
aI18
aa(lp75
I13
aI8
aa(lp76
I13
aI13
aa(lp77
I13
aI18
aa(lp78
I18
aI8
aa(lp79
I18
aI13
aa(lp80
I18
aI18
aaI10
aa(lp81
I1
a(lp82
I1
aI-1
aa(lp83
I1
aI5
aa(lp84
I1
aI11
aa(lp85
I7
aI-1
aa(lp86
I7
aI5
aa(lp87
I7
aI11
aa(lp88
I13
aI-1
aa(lp89
I13
aI5
aa(lp90
I13
aI11
aaI12
aa(lp91
I1
a(lp92
I2
aI-1
aa(lp93
I2
aI5
aa(lp94
I2
aI11
aa(lp95
I8
aI-1
aa(lp96
I8
aI5
aa(lp97
I8
aI11
aa(lp98
I14
aI-1
aa(lp99
I14
aI5
aa(lp100
I14
aI11
aaI12
aa(lp101
I1
a(lp102
I2
aI0
aa(lp103
I2
aI6
aa(lp104
I2
aI12
aa(lp105
I8
aI0
aa(lp106
I8
aI6
aa(lp107
I8
aI12
aa(lp108
I14
aI0
aa(lp109
I14
aI6
aa(lp110
I14
aI12
aaI12
aa(lp111
I1
a(lp112
I2
aI1
aa(lp113
I2
aI7
aa(lp114
I2
aI13
aa(lp115
I8
aI1
aa(lp116
I8
aI7
aa(lp117
I8
aI13
aa(lp118
I14
aI1
aa(lp119
I14
aI7
aa(lp120
I14
aI13
aaI12
aa(lp121
I1
a(lp122
I3
aI-1
aa(lp123
I3
aI5
aa(lp124
I3
aI11
aa(lp125
I9
aI-1
aa(lp126
I9
aI5
aa(lp127
I9
aI11
aa(lp128
I15
aI-1
aa(lp129
I15
aI5
aa(lp130
I15
aI11
aaI12
aa(lp131
I1
a(lp132
I3
aI0
aa(lp133
I3
aI6
aa(lp134
I3
aI12
aa(lp135
I9
aI0
aa(lp136
I9
aI6
aa(lp137
I9
aI12
aa(lp138
I15
aI0
aa(lp139
I15
aI6
aa(lp140
I15
aI12
aaI12
aa(lp141
I1
a(lp142
I3
aI1
aa(lp143
I3
aI7
aa(lp144
I3
aI13
aa(lp145
I9
aI1
aa(lp146
I9
aI7
aa(lp147
I9
aI13
aa(lp148
I15
aI1
aa(lp149
I15
aI7
aa(lp150
I15
aI13
aaI12
aa(lp151
I1
a(lp152
I-1
aI-1
aa(lp153
I-1
aI6
aa(lp154
I-1
aI13
aa(lp155
I6
aI-1
aa(lp156
I6
aI6
aa(lp157
I6
aI13
aa(lp158
I13
aI-1
aa(lp159
I13
aI6
aa(lp160
I13
aI13
aaI14
aa(lp161
I1
a(lp162
I0
aI-1
aa(lp163
I0
aI6
aa(lp164
I0
aI13
aa(lp165
I7
aI-1
aa(lp166
I7
aI6
aa(lp167
I7
aI13
aa(lp168
I14
aI-1
aa(lp169
I14
aI6
aa(lp170
I14
aI13
aaI14
aa(lp171
I1
a(lp172
I0
aI0
aa(lp173
I0
aI7
aa(lp174
I0
aI14
aa(lp175
I7
aI0
aa(lp176
I7
aI7
aa(lp177
I7
aI14
aa(lp178
I14
aI0
aa(lp179
I14
aI7
aa(lp180
I14
aI14
aaI14
aa(lp181
I1
a(lp182
I1
aI-1
aa(lp183
I1
aI6
aa(lp184
I1
aI13
aa(lp185
I8
aI-1
aa(lp186
I8
aI6
aa(lp187
I8
aI13
aa(lp188
I15
aI-1
aa(lp189
I15
aI6
aa(lp190
I15
aI13
aaI14
aa(lp191
I1
a(lp192
I1
aI0
aa(lp193
I1
aI7
aa(lp194
I1
aI14
aa(lp195
I8
aI0
aa(lp196
I8
aI7
aa(lp197
I8
aI14
aa(lp198
I15
aI0
aa(lp199
I15
aI7
aa(lp200
I15
aI14
aaI14
aa(lp201
I1
a(lp202
I2
aI-1
aa(lp203
I2
aI6
aa(lp204
I2
aI13
aa(lp205
I9
aI-1
aa(lp206
I9
aI6
aa(lp207
I9
aI13
aa(lp208
I16
aI-1
aa(lp209
I16
aI6
aa(lp210
I16
aI13
aaI14
aa(lp211
I1
a(lp212
I2
aI0
aa(lp213
I2
aI7
aa(lp214
I2
aI14
aa(lp215
I9
aI0
aa(lp216
I9
aI7
aa(lp217
I9
aI14
aa(lp218
I16
aI0
aa(lp219
I16
aI7
aa(lp220
I16
aI14
aaI14
aa(lp221
I1
a(lp222
I-1
aI-1
aa(lp223
I-1
aI7
aa(lp224
I-1
aI15
aa(lp225
I7
aI-1
aa(lp226
I7
aI7
aa(lp227
I7
aI15
aa(lp228
I15
aI-1
aa(lp229
I15
aI7
aa(lp230
I15
aI15
aaI16
aa(lp231
I1
a(lp232
I0
aI-1
aa(lp233
I0
aI7
aa(lp234
I0
aI15
aa(lp235
I8
aI-1
aa(lp236
I8
aI7
aa(lp237
I8
aI15
aa(lp238
I16
aI-1
aa(lp239
I16
aI7
aa(lp240
I16
aI15
aaI16
aa(lp241
I-1
a(lp242
I1
aI5
aa(lp243
I1
aI10
aa(lp244
I1
aI15
aa(lp245
I6
aI5
aa(lp246
I6
aI10
aa(lp247
I6
aI15
aa(lp248
I11
aI5
aa(lp249
I11
aI10
aa(lp250
I11
aI15
aaI10
aa(lp251
I-1
a(lp252
I2
aI5
aa(lp253
I2
aI10
aa(lp254
I2
aI15
aa(lp255
I7
aI5
aa(lp256
I7
aI10
aa(lp257
I7
aI15
aa(lp258
I12
aI5
aa(lp259
I12
aI10
aa(lp260
I12
aI15
aaI10
aa(lp261
I-1
a(lp262
I0
aI4
aa(lp263
I0
aI10
aa(lp264
I0
aI16
aa(lp265
I6
aI4
aa(lp266
I6
aI10
aa(lp267
I6
aI16
aa(lp268
I12
aI4
aa(lp269
I12
aI10
aa(lp270
I12
aI16
aaI12
aa(lp271
I-1
a(lp272
I1
aI4
aa(lp273
I1
aI10
aa(lp274
I1
aI16
aa(lp275
I7
aI4
aa(lp276
I7
aI10
aa(lp277
I7
aI16
aa(lp278
I13
aI4
aa(lp279
I13
aI10
aa(lp280
I13
aI16
aaI12
aa(lp281
I-1
a(lp282
I1
aI5
aa(lp283
I1
aI11
aa(lp284
I1
aI17
aa(lp285
I7
aI5
aa(lp286
I7
aI11
aa(lp287
I7
aI17
aa(lp288
I13
aI5
aa(lp289
I13
aI11
aa(lp290
I13
aI17
aaI12
aa(lp291
I-1
a(lp292
I2
aI4
aa(lp293
I2
aI10
aa(lp294
I2
aI16
aa(lp295
I8
aI4
aa(lp296
I8
aI10
aa(lp297
I8
aI16
aa(lp298
I14
aI4
aa(lp299
I14
aI10
aa(lp300
I14
aI16
aaI12
aa(lp301
I-1
a(lp302
I2
aI5
aa(lp303
I2
aI11
aa(lp304
I2
aI17
aa(lp305
I8
aI5
aa(lp306
I8
aI11
aa(lp307
I8
aI17
aa(lp308
I14
aI5
aa(lp309
I14
aI11
aa(lp310
I14
aI17
aaI12
aa(lp311
I-1
a(lp312
I2
aI6
aa(lp313
I2
aI12
aa(lp314
I2
aI18
aa(lp315
I8
aI6
aa(lp316
I8
aI12
aa(lp317
I8
aI18
aa(lp318
I14
aI6
aa(lp319
I14
aI12
aa(lp320
I14
aI18
aaI12
aa(lp321
I-1
a(lp322
I3
aI4
aa(lp323
I3
aI10
aa(lp324
I3
aI16
aa(lp325
I9
aI4
aa(lp326
I9
aI10
aa(lp327
I9
aI16
aa(lp328
I15
aI4
aa(lp329
I15
aI10
aa(lp330
I15
aI16
aaI12
aa(lp331
I-1
a(lp332
I3
aI5
aa(lp333
I3
aI11
aa(lp334
I3
aI17
aa(lp335
I9
aI5
aa(lp336
I9
aI11
aa(lp337
I9
aI17
aa(lp338
I15
aI5
aa(lp339
I15
aI11
aa(lp340
I15
aI17
aaI12
aa(lp341
I-1
a(lp342
I-1
aI3
aa(lp343
I-1
aI10
aa(lp344
I-1
aI17
aa(lp345
I6
aI3
aa(lp346
I6
aI10
aa(lp347
I6
aI17
aa(lp348
I13
aI3
aa(lp349
I13
aI10
aa(lp350
I13
aI17
aaI14
aa(lp351
I-1
a(lp352
I-1
aI4
aa(lp353
I-1
aI11
aa(lp354
I-1
aI18
aa(lp355
I6
aI4
aa(lp356
I6
aI11
aa(lp357
I6
aI18
aa(lp358
I13
aI4
aa(lp359
I13
aI11
aa(lp360
I13
aI18
aaI14
aa(lp361
I-1
a(lp362
I0
aI3
aa(lp363
I0
aI10
aa(lp364
I0
aI17
aa(lp365
I7
aI3
aa(lp366
I7
aI10
aa(lp367
I7
aI17
aa(lp368
I14
aI3
aa(lp369
I14
aI10
aa(lp370
I14
aI17
aaI14
aa(lp371
I-1
a(lp372
I0
aI4
aa(lp373
I0
aI11
aa(lp374
I0
aI18
aa(lp375
I7
aI4
aa(lp376
I7
aI11
aa(lp377
I7
aI18
aa(lp378
I14
aI4
aa(lp379
I14
aI11
aa(lp380
I14
aI18
aaI14
aa(lp381
I-1
a(lp382
I1
aI3
aa(lp383
I1
aI10
aa(lp384
I1
aI17
aa(lp385
I8
aI3
aa(lp386
I8
aI10
aa(lp387
I8
aI17
aa(lp388
I15
aI3
aa(lp389
I15
aI10
aa(lp390
I15
aI17
aaI14
aa(lp391
I-1
a(lp392
I1
aI4
aa(lp393
I1
aI11
aa(lp394
I1
aI18
aa(lp395
I8
aI4
aa(lp396
I8
aI11
aa(lp397
I8
aI18
aa(lp398
I15
aI4
aa(lp399
I15
aI11
aa(lp400
I15
aI18
aaI14
aa(lp401
I-1
a(lp402
I2
aI3
aa(lp403
I2
aI10
aa(lp404
I2
aI17
aa(lp405
I9
aI3
aa(lp406
I9
aI10
aa(lp407
I9
aI17
aa(lp408
I16
aI3
aa(lp409
I16
aI10
aa(lp410
I16
aI17
aaI14
aa(lp411
I-1
a(lp412
I2
aI4
aa(lp413
I2
aI11
aa(lp414
I2
aI18
aa(lp415
I9
aI4
aa(lp416
I9
aI11
aa(lp417
I9
aI18
aa(lp418
I16
aI4
aa(lp419
I16
aI11
aa(lp420
I16
aI18
aaI14
aa(lp421
I-1
a(lp422
I-1
aI2
aa(lp423
I-1
aI10
aa(lp424
I-1
aI18
aa(lp425
I7
aI2
aa(lp426
I7
aI10
aa(lp427
I7
aI18
aa(lp428
I15
aI2
aa(lp429
I15
aI10
aa(lp430
I15
aI18
aaI16
aa(lp431
I-1
a(lp432
I0
aI2
aa(lp433
I0
aI10
aa(lp434
I0
aI18
aa(lp435
I8
aI2
aa(lp436
I8
aI10
aa(lp437
I8
aI18
aa(lp438
I16
aI2
aa(lp439
I16
aI10
aa(lp440
I16
aI18
aaI16
aa(lp441
I-1
a(lp442
I1
aI2
aa(lp443
I1
aI10
aa(lp444
I1
aI18
aa(lp445
I9
aI2
aa(lp446
I9
aI10
aa(lp447
I9
aI18
aa(lp448
I17
aI2
aa(lp449
I17
aI10
aa(lp450
I17
aI18
aaI16
aa.