(lp0
(lp1
I1
a(lp2
I-1
aI-1
aa(lp3
I-1
aI2
aa(lp4
I-1
aI5
aa(lp5
I2
aI-1
aa(lp6
I2
aI2
aa(lp7
I2
aI5
aa(lp8
I5
aI-1
aa(lp9
I5
aI2
aa(lp10
I5
aI5
aaI6
aa(lp11
I1
a(lp12
I-1
aI0
aa(lp13
I-1
aI3
aa(lp14
I-1
aI6
aa(lp15
I2
aI0
aa(lp16
I2
aI3
aa(lp17
I2
aI6
aa(lp18
I5
aI0
aa(lp19
I5
aI3
aa(lp20
I5
aI6
aaI6
aa(lp21
I1
a(lp22
I0
aI-1
aa(lp23
I0
aI2
aa(lp24
I0
aI5
aa(lp25
I3
aI-1
aa(lp26
I3
aI2
aa(lp27
I3
aI5
aa(lp28
I6
aI-1
aa(lp29
I6
aI2
aa(lp30
I6
aI5
aaI6
aa(lp31
I1
a(lp32
I3
aI2
aa(lp33
I3
aI5
aa(lp34
I3
aI8
aa(lp35
I6
aI2
aa(lp36
I6
aI5
aa(lp37
I6
aI8
aa(lp38
I9
aI2
aa(lp39
I9
aI5
aa(lp40
I9
aI8
aaI6
aa(lp41
I1
a(lp42
I3
aI3
aa(lp43
I3
aI6
aa(lp44
I3
aI9
aa(lp45
I6
aI3
aa(lp46
I6
aI6
aa(lp47
I6
aI9
aa(lp48
I9
aI3
aa(lp49
I9
aI6
aa(lp50
I9
aI9
aaI6
aa(lp51
I1
a(lp52
I4
aI1
aa(lp53
I4
aI4
aa(lp54
I4
aI7
aa(lp55
I7
aI1
aa(lp56
I7
aI4
aa(lp57
I7
aI7
aa(lp58
I10
aI1
aa(lp59
I10
aI4
aa(lp60
I10
aI7
aaI6
aa(lp61
I1
a(lp62
I4
aI2
aa(lp63
I4
aI5
aa(lp64
I4
aI8
aa(lp65
I7
aI2
aa(lp66
I7
aI5
aa(lp67
I7
aI8
aa(lp68
I10
aI2
aa(lp69
I10
aI5
aa(lp70
I10
aI8
aaI6
aa(lp71
I1
a(lp72
I7
aI4
aa(lp73
I7
aI7
aa(lp74
I7
aI10
aa(lp75
I10
aI4
aa(lp76
I10
aI7
aa(lp77
I10
aI10
aa(lp78
I13
aI4
aa(lp79
I13
aI7
aa(lp80
I13
aI10
aaI6
aa(lp81
I1
a(lp82
I7
aI5
aa(lp83
I7
aI8
aa(lp84
I7
aI11
aa(lp85
I10
aI5
aa(lp86
I10
aI8
aa(lp87
I10
aI11
aa(lp88
I13
aI5
aa(lp89
I13
aI8
aa(lp90
I13
aI11
aaI6
aa(lp91
I1
a(lp92
I12
aI11
aa(lp93
I12
aI14
aa(lp94
I12
aI17
aa(lp95
I15
aI11
aa(lp96
I15
aI14
aa(lp97
I15
aI17
aa(lp98
I18
aI11
aa(lp99
I18
aI14
aa(lp100
I18
aI17
aaI6
aa(lp101
I1
a(lp102
I12
aI12
aa(lp103
I12
aI15
aa(lp104
I12
aI18
aa(lp105
I15
aI12
aa(lp106
I15
aI15
aa(lp107
I15
aI18
aa(lp108
I18
aI12
aa(lp109
I18
aI15
aa(lp110
I18
aI18
aaI6
aa(lp111
I1
a(lp112
I-1
aI-1
aa(lp113
I-1
aI3
aa(lp114
I-1
aI7
aa(lp115
I3
aI-1
aa(lp116
I3
aI3
aa(lp117
I3
aI7
aa(lp118
I7
aI-1
aa(lp119
I7
aI3
aa(lp120
I7
aI7
aaI8
aa(lp121
I1
a(lp122
I-1
aI0
aa(lp123
I-1
aI4
aa(lp124
I-1
aI8
aa(lp125
I3
aI0
aa(lp126
I3
aI4
aa(lp127
I3
aI8
aa(lp128
I7
aI0
aa(lp129
I7
aI4
aa(lp130
I7
aI8
aaI8
aa(lp131
I1
a(lp132
I2
aI1
aa(lp133
I2
aI5
aa(lp134
I2
aI9
aa(lp135
I6
aI1
aa(lp136
I6
aI5
aa(lp137
I6
aI9
aa(lp138
I10
aI1
aa(lp139
I10
aI5
aa(lp140
I10
aI9
aaI8
aa(lp141
I1
a(lp142
I2
aI2
aa(lp143
I2
aI6
aa(lp144
I2
aI10
aa(lp145
I6
aI2
aa(lp146
I6
aI6
aa(lp147
I6
aI10
aa(lp148
I10
aI2
aa(lp149
I10
aI6
aa(lp150
I10
aI10
aaI8
aa(lp151
I1
a(lp152
I3
aI0
aa(lp153
I3
aI4
aa(lp154
I3
aI8
aa(lp155
I7
aI0
aa(lp156
I7
aI4
aa(lp157
I7
aI8
aa(lp158
I11
aI0
aa(lp159
I11
aI4
aa(lp160
I11
aI8
aaI8
aa(lp161
I1
a(lp162
I3
aI1
aa(lp163
I3
aI5
aa(lp164
I3
aI9
aa(lp165
I7
aI1
aa(lp166
I7
aI5
aa(lp167
I7
aI9
aa(lp168
I11
aI1
aa(lp169
I11
aI5
aa(lp170
I11
aI9
aaI8
aa(lp171
I1
a(lp172
I3
aI2
aa(lp173
I3
aI6
aa(lp174
I3
aI10
aa(lp175
I7
aI2
aa(lp176
I7
aI6
aa(lp177
I7
aI10
aa(lp178
I11
aI2
aa(lp179
I11
aI6
aa(lp180
I11
aI10
aaI8
aa(lp181
I1
a(lp182
I3
aI3
aa(lp183
I3
aI7
aa(lp184
I3
aI11
aa(lp185
I7
aI3
aa(lp186
I7
aI7
aa(lp187
I7
aI11
aa(lp188
I11
aI3
aa(lp189
I11
aI7
aa(lp190
I11
aI11
aaI8
aa(lp191
I1
a(lp192
I3
aI4
aa(lp193
I3
aI8
aa(lp194
I3
aI12
aa(lp195
I7
aI4
aa(lp196
I7
aI8
aa(lp197
I7
aI12
aa(lp198
I11
aI4
aa(lp199
I11
aI8
aa(lp200
I11
aI12
aaI8
aa(lp201
I1
a(lp202
I4
aI1
aa(lp203
I4
aI5
aa(lp204
I4
aI9
aa(lp205
I8
aI1
aa(lp206
I8
aI5
aa(lp207
I8
aI9
aa(lp208
I12
aI1
aa(lp209
I12
aI5
aa(lp210
I12
aI9
aaI8
aa(lp211
I1
a(lp212
I4
aI2
aa(lp213
I4
aI6
aa(lp214
I4
aI10
aa(lp215
I8
aI2
aa(lp216
I8
aI6
aa(lp217
I8
aI10
aa(lp218
I12
aI2
aa(lp219
I12
aI6
aa(lp220
I12
aI10
aaI8
aa(lp221
I1
a(lp222
I4
aI3
aa(lp223
I4
aI7
aa(lp224
I4
aI11
aa(lp225
I8
aI3
aa(lp226
I8
aI7
aa(lp227
I8
aI11
aa(lp228
I12
aI3
aa(lp229
I12
aI7
aa(lp230
I12
aI11
aaI8
aa(lp231
I1
a(lp232
I4
aI4
aa(lp233
I4
aI8
aa(lp234
I4
aI12
aa(lp235
I8
aI4
aa(lp236
I8
aI8
aa(lp237
I8
aI12
aa(lp238
I12
aI4
aa(lp239
I12
aI8
aa(lp240
I12
aI12
aaI8
aa(lp241
I1
a(lp242
I5
aI2
aa(lp243
I5
aI6
aa(lp244
I5
aI10
aa(lp245
I9
aI2
aa(lp246
I9
aI6
aa(lp247
I9
aI10
aa(lp248
I13
aI2
aa(lp249
I13
aI6
aa(lp250
I13
aI10
aaI8
aa(lp251
I1
a(lp252
I5
aI3
aa(lp253
I5
aI7
aa(lp254
I5
aI11
aa(lp255
I9
aI3
aa(lp256
I9
aI7
aa(lp257
I9
aI11
aa(lp258
I13
aI3
aa(lp259
I13
aI7
aa(lp260
I13
aI11
aaI8
aa(lp261
I1
a(lp262
I5
aI4
aa(lp263
I5
aI8
aa(lp264
I5
aI12
aa(lp265
I9
aI4
aa(lp266
I9
aI8
aa(lp267
I9
aI12
aa(lp268
I13
aI4
aa(lp269
I13
aI8
aa(lp270
I13
aI12
aaI8
aa(lp271
I1
a(lp272
I6
aI3
aa(lp273
I6
aI7
aa(lp274
I6
aI11
aa(lp275
I10
aI3
aa(lp276
I10
aI7
aa(lp277
I10
aI11
aa(lp278
I14
aI3
aa(lp279
I14
aI7
aa(lp280
I14
aI11
aaI8
aa(lp281
I1
a(lp282
I6
aI4
aa(lp283
I6
aI8
aa(lp284
I6
aI12
aa(lp285
I10
aI4
aa(lp286
I10
aI8
aa(lp287
I10
aI12
aa(lp288
I14
aI4
aa(lp289
I14
aI8
aa(lp290
I14
aI12
aaI8
aa(lp291
I1
a(lp292
I10
aI7
aa(lp293
I10
aI11
aa(lp294
I10
aI15
aa(lp295
I14
aI7
aa(lp296
I14
aI11
aa(lp297
I14
aI15
aa(lp298
I18
aI7
aa(lp299
I18
aI11
aa(lp300
I18
aI15
aaI8
aa(lp301
I1
a(lp302
I10
aI8
aa(lp303
I10
aI12
aa(lp304
I10
aI16
aa(lp305
I14
aI8
aa(lp306
I14
aI12
aa(lp307
I14
aI16
aa(lp308
I18
aI8
aa(lp309
I18
aI12
aa(lp310
I18
aI16
aaI8
aa(lp311
I1
a(lp312
I10
aI9
aa(lp313
I10
aI13
aa(lp314
I10
aI17
aa(lp315
I14
aI9
aa(lp316
I14
aI13
aa(lp317
I14
aI17
aa(lp318
I18
aI9
aa(lp319
I18
aI13
aa(lp320
I18
aI17
aaI8
aa(lp321
I1
a(lp322
I10
aI10
aa(lp323
I10
aI14
aa(lp324
I10
aI18
aa(lp325
I14
aI10
aa(lp326
I14
aI14
aa(lp327
I14
aI18
aa(lp328
I18
aI10
aa(lp329
I18
aI14
aa(lp330
I18
aI18
aaI8
aa(lp331
I1
a(lp332
I-1
aI-1
aa(lp333
I-1
aI4
aa(lp334
I-1
aI9
aa(lp335
I4
aI-1
aa(lp336
I4
aI4
aa(lp337
I4
aI9
aa(lp338
I9
aI-1
aa(lp339
I9
aI4
aa(lp340
I9
aI9
aaI10
aa(lp341
I1
a(lp342
I0
aI-1
aa(lp343
I0
aI4
aa(lp344
I0
aI9
aa(lp345
I5
aI-1
aa(lp346
I5
aI4
aa(lp347
I5
aI9
aa(lp348
I10
aI-1
aa(lp349
I10
aI4
aa(lp350
I10
aI9
aaI10
aa(lp351
I1
a(lp352
I1
aI-1
aa(lp353
I1
aI4
aa(lp354
I1
aI9
aa(lp355
I6
aI-1
aa(lp356
I6
aI4
aa(lp357
I6
aI9
aa(lp358
I11
aI-1
aa(lp359
I11
aI4
aa(lp360
I11
aI9
aaI10
aa(lp361
I1
a(lp362
I1
aI0
aa(lp363
I1
aI5
aa(lp364
I1
aI10
aa(lp365
I6
aI0
aa(lp366
I6
aI5
aa(lp367
I6
aI10
aa(lp368
I11
aI0
aa(lp369
I11
aI5
aa(lp370
I11
aI10
aaI10
aa(lp371
I1
a(lp372
I1
aI1
aa(lp373
I1
aI6
aa(lp374
I1
aI11
aa(lp375
I6
aI1
aa(lp376
I6
aI6
aa(lp377
I6
aI11
aa(lp378
I11
aI1
aa(lp379
I11
aI6
aa(lp380
I11
aI11
aaI10
aa(lp381
I1
a(lp382
I1
aI2
aa(lp383
I1
aI7
aa(lp384
I1
aI12
aa(lp385
I6
aI2
aa(lp386
I6
aI7
aa(lp387
I6
aI12
aa(lp388
I11
aI2
aa(lp389
I11
aI7
aa(lp390
I11
aI12
aaI10
aa(lp391
I1
a(lp392
I2
aI-1
aa(lp393
I2
aI4
aa(lp394
I2
aI9
aa(lp395
I7
aI-1
aa(lp396
I7
aI4
aa(lp397
I7
aI9
aa(lp398
I12
aI-1
aa(lp399
I12
aI4
aa(lp400
I12
aI9
aaI10
aa(lp401
I1
a(lp402
I2
aI0
aa(lp403
I2
aI5
aa(lp404
I2
aI10
aa(lp405
I7
aI0
aa(lp406
I7
aI5
aa(lp407
I7
aI10
aa(lp408
I12
aI0
aa(lp409
I12
aI5
aa(lp410
I12
aI10
aaI10
aa(lp411
I1
a(lp412
I2
aI1
aa(lp413
I2
aI6
aa(lp414
I2
aI11
aa(lp415
I7
aI1
aa(lp416
I7
aI6
aa(lp417
I7
aI11
aa(lp418
I12
aI1
aa(lp419
I12
aI6
aa(lp420
I12
aI11
aaI10
aa(lp421
I1
a(lp422
I2
aI2
aa(lp423
I2
aI7
aa(lp424
I2
aI12
aa(lp425
I7
aI2
aa(lp426
I7
aI7
aa(lp427
I7
aI12
aa(lp428
I12
aI2
aa(lp429
I12
aI7
aa(lp430
I12
aI12
aaI10
aa(lp431
I1
a(lp432
I2
aI3
aa(lp433
I2
aI8
aa(lp434
I2
aI13
aa(lp435
I7
aI3
aa(lp436
I7
aI8
aa(lp437
I7
aI13
aa(lp438
I12
aI3
aa(lp439
I12
aI8
aa(lp440
I12
aI13
aaI10
aa(lp441
I1
a(lp442
I3
aI-1
aa(lp443
I3
aI4
aa(lp444
I3
aI9
aa(lp445
I8
aI-1
aa(lp446
I8
aI4
aa(lp447
I8
aI9
aa(lp448
I13
aI-1
aa(lp449
I13
aI4
aa(lp450
I13
aI9
aaI10
aa(lp451
I1
a(lp452
I3
aI0
aa(lp453
I3
aI5
aa(lp454
I3
aI10
aa(lp455
I8
aI0
aa(lp456
I8
aI5
aa(lp457
I8
aI10
aa(lp458
I13
aI0
aa(lp459
I13
aI5
aa(lp460
I13
aI10
aaI10
aa(lp461
I1
a(lp462
I3
aI1
aa(lp463
I3
aI6
aa(lp464
I3
aI11
aa(lp465
I8
aI1
aa(lp466
I8
aI6
aa(lp467
I8
aI11
aa(lp468
I13
aI1
aa(lp469
I13
aI6
aa(lp470
I13
aI11
aaI10
aa(lp471
I1
a(lp472
I3
aI2
aa(lp473
I3
aI7
aa(lp474
I3
aI12
aa(lp475
I8
aI2
aa(lp476
I8
aI7
aa(lp477
I8
aI12
aa(lp478
I13
aI2
aa(lp479
I13
aI7
aa(lp480
I13
aI12
aaI10
aa(lp481
I1
a(lp482
I3
aI3
aa(lp483
I3
aI8
aa(lp484
I3
aI13
aa(lp485
I8
aI3
aa(lp486
I8
aI8
aa(lp487
I8
aI13
aa(lp488
I13
aI3
aa(lp489
I13
aI8
aa(lp490
I13
aI13
aaI10
aa(lp491
I1
a(lp492
I4
aI-1
aa(lp493
I4
aI4
aa(lp494
I4
aI9
aa(lp495
I9
aI-1
aa(lp496
I9
aI4
aa(lp497
I9
aI9
aa(lp498
I14
aI-1
aa(lp499
I14
aI4
aa(lp500
I14
aI9
aaI10
aa(lp501
I1
a(lp502
I4
aI0
aa(lp503
I4
aI5
aa(lp504
I4
aI10
aa(lp505
I9
aI0
aa(lp506
I9
aI5
aa(lp507
I9
aI10
aa(lp508
I14
aI0
aa(lp509
I14
aI5
aa(lp510
I14
aI10
aaI10
aa(lp511
I1
a(lp512
I4
aI1
aa(lp513
I4
aI6
aa(lp514
I4
aI11
aa(lp515
I9
aI1
aa(lp516
I9
aI6
aa(lp517
I9
aI11
aa(lp518
I14
aI1
aa(lp519
I14
aI6
aa(lp520
I14
aI11
aaI10
aa(lp521
I1
a(lp522
I4
aI2
aa(lp523
I4
aI7
aa(lp524
I4
aI12
aa(lp525
I9
aI2
aa(lp526
I9
aI7
aa(lp527
I9
aI12
aa(lp528
I14
aI2
aa(lp529
I14
aI7
aa(lp530
I14
aI12
aaI10
aa(lp531
I1
a(lp532
I4
aI3
aa(lp533
I4
aI8
aa(lp534
I4
aI13
aa(lp535
I9
aI3
aa(lp536
I9
aI8
aa(lp537
I9
aI13
aa(lp538
I14
aI3
aa(lp539
I14
aI8
aa(lp540
I14
aI13
aaI10
aa(lp541
I1
a(lp542
I5
aI2
aa(lp543
I5
aI7
aa(lp544
I5
aI12
aa(lp545
I10
aI2
aa(lp546
I10
aI7
aa(lp547
I10
aI12
aa(lp548
I15
aI2
aa(lp549
I15
aI7
aa(lp550
I15
aI12
aaI10
aa(lp551
I1
a(lp552
I7
aI8
aa(lp553
I7
aI13
aa(lp554
I7
aI18
aa(lp555
I12
aI8
aa(lp556
I12
aI13
aa(lp557
I12
aI18
aa(lp558
I17
aI8
aa(lp559
I17
aI13
aa(lp560
I17
aI18
aaI10
aa(lp561
I1
a(lp562
I8
aI6
aa(lp563
I8
aI11
aa(lp564
I8
aI16
aa(lp565
I13
aI6
aa(lp566
I13
aI11
aa(lp567
I13
aI16
aa(lp568
I18
aI6
aa(lp569
I18
aI11
aa(lp570
I18
aI16
aaI10
aa(lp571
I1
a(lp572
I8
aI7
aa(lp573
I8
aI12
aa(lp574
I8
aI17
aa(lp575
I13
aI7
aa(lp576
I13
aI12
aa(lp577
I13
aI17
aa(lp578
I18
aI7
aa(lp579
I18
aI12
aa(lp580
I18
aI17
aaI10
aa(lp581
I1
a(lp582
I8
aI8
aa(lp583
I8
aI13
aa(lp584
I8
aI18
aa(lp585
I13
aI8
aa(lp586
I13
aI13
aa(lp587
I13
aI18
aa(lp588
I18
aI8
aa(lp589
I18
aI13
aa(lp590
I18
aI18
aaI10
aa(lp591
I1
a(lp592
I-1
aI-1
aa(lp593
I-1
aI5
aa(lp594
I-1
aI11
aa(lp595
I5
aI-1
aa(lp596
I5
aI5
aa(lp597
I5
aI11
aa(lp598
I11
aI-1
aa(lp599
I11
aI5
aa(lp600
I11
aI11
aaI12
aa(lp601
I1
a(lp602
I0
aI-1
aa(lp603
I0
aI5
aa(lp604
I0
aI11
aa(lp605
I6
aI-1
aa(lp606
I6
aI5
aa(lp607
I6
aI11
aa(lp608
I12
aI-1
aa(lp609
I12
aI5
aa(lp610
I12
aI11
aaI12
aa(lp611
I1
a(lp612
I0
aI0
aa(lp613
I0
aI6
aa(lp614
I0
aI12
aa(lp615
I6
aI0
aa(lp616
I6
aI6
aa(lp617
I6
aI12
aa(lp618
I12
aI0
aa(lp619
I12
aI6
aa(lp620
I12
aI12
aaI12
aa(lp621
I1
a(lp622
I0
aI1
aa(lp623
I0
aI7
aa(lp624
I0
aI13
aa(lp625
I6
aI1
aa(lp626
I6
aI7
aa(lp627
I6
aI13
aa(lp628
I12
aI1
aa(lp629
I12
aI7
aa(lp630
I12
aI13
aaI12
aa(lp631
I1
a(lp632
I1
aI-1
aa(lp633
I1
aI5
aa(lp634
I1
aI11
aa(lp635
I7
aI-1
aa(lp636
I7
aI5
aa(lp637
I7
aI11
aa(lp638
I13
aI-1
aa(lp639
I13
aI5
aa(lp640
I13
aI11
aaI12
aa(lp641
I1
a(lp642
I1
aI0
aa(lp643
I1
aI6
aa(lp644
I1
aI12
aa(lp645
I7
aI0
aa(lp646
I7
aI6
aa(lp647
I7
aI12
aa(lp648
I13
aI0
aa(lp649
I13
aI6
aa(lp650
I13
aI12
aaI12
aa(lp651
I1
a(lp652
I1
aI1
aa(lp653
I1
aI7
aa(lp654
I1
aI13
aa(lp655
I7
aI1
aa(lp656
I7
aI7
aa(lp657
I7
aI13
aa(lp658
I13
aI1
aa(lp659
I13
aI7
aa(lp660
I13
aI13
aaI12
aa(lp661
I1
a(lp662
I1
aI2
aa(lp663
I1
aI8
aa(lp664
I1
aI14
aa(lp665
I7
aI2
aa(lp666
I7
aI8
aa(lp667
I7
aI14
aa(lp668
I13
aI2
aa(lp669
I13
aI8
aa(lp670
I13
aI14
aaI12
aa(lp671
I1
a(lp672
I2
aI-1
aa(lp673
I2
aI5
aa(lp674
I2
aI11
aa(lp675
I8
aI-1
aa(lp676
I8
aI5
aa(lp677
I8
aI11
aa(lp678
I14
aI-1
aa(lp679
I14
aI5
aa(lp680
I14
aI11
aaI12
aa(lp681
I1
a(lp682
I2
aI0
aa(lp683
I2
aI6
aa(lp684
I2
aI12
aa(lp685
I8
aI0
aa(lp686
I8
aI6
aa(lp687
I8
aI12
aa(lp688
I14
aI0
aa(lp689
I14
aI6
aa(lp690
I14
aI12
aaI12
aa(lp691
I1
a(lp692
I2
aI1
aa(lp693
I2
aI7
aa(lp694
I2
aI13
aa(lp695
I8
aI1
aa(lp696
I8
aI7
aa(lp697
I8
aI13
aa(lp698
I14
aI1
aa(lp699
I14
aI7
aa(lp700
I14
aI13
aaI12
aa(lp701
I1
a(lp702
I2
aI2
aa(lp703
I2
aI8
aa(lp704
I2
aI14
aa(lp705
I8
aI2
aa(lp706
I8
aI8
aa(lp707
I8
aI14
aa(lp708
I14
aI2
aa(lp709
I14
aI8
aa(lp710
I14
aI14
aaI12
aa(lp711
I1
a(lp712
I3
aI-1
aa(lp713
I3
aI5
aa(lp714
I3
aI11
aa(lp715
I9
aI-1
aa(lp716
I9
aI5
aa(lp717
I9
aI11
aa(lp718
I15
aI-1
aa(lp719
I15
aI5
aa(lp720
I15
aI11
aaI12
aa(lp721
I1
a(lp722
I3
aI0
aa(lp723
I3
aI6
aa(lp724
I3
aI12
aa(lp725
I9
aI0
aa(lp726
I9
aI6
aa(lp727
I9
aI12
aa(lp728
I15
aI0
aa(lp729
I15
aI6
aa(lp730
I15
aI12
aaI12
aa(lp731
I1
a(lp732
I3
aI1
aa(lp733
I3
aI7
aa(lp734
I3
aI13
aa(lp735
I9
aI1
aa(lp736
I9
aI7
aa(lp737
I9
aI13
aa(lp738
I15
aI1
aa(lp739
I15
aI7
aa(lp740
I15
aI13
aaI12
aa(lp741
I1
a(lp742
I3
aI2
aa(lp743
I3
aI8
aa(lp744
I3
aI14
aa(lp745
I9
aI2
aa(lp746
I9
aI8
aa(lp747
I9
aI14
aa(lp748
I15
aI2
aa(lp749
I15
aI8
aa(lp750
I15
aI14
aaI12
aa(lp751
I1
a(lp752
I4
aI-1
aa(lp753
I4
aI5
aa(lp754
I4
aI11
aa(lp755
I10
aI-1
aa(lp756
I10
aI5
aa(lp757
I10
aI11
aa(lp758
I16
aI-1
aa(lp759
I16
aI5
aa(lp760
I16
aI11
aaI12
aa(lp761
I1
a(lp762
I4
aI0
aa(lp763
I4
aI6
aa(lp764
I4
aI12
aa(lp765
I10
aI0
aa(lp766
I10
aI6
aa(lp767
I10
aI12
aa(lp768
I16
aI0
aa(lp769
I16
aI6
aa(lp770
I16
aI12
aaI12
aa(lp771
I1
a(lp772
I4
aI1
aa(lp773
I4
aI7
aa(lp774
I4
aI13
aa(lp775
I10
aI1
aa(lp776
I10
aI7
aa(lp777
I10
aI13
aa(lp778
I16
aI1
aa(lp779
I16
aI7
aa(lp780
I16
aI13
aaI12
aa(lp781
I1
a(lp782
I4
aI2
aa(lp783
I4
aI8
aa(lp784
I4
aI14
aa(lp785
I10
aI2
aa(lp786
I10
aI8
aa(lp787
I10
aI14
aa(lp788
I16
aI2
aa(lp789
I16
aI8
aa(lp790
I16
aI14
aaI12
aa(lp791
I1
a(lp792
I6
aI5
aa(lp793
I6
aI11
aa(lp794
I6
aI17
aa(lp795
I12
aI5
aa(lp796
I12
aI11
aa(lp797
I12
aI17
aa(lp798
I18
aI5
aa(lp799
I18
aI11
aa(lp800
I18
aI17
aaI12
aa(lp801
I1
a(lp802
I6
aI6
aa(lp803
I6
aI12
aa(lp804
I6
aI18
aa(lp805
I12
aI6
aa(lp806
I12
aI12
aa(lp807
I12
aI18
aa(lp808
I18
aI6
aa(lp809
I18
aI12
aa(lp810
I18
aI18
aaI12
aa(lp811
I1
a(lp812
I-1
aI-1
aa(lp813
I-1
aI6
aa(lp814
I-1
aI13
aa(lp815
I6
aI-1
aa(lp816
I6
aI6
aa(lp817
I6
aI13
aa(lp818
I13
aI-1
aa(lp819
I13
aI6
aa(lp820
I13
aI13
aaI14
aa(lp821
I1
a(lp822
I-1
aI0
aa(lp823
I-1
aI7
aa(lp824
I-1
aI14
aa(lp825
I6
aI0
aa(lp826
I6
aI7
aa(lp827
I6
aI14
aa(lp828
I13
aI0
aa(lp829
I13
aI7
aa(lp830
I13
aI14
aaI14
aa(lp831
I1
a(lp832
I0
aI-1
aa(lp833
I0
aI6
aa(lp834
I0
aI13
aa(lp835
I7
aI-1
aa(lp836
I7
aI6
aa(lp837
I7
aI13
aa(lp838
I14
aI-1
aa(lp839
I14
aI6
aa(lp840
I14
aI13
aaI14
aa(lp841
I1
a(lp842
I0
aI0
aa(lp843
I0
aI7
aa(lp844
I0
aI14
aa(lp845
I7
aI0
aa(lp846
I7
aI7
aa(lp847
I7
aI14
aa(lp848
I14
aI0
aa(lp849
I14
aI7
aa(lp850
I14
aI14
aaI14
aa(lp851
I1
a(lp852
I0
aI1
aa(lp853
I0
aI8
aa(lp854
I0
aI15
aa(lp855
I7
aI1
aa(lp856
I7
aI8
aa(lp857
I7
aI15
aa(lp858
I14
aI1
aa(lp859
I14
aI8
aa(lp860
I14
aI15
aaI14
aa(lp861
I1
a(lp862
I1
aI-1
aa(lp863
I1
aI6
aa(lp864
I1
aI13
aa(lp865
I8
aI-1
aa(lp866
I8
aI6
aa(lp867
I8
aI13
aa(lp868
I15
aI-1
aa(lp869
I15
aI6
aa(lp870
I15
aI13
aaI14
aa(lp871
I1
a(lp872
I1
aI0
aa(lp873
I1
aI7
aa(lp874
I1
aI14
aa(lp875
I8
aI0
aa(lp876
I8
aI7
aa(lp877
I8
aI14
aa(lp878
I15
aI0
aa(lp879
I15
aI7
aa(lp880
I15
aI14
aaI14
aa(lp881
I1
a(lp882
I1
aI1
aa(lp883
I1
aI8
aa(lp884
I1
aI15
aa(lp885
I8
aI1
aa(lp886
I8
aI8
aa(lp887
I8
aI15
aa(lp888
I15
aI1
aa(lp889
I15
aI8
aa(lp890
I15
aI15
aaI14
aa(lp891
I1
a(lp892
I2
aI-1
aa(lp893
I2
aI6
aa(lp894
I2
aI13
aa(lp895
I9
aI-1
aa(lp896
I9
aI6
aa(lp897
I9
aI13
aa(lp898
I16
aI-1
aa(lp899
I16
aI6
aa(lp900
I16
aI13
aaI14
aa(lp901
I1
a(lp902
I2
aI0
aa(lp903
I2
aI7
aa(lp904
I2
aI14
aa(lp905
I9
aI0
aa(lp906
I9
aI7
aa(lp907
I9
aI14
aa(lp908
I16
aI0
aa(lp909
I16
aI7
aa(lp910
I16
aI14
aaI14
aa(lp911
I1
a(lp912
I2
aI1
aa(lp913
I2
aI8
aa(lp914
I2
aI15
aa(lp915
I9
aI1
aa(lp916
I9
aI8
aa(lp917
I9
aI15
aa(lp918
I16
aI1
aa(lp919
I16
aI8
aa(lp920
I16
aI15
aaI14
aa(lp921
I1
a(lp922
I3
aI-1
aa(lp923
I3
aI6
aa(lp924
I3
aI13
aa(lp925
I10
aI-1
aa(lp926
I10
aI6
aa(lp927
I10
aI13
aa(lp928
I17
aI-1
aa(lp929
I17
aI6
aa(lp930
I17
aI13
aaI14
aa(lp931
I1
a(lp932
I3
aI0
aa(lp933
I3
aI7
aa(lp934
I3
aI14
aa(lp935
I10
aI0
aa(lp936
I10
aI7
aa(lp937
I10
aI14
aa(lp938
I17
aI0
aa(lp939
I17
aI7
aa(lp940
I17
aI14
aaI14
aa(lp941
I1
a(lp942
I3
aI1
aa(lp943
I3
aI8
aa(lp944
I3
aI15
aa(lp945
I10
aI1
aa(lp946
I10
aI8
aa(lp947
I10
aI15
aa(lp948
I17
aI1
aa(lp949
I17
aI8
aa(lp950
I17
aI15
aaI14
aa(lp951
I1
a(lp952
I-1
aI-1
aa(lp953
I-1
aI7
aa(lp954
I-1
aI15
aa(lp955
I7
aI-1
aa(lp956
I7
aI7
aa(lp957
I7
aI15
aa(lp958
I15
aI-1
aa(lp959
I15
aI7
aa(lp960
I15
aI15
aaI16
aa(lp961
I1
a(lp962
I-1
aI0
aa(lp963
I-1
aI8
aa(lp964
I-1
aI16
aa(lp965
I7
aI0
aa(lp966
I7
aI8
aa(lp967
I7
aI16
aa(lp968
I15
aI0
aa(lp969
I15
aI8
aa(lp970
I15
aI16
aaI16
aa(lp971
I1
a(lp972
I0
aI-1
aa(lp973
I0
aI7
aa(lp974
I0
aI15
aa(lp975
I8
aI-1
aa(lp976
I8
aI7
aa(lp977
I8
aI15
aa(lp978
I16
aI-1
aa(lp979
I16
aI7
aa(lp980
I16
aI15
aaI16
aa(lp981
I1
a(lp982
I0
aI0
aa(lp983
I0
aI8
aa(lp984
I0
aI16
aa(lp985
I8
aI0
aa(lp986
I8
aI8
aa(lp987
I8
aI16
aa(lp988
I16
aI0
aa(lp989
I16
aI8
aa(lp990
I16
aI16
aaI16
aa(lp991
I1
a(lp992
I1
aI-1
aa(lp993
I1
aI7
aa(lp994
I1
aI15
aa(lp995
I9
aI-1
aa(lp996
I9
aI7
aa(lp997
I9
aI15
aa(lp998
I17
aI-1
aa(lp999
I17
aI7
aa(lp1000
I17
aI15
aaI16
aa(lp1001
I1
a(lp1002
I1
aI0
aa(lp1003
I1
aI8
aa(lp1004
I1
aI16
aa(lp1005
I9
aI0
aa(lp1006
I9
aI8
aa(lp1007
I9
aI16
aa(lp1008
I17
aI0
aa(lp1009
I17
aI8
aa(lp1010
I17
aI16
aaI16
aa(lp1011
I1
a(lp1012
I2
aI-1
aa(lp1013
I2
aI7
aa(lp1014
I2
aI15
aa(lp1015
I10
aI-1
aa(lp1016
I10
aI7
aa(lp1017
I10
aI15
aa(lp1018
I18
aI-1
aa(lp1019
I18
aI7
aa(lp1020
I18
aI15
aaI16
aa(lp1021
I1
a(lp1022
I2
aI0
aa(lp1023
I2
aI8
aa(lp1024
I2
aI16
aa(lp1025
I10
aI0
aa(lp1026
I10
aI8
aa(lp1027
I10
aI16
aa(lp1028
I18
aI0
aa(lp1029
I18
aI8
aa(lp1030
I18
aI16
aaI16
aa(lp1031
I1
a(lp1032
I-1
aI-1
aa(lp1033
I-1
aI8
aa(lp1034
I-1
aI17
aa(lp1035
I8
aI-1
aa(lp1036
I8
aI8
aa(lp1037
I8
aI17
aa(lp1038
I17
aI-1
aa(lp1039
I17
aI8
aa(lp1040
I17
aI17
aaI18
aa(lp1041
I1
a(lp1042
I0
aI-1
aa(lp1043
I0
aI8
aa(lp1044
I0
aI17
aa(lp1045
I9
aI-1
aa(lp1046
I9
aI8
aa(lp1047
I9
aI17
aa(lp1048
I18
aI-1
aa(lp1049
I18
aI8
aa(lp1050
I18
aI17
aaI18
aa(lp1051
I-1
a(lp1052
I-1
aI4
aa(lp1053
I-1
aI7
aa(lp1054
I-1
aI10
aa(lp1055
I2
aI4
aa(lp1056
I2
aI7
aa(lp1057
I2
aI10
aa(lp1058
I5
aI4
aa(lp1059
I5
aI7
aa(lp1060
I5
aI10
aaI6
aa(lp1061
I-1
a(lp1062
I-1
aI5
aa(lp1063
I-1
aI8
aa(lp1064
I-1
aI11
aa(lp1065
I2
aI5
aa(lp1066
I2
aI8
aa(lp1067
I2
aI11
aa(lp1068
I5
aI5
aa(lp1069
I5
aI8
aa(lp1070
I5
aI11
aaI6
aa(lp1071
I-1
a(lp1072
I-1
aI12
aa(lp1073
I-1
aI15
aa(lp1074
I-1
aI18
aa(lp1075
I2
aI12
aa(lp1076
I2
aI15
aa(lp1077
I2
aI18
aa(lp1078
I5
aI12
aa(lp1079
I5
aI15
aa(lp1080
I5
aI18
aaI6
aa(lp1081
I-1
a(lp1082
I0
aI5
aa(lp1083
I0
aI8
aa(lp1084
I0
aI11
aa(lp1085
I3
aI5
aa(lp1086
I3
aI8
aa(lp1087
I3
aI11
aa(lp1088
I6
aI5
aa(lp1089
I6
aI8
aa(lp1090
I6
aI11
aaI6
aa(lp1091
I-1
a(lp1092
I3
aI-1
aa(lp1093
I3
aI2
aa(lp1094
I3
aI5
aa(lp1095
I6
aI-1
aa(lp1096
I6
aI2
aa(lp1097
I6
aI5
aa(lp1098
I9
aI-1
aa(lp1099
I9
aI2
aa(lp1100
I9
aI5
aaI6
aa(lp1101
I-1
a(lp1102
I12
aI-1
aa(lp1103
I12
aI2
aa(lp1104
I12
aI5
aa(lp1105
I15
aI-1
aa(lp1106
I15
aI2
aa(lp1107
I15
aI5
aa(lp1108
I18
aI-1
aa(lp1109
I18
aI2
aa(lp1110
I18
aI5
aaI6
aa(lp1111
I-1
a(lp1112
I12
aI0
aa(lp1113
I12
aI3
aa(lp1114
I12
aI6
aa(lp1115
I15
aI0
aa(lp1116
I15
aI3
aa(lp1117
I15
aI6
aa(lp1118
I18
aI0
aa(lp1119
I18
aI3
aa(lp1120
I18
aI6
aaI6
aa(lp1121
I-1
a(lp1122
I12
aI1
aa(lp1123
I12
aI4
aa(lp1124
I12
aI7
aa(lp1125
I15
aI1
aa(lp1126
I15
aI4
aa(lp1127
I15
aI7
aa(lp1128
I18
aI1
aa(lp1129
I18
aI4
aa(lp1130
I18
aI7
aaI6
aa(lp1131
I-1
a(lp1132
I-1
aI3
aa(lp1133
I-1
aI7
aa(lp1134
I-1
aI11
aa(lp1135
I3
aI3
aa(lp1136
I3
aI7
aa(lp1137
I3
aI11
aa(lp1138
I7
aI3
aa(lp1139
I7
aI7
aa(lp1140
I7
aI11
aaI8
aa(lp1141
I-1
a(lp1142
I-1
aI4
aa(lp1143
I-1
aI8
aa(lp1144
I-1
aI12
aa(lp1145
I3
aI4
aa(lp1146
I3
aI8
aa(lp1147
I3
aI12
aa(lp1148
I7
aI4
aa(lp1149
I7
aI8
aa(lp1150
I7
aI12
aaI8
aa(lp1151
I-1
a(lp1152
I-1
aI10
aa(lp1153
I-1
aI14
aa(lp1154
I-1
aI18
aa(lp1155
I3
aI10
aa(lp1156
I3
aI14
aa(lp1157
I3
aI18
aa(lp1158
I7
aI10
aa(lp1159
I7
aI14
aa(lp1160
I7
aI18
aaI8
aa(lp1161
I-1
a(lp1162
I1
aI6
aa(lp1163
I1
aI10
aa(lp1164
I1
aI14
aa(lp1165
I5
aI6
aa(lp1166
I5
aI10
aa(lp1167
I5
aI14
aa(lp1168
I9
aI6
aa(lp1169
I9
aI10
aa(lp1170
I9
aI14
aaI8
aa(lp1171
I-1
a(lp1172
I2
aI6
aa(lp1173
I2
aI10
aa(lp1174
I2
aI14
aa(lp1175
I6
aI6
aa(lp1176
I6
aI10
aa(lp1177
I6
aI14
aa(lp1178
I10
aI6
aa(lp1179
I10
aI10
aa(lp1180
I10
aI14
aaI8
aa(lp1181
I-1
a(lp1182
I2
aI7
aa(lp1183
I2
aI11
aa(lp1184
I2
aI15
aa(lp1185
I6
aI7
aa(lp1186
I6
aI11
aa(lp1187
I6
aI15
aa(lp1188
I10
aI7
aa(lp1189
I10
aI11
aa(lp1190
I10
aI15
aaI8
aa(lp1191
I-1
a(lp1192
I3
aI6
aa(lp1193
I3
aI10
aa(lp1194
I3
aI14
aa(lp1195
I7
aI6
aa(lp1196
I7
aI10
aa(lp1197
I7
aI14
aa(lp1198
I11
aI6
aa(lp1199
I11
aI10
aa(lp1200
I11
aI14
aaI8
aa(lp1201
I-1
a(lp1202
I3
aI7
aa(lp1203
I3
aI11
aa(lp1204
I3
aI15
aa(lp1205
I7
aI7
aa(lp1206
I7
aI11
aa(lp1207
I7
aI15
aa(lp1208
I11
aI7
aa(lp1209
I11
aI11
aa(lp1210
I11
aI15
aaI8
aa(lp1211
I-1
a(lp1212
I3
aI8
aa(lp1213
I3
aI12
aa(lp1214
I3
aI16
aa(lp1215
I7
aI8
aa(lp1216
I7
aI12
aa(lp1217
I7
aI16
aa(lp1218
I11
aI8
aa(lp1219
I11
aI12
aa(lp1220
I11
aI16
aaI8
aa(lp1221
I-1
a(lp1222
I4
aI6
aa(lp1223
I4
aI10
aa(lp1224
I4
aI14
aa(lp1225
I8
aI6
aa(lp1226
I8
aI10
aa(lp1227
I8
aI14
aa(lp1228
I12
aI6
aa(lp1229
I12
aI10
aa(lp1230
I12
aI14
aaI8
aa(lp1231
I-1
a(lp1232
I4
aI7
aa(lp1233
I4
aI11
aa(lp1234
I4
aI15
aa(lp1235
I8
aI7
aa(lp1236
I8
aI11
aa(lp1237
I8
aI15
aa(lp1238
I12
aI7
aa(lp1239
I12
aI11
aa(lp1240
I12
aI15
aaI8
aa(lp1241
I-1
a(lp1242
I4
aI8
aa(lp1243
I4
aI12
aa(lp1244
I4
aI16
aa(lp1245
I8
aI8
aa(lp1246
I8
aI12
aa(lp1247
I8
aI16
aa(lp1248
I12
aI8
aa(lp1249
I12
aI12
aa(lp1250
I12
aI16
aaI8
aa(lp1251
I-1
a(lp1252
I5
aI6
aa(lp1253
I5
aI10
aa(lp1254
I5
aI14
aa(lp1255
I9
aI6
aa(lp1256
I9
aI10
aa(lp1257
I9
aI14
aa(lp1258
I13
aI6
aa(lp1259
I13
aI10
aa(lp1260
I13
aI14
aaI8
aa(lp1261
I-1
a(lp1262
I10
aI-1
aa(lp1263
I10
aI3
aa(lp1264
I10
aI7
aa(lp1265
I14
aI-1
aa(lp1266
I14
aI3
aa(lp1267
I14
aI7
aa(lp1268
I18
aI-1
aa(lp1269
I18
aI3
aa(lp1270
I18
aI7
aaI8
aa(lp1271
I-1
a(lp1272
I10
aI0
aa(lp1273
I10
aI4
aa(lp1274
I10
aI8
aa(lp1275
I14
aI0
aa(lp1276
I14
aI4
aa(lp1277
I14
aI8
aa(lp1278
I18
aI0
aa(lp1279
I18
aI4
aa(lp1280
I18
aI8
aaI8
aa(lp1281
I-1
a(lp1282
I10
aI1
aa(lp1283
I10
aI5
aa(lp1284
I10
aI9
aa(lp1285
I14
aI1
aa(lp1286
I14
aI5
aa(lp1287
I14
aI9
aa(lp1288
I18
aI1
aa(lp1289
I18
aI5
aa(lp1290
I18
aI9
aaI8
aa(lp1291
I-1
a(lp1292
I10
aI2
aa(lp1293
I10
aI6
aa(lp1294
I10
aI10
aa(lp1295
I14
aI2
aa(lp1296
I14
aI6
aa(lp1297
I14
aI10
aa(lp1298
I18
aI2
aa(lp1299
I18
aI6
aa(lp1300
I18
aI10
aaI8
aa(lp1301
I-1
a(lp1302
I0
aI4
aa(lp1303
I0
aI9
aa(lp1304
I0
aI14
aa(lp1305
I5
aI4
aa(lp1306
I5
aI9
aa(lp1307
I5
aI14
aa(lp1308
I10
aI4
aa(lp1309
I10
aI9
aa(lp1310
I10
aI14
aaI10
aa(lp1311
I-1
a(lp1312
I0
aI5
aa(lp1313
I0
aI10
aa(lp1314
I0
aI15
aa(lp1315
I5
aI5
aa(lp1316
I5
aI10
aa(lp1317
I5
aI15
aa(lp1318
I10
aI5
aa(lp1319
I10
aI10
aa(lp1320
I10
aI15
aaI10
aa(lp1321
I-1
a(lp1322
I1
aI5
aa(lp1323
I1
aI10
aa(lp1324
I1
aI15
aa(lp1325
I6
aI5
aa(lp1326
I6
aI10
aa(lp1327
I6
aI15
aa(lp1328
I11
aI5
aa(lp1329
I11
aI10
aa(lp1330
I11
aI15
aaI10
aa(lp1331
I-1
a(lp1332
I1
aI6
aa(lp1333
I1
aI11
aa(lp1334
I1
aI16
aa(lp1335
I6
aI6
aa(lp1336
I6
aI11
aa(lp1337
I6
aI16
aa(lp1338
I11
aI6
aa(lp1339
I11
aI11
aa(lp1340
I11
aI16
aaI10
aa(lp1341
I-1
a(lp1342
I2
aI5
aa(lp1343
I2
aI10
aa(lp1344
I2
aI15
aa(lp1345
I7
aI5
aa(lp1346
I7
aI10
aa(lp1347
I7
aI15
aa(lp1348
I12
aI5
aa(lp1349
I12
aI10
aa(lp1350
I12
aI15
aaI10
aa(lp1351
I-1
a(lp1352
I2
aI6
aa(lp1353
I2
aI11
aa(lp1354
I2
aI16
aa(lp1355
I7
aI6
aa(lp1356
I7
aI11
aa(lp1357
I7
aI16
aa(lp1358
I12
aI6
aa(lp1359
I12
aI11
aa(lp1360
I12
aI16
aaI10
aa(lp1361
I-1
a(lp1362
I2
aI7
aa(lp1363
I2
aI12
aa(lp1364
I2
aI17
aa(lp1365
I7
aI7
aa(lp1366
I7
aI12
aa(lp1367
I7
aI17
aa(lp1368
I12
aI7
aa(lp1369
I12
aI12
aa(lp1370
I12
aI17
aaI10
aa(lp1371
I-1
a(lp1372
I3
aI5
aa(lp1373
I3
aI10
aa(lp1374
I3
aI15
aa(lp1375
I8
aI5
aa(lp1376
I8
aI10
aa(lp1377
I8
aI15
aa(lp1378
I13
aI5
aa(lp1379
I13
aI10
aa(lp1380
I13
aI15
aaI10
aa(lp1381
I-1
a(lp1382
I3
aI6
aa(lp1383
I3
aI11
aa(lp1384
I3
aI16
aa(lp1385
I8
aI6
aa(lp1386
I8
aI11
aa(lp1387
I8
aI16
aa(lp1388
I13
aI6
aa(lp1389
I13
aI11
aa(lp1390
I13
aI16
aaI10
aa(lp1391
I-1
a(lp1392
I3
aI7
aa(lp1393
I3
aI12
aa(lp1394
I3
aI17
aa(lp1395
I8
aI7
aa(lp1396
I8
aI12
aa(lp1397
I8
aI17
aa(lp1398
I13
aI7
aa(lp1399
I13
aI12
aa(lp1400
I13
aI17
aaI10
aa(lp1401
I-1
a(lp1402
I3
aI8
aa(lp1403
I3
aI13
aa(lp1404
I3
aI18
aa(lp1405
I8
aI8
aa(lp1406
I8
aI13
aa(lp1407
I8
aI18
aa(lp1408
I13
aI8
aa(lp1409
I13
aI13
aa(lp1410
I13
aI18
aaI10
aa(lp1411
I-1
a(lp1412
I4
aI5
aa(lp1413
I4
aI10
aa(lp1414
I4
aI15
aa(lp1415
I9
aI5
aa(lp1416
I9
aI10
aa(lp1417
I9
aI15
aa(lp1418
I14
aI5
aa(lp1419
I14
aI10
aa(lp1420
I14
aI15
aaI10
aa(lp1421
I-1
a(lp1422
I4
aI6
aa(lp1423
I4
aI11
aa(lp1424
I4
aI16
aa(lp1425
I9
aI6
aa(lp1426
I9
aI11
aa(lp1427
I9
aI16
aa(lp1428
I14
aI6
aa(lp1429
I14
aI11
aa(lp1430
I14
aI16
aaI10
aa(lp1431
I-1
a(lp1432
I4
aI7
aa(lp1433
I4
aI12
aa(lp1434
I4
aI17
aa(lp1435
I9
aI7
aa(lp1436
I9
aI12
aa(lp1437
I9
aI17
aa(lp1438
I14
aI7
aa(lp1439
I14
aI12
aa(lp1440
I14
aI17
aaI10
aa(lp1441
I-1
a(lp1442
I4
aI8
aa(lp1443
I4
aI13
aa(lp1444
I4
aI18
aa(lp1445
I9
aI8
aa(lp1446
I9
aI13
aa(lp1447
I9
aI18
aa(lp1448
I14
aI8
aa(lp1449
I14
aI13
aa(lp1450
I14
aI18
aaI10
aa(lp1451
I-1
a(lp1452
I8
aI-1
aa(lp1453
I8
aI4
aa(lp1454
I8
aI9
aa(lp1455
I13
aI-1
aa(lp1456
I13
aI4
aa(lp1457
I13
aI9
aa(lp1458
I18
aI-1
aa(lp1459
I18
aI4
aa(lp1460
I18
aI9
aaI10
aa(lp1461
I-1
a(lp1462
I8
aI0
aa(lp1463
I8
aI5
aa(lp1464
I8
aI10
aa(lp1465
I13
aI0
aa(lp1466
I13
aI5
aa(lp1467
I13
aI10
aa(lp1468
I18
aI0
aa(lp1469
I18
aI5
aa(lp1470
I18
aI10
aaI10
aa(lp1471
I-1
a(lp1472
I8
aI1
aa(lp1473
I8
aI6
aa(lp1474
I8
aI11
aa(lp1475
I13
aI1
aa(lp1476
I13
aI6
aa(lp1477
I13
aI11
aa(lp1478
I18
aI1
aa(lp1479
I18
aI6
aa(lp1480
I18
aI11
aaI10
aa(lp1481
I-1
a(lp1482
I-1
aI3
aa(lp1483
I-1
aI9
aa(lp1484
I-1
aI15
aa(lp1485
I5
aI3
aa(lp1486
I5
aI9
aa(lp1487
I5
aI15
aa(lp1488
I11
aI3
aa(lp1489
I11
aI9
aa(lp1490
I11
aI15
aaI12
aa(lp1491
I-1
a(lp1492
I-1
aI4
aa(lp1493
I-1
aI10
aa(lp1494
I-1
aI16
aa(lp1495
I5
aI4
aa(lp1496
I5
aI10
aa(lp1497
I5
aI16
aa(lp1498
I11
aI4
aa(lp1499
I11
aI10
aa(lp1500
I11
aI16
aaI12
aa(lp1501
I-1
a(lp1502
I-1
aI5
aa(lp1503
I-1
aI11
aa(lp1504
I-1
aI17
aa(lp1505
I5
aI5
aa(lp1506
I5
aI11
aa(lp1507
I5
aI17
aa(lp1508
I11
aI5
aa(lp1509
I11
aI11
aa(lp1510
I11
aI17
aaI12
aa(lp1511
I-1
a(lp1512
I0
aI3
aa(lp1513
I0
aI9
aa(lp1514
I0
aI15
aa(lp1515
I6
aI3
aa(lp1516
I6
aI9
aa(lp1517
I6
aI15
aa(lp1518
I12
aI3
aa(lp1519
I12
aI9
aa(lp1520
I12
aI15
aaI12
aa(lp1521
I-1
a(lp1522
I0
aI4
aa(lp1523
I0
aI10
aa(lp1524
I0
aI16
aa(lp1525
I6
aI4
aa(lp1526
I6
aI10
aa(lp1527
I6
aI16
aa(lp1528
I12
aI4
aa(lp1529
I12
aI10
aa(lp1530
I12
aI16
aaI12
aa(lp1531
I-1
a(lp1532
I0
aI5
aa(lp1533
I0
aI11
aa(lp1534
I0
aI17
aa(lp1535
I6
aI5
aa(lp1536
I6
aI11
aa(lp1537
I6
aI17
aa(lp1538
I12
aI5
aa(lp1539
I12
aI11
aa(lp1540
I12
aI17
aaI12
aa(lp1541
I-1
a(lp1542
I0
aI6
aa(lp1543
I0
aI12
aa(lp1544
I0
aI18
aa(lp1545
I6
aI6
aa(lp1546
I6
aI12
aa(lp1547
I6
aI18
aa(lp1548
I12
aI6
aa(lp1549
I12
aI12
aa(lp1550
I12
aI18
aaI12
aa(lp1551
I-1
a(lp1552
I1
aI4
aa(lp1553
I1
aI10
aa(lp1554
I1
aI16
aa(lp1555
I7
aI4
aa(lp1556
I7
aI10
aa(lp1557
I7
aI16
aa(lp1558
I13
aI4
aa(lp1559
I13
aI10
aa(lp1560
I13
aI16
aaI12
aa(lp1561
I-1
a(lp1562
I1
aI5
aa(lp1563
I1
aI11
aa(lp1564
I1
aI17
aa(lp1565
I7
aI5
aa(lp1566
I7
aI11
aa(lp1567
I7
aI17
aa(lp1568
I13
aI5
aa(lp1569
I13
aI11
aa(lp1570
I13
aI17
aaI12
aa(lp1571
I-1
a(lp1572
I1
aI6
aa(lp1573
I1
aI12
aa(lp1574
I1
aI18
aa(lp1575
I7
aI6
aa(lp1576
I7
aI12
aa(lp1577
I7
aI18
aa(lp1578
I13
aI6
aa(lp1579
I13
aI12
aa(lp1580
I13
aI18
aaI12
aa(lp1581
I-1
a(lp1582
I2
aI4
aa(lp1583
I2
aI10
aa(lp1584
I2
aI16
aa(lp1585
I8
aI4
aa(lp1586
I8
aI10
aa(lp1587
I8
aI16
aa(lp1588
I14
aI4
aa(lp1589
I14
aI10
aa(lp1590
I14
aI16
aaI12
aa(lp1591
I-1
a(lp1592
I2
aI5
aa(lp1593
I2
aI11
aa(lp1594
I2
aI17
aa(lp1595
I8
aI5
aa(lp1596
I8
aI11
aa(lp1597
I8
aI17
aa(lp1598
I14
aI5
aa(lp1599
I14
aI11
aa(lp1600
I14
aI17
aaI12
aa(lp1601
I-1
a(lp1602
I2
aI6
aa(lp1603
I2
aI12
aa(lp1604
I2
aI18
aa(lp1605
I8
aI6
aa(lp1606
I8
aI12
aa(lp1607
I8
aI18
aa(lp1608
I14
aI6
aa(lp1609
I14
aI12
aa(lp1610
I14
aI18
aaI12
aa(lp1611
I-1
a(lp1612
I3
aI4
aa(lp1613
I3
aI10
aa(lp1614
I3
aI16
aa(lp1615
I9
aI4
aa(lp1616
I9
aI10
aa(lp1617
I9
aI16
aa(lp1618
I15
aI4
aa(lp1619
I15
aI10
aa(lp1620
I15
aI16
aaI12
aa(lp1621
I-1
a(lp1622
I3
aI5
aa(lp1623
I3
aI11
aa(lp1624
I3
aI17
aa(lp1625
I9
aI5
aa(lp1626
I9
aI11
aa(lp1627
I9
aI17
aa(lp1628
I15
aI5
aa(lp1629
I15
aI11
aa(lp1630
I15
aI17
aaI12
aa(lp1631
I-1
a(lp1632
I3
aI6
aa(lp1633
I3
aI12
aa(lp1634
I3
aI18
aa(lp1635
I9
aI6
aa(lp1636
I9
aI12
aa(lp1637
I9
aI18
aa(lp1638
I15
aI6
aa(lp1639
I15
aI12
aa(lp1640
I15
aI18
aaI12
aa(lp1641
I-1
a(lp1642
I4
aI4
aa(lp1643
I4
aI10
aa(lp1644
I4
aI16
aa(lp1645
I10
aI4
aa(lp1646
I10
aI10
aa(lp1647
I10
aI16
aa(lp1648
I16
aI4
aa(lp1649
I16
aI10
aa(lp1650
I16
aI16
aaI12
aa(lp1651
I-1
a(lp1652
I6
aI-1
aa(lp1653
I6
aI5
aa(lp1654
I6
aI11
aa(lp1655
I12
aI-1
aa(lp1656
I12
aI5
aa(lp1657
I12
aI11
aa(lp1658
I18
aI-1
aa(lp1659
I18
aI5
aa(lp1660
I18
aI11
aaI12
aa(lp1661
I-1
a(lp1662
I-1
aI2
aa(lp1663
I-1
aI9
aa(lp1664
I-1
aI16
aa(lp1665
I6
aI2
aa(lp1666
I6
aI9
aa(lp1667
I6
aI16
aa(lp1668
I13
aI2
aa(lp1669
I13
aI9
aa(lp1670
I13
aI16
aaI14
aa(lp1671
I-1
a(lp1672
I-1
aI3
aa(lp1673
I-1
aI10
aa(lp1674
I-1
aI17
aa(lp1675
I6
aI3
aa(lp1676
I6
aI10
aa(lp1677
I6
aI17
aa(lp1678
I13
aI3
aa(lp1679
I13
aI10
aa(lp1680
I13
aI17
aaI14
aa(lp1681
I-1
a(lp1682
I-1
aI4
aa(lp1683
I-1
aI11
aa(lp1684
I-1
aI18
aa(lp1685
I6
aI4
aa(lp1686
I6
aI11
aa(lp1687
I6
aI18
aa(lp1688
I13
aI4
aa(lp1689
I13
aI11
aa(lp1690
I13
aI18
aaI14
aa(lp1691
I-1
a(lp1692
I0
aI2
aa(lp1693
I0
aI9
aa(lp1694
I0
aI16
aa(lp1695
I7
aI2
aa(lp1696
I7
aI9
aa(lp1697
I7
aI16
aa(lp1698
I14
aI2
aa(lp1699
I14
aI9
aa(lp1700
I14
aI16
aaI14
aa(lp1701
I-1
a(lp1702
I0
aI3
aa(lp1703
I0
aI10
aa(lp1704
I0
aI17
aa(lp1705
I7
aI3
aa(lp1706
I7
aI10
aa(lp1707
I7
aI17
aa(lp1708
I14
aI3
aa(lp1709
I14
aI10
aa(lp1710
I14
aI17
aaI14
aa(lp1711
I-1
a(lp1712
I0
aI4
aa(lp1713
I0
aI11
aa(lp1714
I0
aI18
aa(lp1715
I7
aI4
aa(lp1716
I7
aI11
aa(lp1717
I7
aI18
aa(lp1718
I14
aI4
aa(lp1719
I14
aI11
aa(lp1720
I14
aI18
aaI14
aa(lp1721
I-1
a(lp1722
I1
aI3
aa(lp1723
I1
aI10
aa(lp1724
I1
aI17
aa(lp1725
I8
aI3
aa(lp1726
I8
aI10
aa(lp1727
I8
aI17
aa(lp1728
I15
aI3
aa(lp1729
I15
aI10
aa(lp1730
I15
aI17
aaI14
aa(lp1731
I-1
a(lp1732
I1
aI4
aa(lp1733
I1
aI11
aa(lp1734
I1
aI18
aa(lp1735
I8
aI4
aa(lp1736
I8
aI11
aa(lp1737
I8
aI18
aa(lp1738
I15
aI4
aa(lp1739
I15
aI11
aa(lp1740
I15
aI18
aaI14
aa(lp1741
I-1
a(lp1742
I2
aI3
aa(lp1743
I2
aI10
aa(lp1744
I2
aI17
aa(lp1745
I9
aI3
aa(lp1746
I9
aI10
aa(lp1747
I9
aI17
aa(lp1748
I16
aI3
aa(lp1749
I16
aI10
aa(lp1750
I16
aI17
aaI14
aa(lp1751
I-1
a(lp1752
I2
aI4
aa(lp1753
I2
aI11
aa(lp1754
I2
aI18
aa(lp1755
I9
aI4
aa(lp1756
I9
aI11
aa(lp1757
I9
aI18
aa(lp1758
I16
aI4
aa(lp1759
I16
aI11
aa(lp1760
I16
aI18
aaI14
aa(lp1761
I-1
a(lp1762
I3
aI3
aa(lp1763
I3
aI10
aa(lp1764
I3
aI17
aa(lp1765
I10
aI3
aa(lp1766
I10
aI10
aa(lp1767
I10
aI17
aa(lp1768
I17
aI3
aa(lp1769
I17
aI10
aa(lp1770
I17
aI17
aaI14
aa(lp1771
I-1
a(lp1772
I-1
aI1
aa(lp1773
I-1
aI9
aa(lp1774
I-1
aI17
aa(lp1775
I7
aI1
aa(lp1776
I7
aI9
aa(lp1777
I7
aI17
aa(lp1778
I15
aI1
aa(lp1779
I15
aI9
aa(lp1780
I15
aI17
aaI16
aa(lp1781
I-1
a(lp1782
I-1
aI2
aa(lp1783
I-1
aI10
aa(lp1784
I-1
aI18
aa(lp1785
I7
aI2
aa(lp1786
I7
aI10
aa(lp1787
I7
aI18
aa(lp1788
I15
aI2
aa(lp1789
I15
aI10
aa(lp1790
I15
aI18
aaI16
aa(lp1791
I-1
a(lp1792
I0
aI1
aa(lp1793
I0
aI9
aa(lp1794
I0
aI17
aa(lp1795
I8
aI1
aa(lp1796
I8
aI9
aa(lp1797
I8
aI17
aa(lp1798
I16
aI1
aa(lp1799
I16
aI9
aa(lp1800
I16
aI17
aaI16
aa(lp1801
I-1
a(lp1802
I0
aI2
aa(lp1803
I0
aI10
aa(lp1804
I0
aI18
aa(lp1805
I8
aI2
aa(lp1806
I8
aI10
aa(lp1807
I8
aI18
aa(lp1808
I16
aI2
aa(lp1809
I16
aI10
aa(lp1810
I16
aI18
aaI16
aa(lp1811
I-1
a(lp1812
I1
aI1
aa(lp1813
I1
aI9
aa(lp1814
I1
aI17
aa(lp1815
I9
aI1
aa(lp1816
I9
aI9
aa(lp1817
I9
aI17
aa(lp1818
I17
aI1
aa(lp1819
I17
aI9
aa(lp1820
I17
aI17
aaI16
aa(lp1821
I-1
a(lp1822
I1
aI2
aa(lp1823
I1
aI10
aa(lp1824
I1
aI18
aa(lp1825
I9
aI2
aa(lp1826
I9
aI10
aa(lp1827
I9
aI18
aa(lp1828
I17
aI2
aa(lp1829
I17
aI10
aa(lp1830
I17
aI18
aaI16
aa(lp1831
I-1
a(lp1832
I2
aI2
aa(lp1833
I2
aI10
aa(lp1834
I2
aI18
aa(lp1835
I10
aI2
aa(lp1836
I10
aI10
aa(lp1837
I10
aI18
aa(lp1838
I18
aI2
aa(lp1839
I18
aI10
aa(lp1840
I18
aI18
aaI16
aa(lp1841
I-1
a(lp1842
I-1
aI0
aa(lp1843
I-1
aI9
aa(lp1844
I-1
aI18
aa(lp1845
I8
aI0
aa(lp1846
I8
aI9
aa(lp1847
I8
aI18
aa(lp1848
I17
aI0
aa(lp1849
I17
aI9
aa(lp1850
I17
aI18
aaI18
aa.