(lp0
(lp1
I1
a(lp2
I1
aI-1
aa(lp3
I1
aI6
aa(lp4
I1
aI13
aa(lp5
I8
aI-1
aa(lp6
I8
aI6
aa(lp7
I8
aI13
aa(lp8
I15
aI-1
aa(lp9
I15
aI6
aa(lp10
I15
aI13
aaI14
aa(lp11
I-1
a(lp12
I1
aI4
aa(lp13
I1
aI10
aa(lp14
I1
aI16
aa(lp15
I7
aI4
aa(lp16
I7
aI10
aa(lp17
I7
aI16
aa(lp18
I13
aI4
aa(lp19
I13
aI10
aa(lp20
I13
aI16
aaI12
aa(lp21
I-1
a(lp22
I-1
aI3
aa(lp23
I-1
aI10
aa(lp24
I-1
aI17
aa(lp25
I6
aI3
aa(lp26
I6
aI10
aa(lp27
I6
aI17
aa(lp28
I13
aI3
aa(lp29
I13
aI10
aa(lp30
I13
aI17
aaI14
aa(lp31
I-1
a(lp32
I0
aI3
aa(lp33
I0
aI10
aa(lp34
I0
aI17
aa(lp35
I7
aI3
aa(lp36
I7
aI10
aa(lp37
I7
aI17
aa(lp38
I14
aI3
aa(lp39
I14
aI10
aa(lp40
I14
aI17
aaI14
aa(lp41
I-1
a(lp42
I0
aI4
aa(lp43
I0
aI11
aa(lp44
I0
aI18
aa(lp45
I7
aI4
aa(lp46
I7
aI11
aa(lp47
I7
aI18
aa(lp48
I14
aI4
aa(lp49
I14
aI11
aa(lp50
I14
aI18
aaI14
aa(lp51
I-1
a(lp52
I1
aI3
aa(lp53
I1
aI10
aa(lp54
I1
aI17
aa(lp55
I8
aI3
aa(lp56
I8
aI10
aa(lp57
I8
aI17
aa(lp58
I15
aI3
aa(lp59
I15
aI10
aa(lp60
I15
aI17
aaI14
aa(lp61
I-1
a(lp62
I1
aI4
aa(lp63
I1
aI11
aa(lp64
I1
aI18
aa(lp65
I8
aI4
aa(lp66
I8
aI11
aa(lp67
I8
aI18
aa(lp68
I15
aI4
aa(lp69
I15
aI11
aa(lp70
I15
aI18
aaI14
aa(lp71
I-1
a(lp72
I-1
aI2
aa(lp73
I-1
aI10
aa(lp74
I-1
aI18
aa(lp75
I7
aI2
aa(lp76
I7
aI10
aa(lp77
I7
aI18
aa(lp78
I15
aI2
aa(lp79
I15
aI10
aa(lp80
I15
aI18
aaI16
aa(lp81
I-1
a(lp82
I0
aI2
aa(lp83
I0
aI10
aa(lp84
I0
aI18
aa(lp85
I8
aI2
aa(lp86
I8
aI10
aa(lp87
I8
aI18
aa(lp88
I16
aI2
aa(lp89
I16
aI10
aa(lp90
I16
aI18
aaI16
aa.