(lp0
(lp1
I1
a(lp2
I-1
aI-1
aa(lp3
I-1
aI1
aa(lp4
I-1
aI3
aa(lp5
I1
aI-1
aa(lp6
I1
aI1
aa(lp7
I1
aI3
aa(lp8
I3
aI-1
aa(lp9
I3
aI1
aa(lp10
I3
aI3
aaI4
aa(lp11
I1
a(lp12
I-1
aI0
aa(lp13
I-1
aI2
aa(lp14
I-1
aI4
aa(lp15
I1
aI0
aa(lp16
I1
aI2
aa(lp17
I1
aI4
aa(lp18
I3
aI0
aa(lp19
I3
aI2
aa(lp20
I3
aI4
aaI4
aa(lp21
I1
a(lp22
I-1
aI1
aa(lp23
I-1
aI3
aa(lp24
I-1
aI5
aa(lp25
I1
aI1
aa(lp26
I1
aI3
aa(lp27
I1
aI5
aa(lp28
I3
aI1
aa(lp29
I3
aI3
aa(lp30
I3
aI5
aaI4
aa(lp31
I1
a(lp32
I-1
aI2
aa(lp33
I-1
aI4
aa(lp34
I-1
aI6
aa(lp35
I1
aI2
aa(lp36
I1
aI4
aa(lp37
I1
aI6
aa(lp38
I3
aI2
aa(lp39
I3
aI4
aa(lp40
I3
aI6
aaI4
aa(lp41
I1
a(lp42
I-1
aI8
aa(lp43
I-1
aI10
aa(lp44
I-1
aI12
aa(lp45
I1
aI8
aa(lp46
I1
aI10
aa(lp47
I1
aI12
aa(lp48
I3
aI8
aa(lp49
I3
aI10
aa(lp50
I3
aI12
aaI4
aa(lp51
I1
a(lp52
I-1
aI9
aa(lp53
I-1
aI11
aa(lp54
I-1
aI13
aa(lp55
I1
aI9
aa(lp56
I1
aI11
aa(lp57
I1
aI13
aa(lp58
I3
aI9
aa(lp59
I3
aI11
aa(lp60
I3
aI13
aaI4
aa(lp61
I1
a(lp62
I0
aI-1
aa(lp63
I0
aI1
aa(lp64
I0
aI3
aa(lp65
I2
aI-1
aa(lp66
I2
aI1
aa(lp67
I2
aI3
aa(lp68
I4
aI-1
aa(lp69
I4
aI1
aa(lp70
I4
aI3
aaI4
aa(lp71
I1
a(lp72
I0
aI0
aa(lp73
I0
aI2
aa(lp74
I0
aI4
aa(lp75
I2
aI0
aa(lp76
I2
aI2
aa(lp77
I2
aI4
aa(lp78
I4
aI0
aa(lp79
I4
aI2
aa(lp80
I4
aI4
aaI4
aa(lp81
I1
a(lp82
I0
aI1
aa(lp83
I0
aI3
aa(lp84
I0
aI5
aa(lp85
I2
aI1
aa(lp86
I2
aI3
aa(lp87
I2
aI5
aa(lp88
I4
aI1
aa(lp89
I4
aI3
aa(lp90
I4
aI5
aaI4
aa(lp91
I1
a(lp92
I0
aI8
aa(lp93
I0
aI10
aa(lp94
I0
aI12
aa(lp95
I2
aI8
aa(lp96
I2
aI10
aa(lp97
I2
aI12
aa(lp98
I4
aI8
aa(lp99
I4
aI10
aa(lp100
I4
aI12
aaI4
aa(lp101
I1
a(lp102
I1
aI-1
aa(lp103
I1
aI1
aa(lp104
I1
aI3
aa(lp105
I3
aI-1
aa(lp106
I3
aI1
aa(lp107
I3
aI3
aa(lp108
I5
aI-1
aa(lp109
I5
aI1
aa(lp110
I5
aI3
aaI4
aa(lp111
I1
a(lp112
I1
aI0
aa(lp113
I1
aI2
aa(lp114
I1
aI4
aa(lp115
I3
aI0
aa(lp116
I3
aI2
aa(lp117
I3
aI4
aa(lp118
I5
aI0
aa(lp119
I5
aI2
aa(lp120
I5
aI4
aaI4
aa(lp121
I1
a(lp122
I3
aI4
aa(lp123
I3
aI6
aa(lp124
I3
aI8
aa(lp125
I5
aI4
aa(lp126
I5
aI6
aa(lp127
I5
aI8
aa(lp128
I7
aI4
aa(lp129
I7
aI6
aa(lp130
I7
aI8
aaI4
aa(lp131
I1
a(lp132
I4
aI3
aa(lp133
I4
aI5
aa(lp134
I4
aI7
aa(lp135
I6
aI3
aa(lp136
I6
aI5
aa(lp137
I6
aI7
aa(lp138
I8
aI3
aa(lp139
I8
aI5
aa(lp140
I8
aI7
aaI4
aa(lp141
I1
a(lp142
I4
aI4
aa(lp143
I4
aI6
aa(lp144
I4
aI8
aa(lp145
I6
aI4
aa(lp146
I6
aI6
aa(lp147
I6
aI8
aa(lp148
I8
aI4
aa(lp149
I8
aI6
aa(lp150
I8
aI8
aaI4
aa(lp151
I1
a(lp152
I4
aI14
aa(lp153
I4
aI16
aa(lp154
I4
aI18
aa(lp155
I6
aI14
aa(lp156
I6
aI16
aa(lp157
I6
aI18
aa(lp158
I8
aI14
aa(lp159
I8
aI16
aa(lp160
I8
aI18
aaI4
aa(lp161
I1
a(lp162
I5
aI2
aa(lp163
I5
aI4
aa(lp164
I5
aI6
aa(lp165
I7
aI2
aa(lp166
I7
aI4
aa(lp167
I7
aI6
aa(lp168
I9
aI2
aa(lp169
I9
aI4
aa(lp170
I9
aI6
aaI4
aa(lp171
I1
a(lp172
I5
aI3
aa(lp173
I5
aI5
aa(lp174
I5
aI7
aa(lp175
I7
aI3
aa(lp176
I7
aI5
aa(lp177
I7
aI7
aa(lp178
I9
aI3
aa(lp179
I9
aI5
aa(lp180
I9
aI7
aaI4
aa(lp181
I1
a(lp182
I5
aI14
aa(lp183
I5
aI16
aa(lp184
I5
aI18
aa(lp185
I7
aI14
aa(lp186
I7
aI16
aa(lp187
I7
aI18
aa(lp188
I9
aI14
aa(lp189
I9
aI16
aa(lp190
I9
aI18
aaI4
aa(lp191
I1
a(lp192
I6
aI2
aa(lp193
I6
aI4
aa(lp194
I6
aI6
aa(lp195
I8
aI2
aa(lp196
I8
aI4
aa(lp197
I8
aI6
aa(lp198
I10
aI2
aa(lp199
I10
aI4
aa(lp200
I10
aI6
aaI4
aa(lp201
I1
a(lp202
I6
aI3
aa(lp203
I6
aI5
aa(lp204
I6
aI7
aa(lp205
I8
aI3
aa(lp206
I8
aI5
aa(lp207
I8
aI7
aa(lp208
I10
aI3
aa(lp209
I10
aI5
aa(lp210
I10
aI7
aaI4
aa(lp211
I1
a(lp212
I7
aI6
aa(lp213
I7
aI8
aa(lp214
I7
aI10
aa(lp215
I9
aI6
aa(lp216
I9
aI8
aa(lp217
I9
aI10
aa(lp218
I11
aI6
aa(lp219
I11
aI8
aa(lp220
I11
aI10
aaI4
aa(lp221
I1
a(lp222
I8
aI5
aa(lp223
I8
aI7
aa(lp224
I8
aI9
aa(lp225
I10
aI5
aa(lp226
I10
aI7
aa(lp227
I10
aI9
aa(lp228
I12
aI5
aa(lp229
I12
aI7
aa(lp230
I12
aI9
aaI4
aa(lp231
I1
a(lp232
I8
aI6
aa(lp233
I8
aI8
aa(lp234
I8
aI10
aa(lp235
I10
aI6
aa(lp236
I10
aI8
aa(lp237
I10
aI10
aa(lp238
I12
aI6
aa(lp239
I12
aI8
aa(lp240
I12
aI10
aaI4
aa(lp241
I1
a(lp242
I9
aI5
aa(lp243
I9
aI7
aa(lp244
I9
aI9
aa(lp245
I11
aI5
aa(lp246
I11
aI7
aa(lp247
I11
aI9
aa(lp248
I13
aI5
aa(lp249
I13
aI7
aa(lp250
I13
aI9
aaI4
aa(lp251
I1
a(lp252
I9
aI11
aa(lp253
I9
aI13
aa(lp254
I9
aI15
aa(lp255
I11
aI11
aa(lp256
I11
aI13
aa(lp257
I11
aI15
aa(lp258
I13
aI11
aa(lp259
I13
aI13
aa(lp260
I13
aI15
aaI4
aa(lp261
I1
a(lp262
I11
aI2
aa(lp263
I11
aI4
aa(lp264
I11
aI6
aa(lp265
I13
aI2
aa(lp266
I13
aI4
aa(lp267
I13
aI6
aa(lp268
I15
aI2
aa(lp269
I15
aI4
aa(lp270
I15
aI6
aaI4
aa(lp271
I1
a(lp272
I11
aI9
aa(lp273
I11
aI11
aa(lp274
I11
aI13
aa(lp275
I13
aI9
aa(lp276
I13
aI11
aa(lp277
I13
aI13
aa(lp278
I15
aI9
aa(lp279
I15
aI11
aa(lp280
I15
aI13
aaI4
aa(lp281
I1
a(lp282
I13
aI12
aa(lp283
I13
aI14
aa(lp284
I13
aI16
aa(lp285
I15
aI12
aa(lp286
I15
aI14
aa(lp287
I15
aI16
aa(lp288
I17
aI12
aa(lp289
I17
aI14
aa(lp290
I17
aI16
aaI4
aa(lp291
I1
a(lp292
I13
aI13
aa(lp293
I13
aI15
aa(lp294
I13
aI17
aa(lp295
I15
aI13
aa(lp296
I15
aI15
aa(lp297
I15
aI17
aa(lp298
I17
aI13
aa(lp299
I17
aI15
aa(lp300
I17
aI17
aaI4
aa(lp301
I1
a(lp302
I13
aI14
aa(lp303
I13
aI16
aa(lp304
I13
aI18
aa(lp305
I15
aI14
aa(lp306
I15
aI16
aa(lp307
I15
aI18
aa(lp308
I17
aI14
aa(lp309
I17
aI16
aa(lp310
I17
aI18
aaI4
aa(lp311
I1
a(lp312
I14
aI11
aa(lp313
I14
aI13
aa(lp314
I14
aI15
aa(lp315
I16
aI11
aa(lp316
I16
aI13
aa(lp317
I16
aI15
aa(lp318
I18
aI11
aa(lp319
I18
aI13
aa(lp320
I18
aI15
aaI4
aa(lp321
I1
a(lp322
I14
aI12
aa(lp323
I14
aI14
aa(lp324
I14
aI16
aa(lp325
I16
aI12
aa(lp326
I16
aI14
aa(lp327
I16
aI16
aa(lp328
I18
aI12
aa(lp329
I18
aI14
aa(lp330
I18
aI16
aaI4
aa(lp331
I1
a(lp332
I14
aI13
aa(lp333
I14
aI15
aa(lp334
I14
aI17
aa(lp335
I16
aI13
aa(lp336
I16
aI15
aa(lp337
I16
aI17
aa(lp338
I18
aI13
aa(lp339
I18
aI15
aa(lp340
I18
aI17
aaI4
aa(lp341
I1
a(lp342
I14
aI14
aa(lp343
I14
aI16
aa(lp344
I14
aI18
aa(lp345
I16
aI14
aa(lp346
I16
aI16
aa(lp347
I16
aI18
aa(lp348
I18
aI14
aa(lp349
I18
aI16
aa(lp350
I18
aI18
aaI4
aa(lp351
I1
a(lp352
I-1
aI-1
aa(lp353
I-1
aI2
aa(lp354
I-1
aI5
aa(lp355
I2
aI-1
aa(lp356
I2
aI2
aa(lp357
I2
aI5
aa(lp358
I5
aI-1
aa(lp359
I5
aI2
aa(lp360
I5
aI5
aaI6
aa(lp361
I1
a(lp362
I-1
aI0
aa(lp363
I-1
aI3
aa(lp364
I-1
aI6
aa(lp365
I2
aI0
aa(lp366
I2
aI3
aa(lp367
I2
aI6
aa(lp368
I5
aI0
aa(lp369
I5
aI3
aa(lp370
I5
aI6
aaI6
aa(lp371
I1
a(lp372
I-1
aI1
aa(lp373
I-1
aI4
aa(lp374
I-1
aI7
aa(lp375
I2
aI1
aa(lp376
I2
aI4
aa(lp377
I2
aI7
aa(lp378
I5
aI1
aa(lp379
I5
aI4
aa(lp380
I5
aI7
aaI6
aa(lp381
I1
a(lp382
I-1
aI7
aa(lp383
I-1
aI10
aa(lp384
I-1
aI13
aa(lp385
I2
aI7
aa(lp386
I2
aI10
aa(lp387
I2
aI13
aa(lp388
I5
aI7
aa(lp389
I5
aI10
aa(lp390
I5
aI13
aaI6
aa(lp391
I1
a(lp392
I-1
aI8
aa(lp393
I-1
aI11
aa(lp394
I-1
aI14
aa(lp395
I2
aI8
aa(lp396
I2
aI11
aa(lp397
I2
aI14
aa(lp398
I5
aI8
aa(lp399
I5
aI11
aa(lp400
I5
aI14
aaI6
aa(lp401
I1
a(lp402
I0
aI-1
aa(lp403
I0
aI2
aa(lp404
I0
aI5
aa(lp405
I3
aI-1
aa(lp406
I3
aI2
aa(lp407
I3
aI5
aa(lp408
I6
aI-1
aa(lp409
I6
aI2
aa(lp410
I6
aI5
aaI6
aa(lp411
I1
a(lp412
I0
aI0
aa(lp413
I0
aI3
aa(lp414
I0
aI6
aa(lp415
I3
aI0
aa(lp416
I3
aI3
aa(lp417
I3
aI6
aa(lp418
I6
aI0
aa(lp419
I6
aI3
aa(lp420
I6
aI6
aaI6
aa(lp421
I1
a(lp422
I2
aI2
aa(lp423
I2
aI5
aa(lp424
I2
aI8
aa(lp425
I5
aI2
aa(lp426
I5
aI5
aa(lp427
I5
aI8
aa(lp428
I8
aI2
aa(lp429
I8
aI5
aa(lp430
I8
aI8
aaI6
aa(lp431
I1
a(lp432
I2
aI3
aa(lp433
I2
aI6
aa(lp434
I2
aI9
aa(lp435
I5
aI3
aa(lp436
I5
aI6
aa(lp437
I5
aI9
aa(lp438
I8
aI3
aa(lp439
I8
aI6
aa(lp440
I8
aI9
aaI6
aa(lp441
I1
a(lp442
I2
aI12
aa(lp443
I2
aI15
aa(lp444
I2
aI18
aa(lp445
I5
aI12
aa(lp446
I5
aI15
aa(lp447
I5
aI18
aa(lp448
I8
aI12
aa(lp449
I8
aI15
aa(lp450
I8
aI18
aaI6
aa(lp451
I1
a(lp452
I3
aI1
aa(lp453
I3
aI4
aa(lp454
I3
aI7
aa(lp455
I6
aI1
aa(lp456
I6
aI4
aa(lp457
I6
aI7
aa(lp458
I9
aI1
aa(lp459
I9
aI4
aa(lp460
I9
aI7
aaI6
aa(lp461
I1
a(lp462
I3
aI2
aa(lp463
I3
aI5
aa(lp464
I3
aI8
aa(lp465
I6
aI2
aa(lp466
I6
aI5
aa(lp467
I6
aI8
aa(lp468
I9
aI2
aa(lp469
I9
aI5
aa(lp470
I9
aI8
aaI6
aa(lp471
I1
a(lp472
I3
aI3
aa(lp473
I3
aI6
aa(lp474
I3
aI9
aa(lp475
I6
aI3
aa(lp476
I6
aI6
aa(lp477
I6
aI9
aa(lp478
I9
aI3
aa(lp479
I9
aI6
aa(lp480
I9
aI9
aaI6
aa(lp481
I1
a(lp482
I3
aI4
aa(lp483
I3
aI7
aa(lp484
I3
aI10
aa(lp485
I6
aI4
aa(lp486
I6
aI7
aa(lp487
I6
aI10
aa(lp488
I9
aI4
aa(lp489
I9
aI7
aa(lp490
I9
aI10
aaI6
aa(lp491
I1
a(lp492
I3
aI12
aa(lp493
I3
aI15
aa(lp494
I3
aI18
aa(lp495
I6
aI12
aa(lp496
I6
aI15
aa(lp497
I6
aI18
aa(lp498
I9
aI12
aa(lp499
I9
aI15
aa(lp500
I9
aI18
aaI6
aa(lp501
I1
a(lp502
I4
aI1
aa(lp503
I4
aI4
aa(lp504
I4
aI7
aa(lp505
I7
aI1
aa(lp506
I7
aI4
aa(lp507
I7
aI7
aa(lp508
I10
aI1
aa(lp509
I10
aI4
aa(lp510
I10
aI7
aaI6
aa(lp511
I1
a(lp512
I4
aI2
aa(lp513
I4
aI5
aa(lp514
I4
aI8
aa(lp515
I7
aI2
aa(lp516
I7
aI5
aa(lp517
I7
aI8
aa(lp518
I10
aI2
aa(lp519
I10
aI5
aa(lp520
I10
aI8
aaI6
aa(lp521
I1
a(lp522
I4
aI3
aa(lp523
I4
aI6
aa(lp524
I4
aI9
aa(lp525
I7
aI3
aa(lp526
I7
aI6
aa(lp527
I7
aI9
aa(lp528
I10
aI3
aa(lp529
I10
aI6
aa(lp530
I10
aI9
aaI6
aa(lp531
I1
a(lp532
I4
aI4
aa(lp533
I4
aI7
aa(lp534
I4
aI10
aa(lp535
I7
aI4
aa(lp536
I7
aI7
aa(lp537
I7
aI10
aa(lp538
I10
aI4
aa(lp539
I10
aI7
aa(lp540
I10
aI10
aaI6
aa(lp541
I1
a(lp542
I4
aI5
aa(lp543
I4
aI8
aa(lp544
I4
aI11
aa(lp545
I7
aI5
aa(lp546
I7
aI8
aa(lp547
I7
aI11
aa(lp548
I10
aI5
aa(lp549
I10
aI8
aa(lp550
I10
aI11
aaI6
aa(lp551
I1
a(lp552
I4
aI12
aa(lp553
I4
aI15
aa(lp554
I4
aI18
aa(lp555
I7
aI12
aa(lp556
I7
aI15
aa(lp557
I7
aI18
aa(lp558
I10
aI12
aa(lp559
I10
aI15
aa(lp560
I10
aI18
aaI6
aa(lp561
I1
a(lp562
I5
aI0
aa(lp563
I5
aI3
aa(lp564
I5
aI6
aa(lp565
I8
aI0
aa(lp566
I8
aI3
aa(lp567
I8
aI6
aa(lp568
I11
aI0
aa(lp569
I11
aI3
aa(lp570
I11
aI6
aaI6
aa(lp571
I1
a(lp572
I5
aI1
aa(lp573
I5
aI4
aa(lp574
I5
aI7
aa(lp575
I8
aI1
aa(lp576
I8
aI4
aa(lp577
I8
aI7
aa(lp578
I11
aI1
aa(lp579
I11
aI4
aa(lp580
I11
aI7
aaI6
aa(lp581
I1
a(lp582
I5
aI2
aa(lp583
I5
aI5
aa(lp584
I5
aI8
aa(lp585
I8
aI2
aa(lp586
I8
aI5
aa(lp587
I8
aI8
aa(lp588
I11
aI2
aa(lp589
I11
aI5
aa(lp590
I11
aI8
aaI6
aa(lp591
I1
a(lp592
I5
aI3
aa(lp593
I5
aI6
aa(lp594
I5
aI9
aa(lp595
I8
aI3
aa(lp596
I8
aI6
aa(lp597
I8
aI9
aa(lp598
I11
aI3
aa(lp599
I11
aI6
aa(lp600
I11
aI9
aaI6
aa(lp601
I1
a(lp602
I5
aI4
aa(lp603
I5
aI7
aa(lp604
I5
aI10
aa(lp605
I8
aI4
aa(lp606
I8
aI7
aa(lp607
I8
aI10
aa(lp608
I11
aI4
aa(lp609
I11
aI7
aa(lp610
I11
aI10
aaI6
aa(lp611
I1
a(lp612
I5
aI5
aa(lp613
I5
aI8
aa(lp614
I5
aI11
aa(lp615
I8
aI5
aa(lp616
I8
aI8
aa(lp617
I8
aI11
aa(lp618
I11
aI5
aa(lp619
I11
aI8
aa(lp620
I11
aI11
aaI6
aa(lp621
I1
a(lp622
I6
aI4
aa(lp623
I6
aI7
aa(lp624
I6
aI10
aa(lp625
I9
aI4
aa(lp626
I9
aI7
aa(lp627
I9
aI10
aa(lp628
I12
aI4
aa(lp629
I12
aI7
aa(lp630
I12
aI10
aaI6
aa(lp631
I1
a(lp632
I6
aI5
aa(lp633
I6
aI8
aa(lp634
I6
aI11
aa(lp635
I9
aI5
aa(lp636
I9
aI8
aa(lp637
I9
aI11
aa(lp638
I12
aI5
aa(lp639
I12
aI8
aa(lp640
I12
aI11
aaI6
aa(lp641
I1
a(lp642
I7
aI-1
aa(lp643
I7
aI2
aa(lp644
I7
aI5
aa(lp645
I10
aI-1
aa(lp646
I10
aI2
aa(lp647
I10
aI5
aa(lp648
I13
aI-1
aa(lp649
I13
aI2
aa(lp650
I13
aI5
aaI6
aa(lp651
I1
a(lp652
I7
aI4
aa(lp653
I7
aI7
aa(lp654
I7
aI10
aa(lp655
I10
aI4
aa(lp656
I10
aI7
aa(lp657
I10
aI10
aa(lp658
I13
aI4
aa(lp659
I13
aI7
aa(lp660
I13
aI10
aaI6
aa(lp661
I1
a(lp662
I7
aI5
aa(lp663
I7
aI8
aa(lp664
I7
aI11
aa(lp665
I10
aI5
aa(lp666
I10
aI8
aa(lp667
I10
aI11
aa(lp668
I13
aI5
aa(lp669
I13
aI8
aa(lp670
I13
aI11
aaI6
aa(lp671
I1
a(lp672
I8
aI-1
aa(lp673
I8
aI2
aa(lp674
I8
aI5
aa(lp675
I11
aI-1
aa(lp676
I11
aI2
aa(lp677
I11
aI5
aa(lp678
I14
aI-1
aa(lp679
I14
aI2
aa(lp680
I14
aI5
aaI6
aa(lp681
I1
a(lp682
I8
aI4
aa(lp683
I8
aI7
aa(lp684
I8
aI10
aa(lp685
I11
aI4
aa(lp686
I11
aI7
aa(lp687
I11
aI10
aa(lp688
I14
aI4
aa(lp689
I14
aI7
aa(lp690
I14
aI10
aaI6
aa(lp691
I1
a(lp692
I8
aI5
aa(lp693
I8
aI8
aa(lp694
I8
aI11
aa(lp695
I11
aI5
aa(lp696
I11
aI8
aa(lp697
I11
aI11
aa(lp698
I14
aI5
aa(lp699
I14
aI8
aa(lp700
I14
aI11
aaI6
aa(lp701
I1
a(lp702
I8
aI10
aa(lp703
I8
aI13
aa(lp704
I8
aI16
aa(lp705
I11
aI10
aa(lp706
I11
aI13
aa(lp707
I11
aI16
aa(lp708
I14
aI10
aa(lp709
I14
aI13
aa(lp710
I14
aI16
aaI6
aa(lp711
I1
a(lp712
I9
aI-1
aa(lp713
I9
aI2
aa(lp714
I9
aI5
aa(lp715
I12
aI-1
aa(lp716
I12
aI2
aa(lp717
I12
aI5
aa(lp718
I15
aI-1
aa(lp719
I15
aI2
aa(lp720
I15
aI5
aaI6
aa(lp721
I1
a(lp722
I10
aI7
aa(lp723
I10
aI10
aa(lp724
I10
aI13
aa(lp725
I13
aI7
aa(lp726
I13
aI10
aa(lp727
I13
aI13
aa(lp728
I16
aI7
aa(lp729
I16
aI10
aa(lp730
I16
aI13
aaI6
aa(lp731
I1
a(lp732
I10
aI8
aa(lp733
I10
aI11
aa(lp734
I10
aI14
aa(lp735
I13
aI8
aa(lp736
I13
aI11
aa(lp737
I13
aI14
aa(lp738
I16
aI8
aa(lp739
I16
aI11
aa(lp740
I16
aI14
aaI6
aa(lp741
I1
a(lp742
I10
aI9
aa(lp743
I10
aI12
aa(lp744
I10
aI15
aa(lp745
I13
aI9
aa(lp746
I13
aI12
aa(lp747
I13
aI15
aa(lp748
I16
aI9
aa(lp749
I16
aI12
aa(lp750
I16
aI15
aaI6
aa(lp751
I1
a(lp752
I11
aI7
aa(lp753
I11
aI10
aa(lp754
I11
aI13
aa(lp755
I14
aI7
aa(lp756
I14
aI10
aa(lp757
I14
aI13
aa(lp758
I17
aI7
aa(lp759
I17
aI10
aa(lp760
I17
aI13
aaI6
aa(lp761
I1
a(lp762
I11
aI8
aa(lp763
I11
aI11
aa(lp764
I11
aI14
aa(lp765
I14
aI8
aa(lp766
I14
aI11
aa(lp767
I14
aI14
aa(lp768
I17
aI8
aa(lp769
I17
aI11
aa(lp770
I17
aI14
aaI6
aa(lp771
I1
a(lp772
I11
aI9
aa(lp773
I11
aI12
aa(lp774
I11
aI15
aa(lp775
I14
aI9
aa(lp776
I14
aI12
aa(lp777
I14
aI15
aa(lp778
I17
aI9
aa(lp779
I17
aI12
aa(lp780
I17
aI15
aaI6
aa(lp781
I1
a(lp782
I11
aI12
aa(lp783
I11
aI15
aa(lp784
I11
aI18
aa(lp785
I14
aI12
aa(lp786
I14
aI15
aa(lp787
I14
aI18
aa(lp788
I17
aI12
aa(lp789
I17
aI15
aa(lp790
I17
aI18
aaI6
aa(lp791
I1
a(lp792
I12
aI9
aa(lp793
I12
aI12
aa(lp794
I12
aI15
aa(lp795
I15
aI9
aa(lp796
I15
aI12
aa(lp797
I15
aI15
aa(lp798
I18
aI9
aa(lp799
I18
aI12
aa(lp800
I18
aI15
aaI6
aa(lp801
I1
a(lp802
I12
aI10
aa(lp803
I12
aI13
aa(lp804
I12
aI16
aa(lp805
I15
aI10
aa(lp806
I15
aI13
aa(lp807
I15
aI16
aa(lp808
I18
aI10
aa(lp809
I18
aI13
aa(lp810
I18
aI16
aaI6
aa(lp811
I1
a(lp812
I12
aI11
aa(lp813
I12
aI14
aa(lp814
I12
aI17
aa(lp815
I15
aI11
aa(lp816
I15
aI14
aa(lp817
I15
aI17
aa(lp818
I18
aI11
aa(lp819
I18
aI14
aa(lp820
I18
aI17
aaI6
aa(lp821
I1
a(lp822
I12
aI12
aa(lp823
I12
aI15
aa(lp824
I12
aI18
aa(lp825
I15
aI12
aa(lp826
I15
aI15
aa(lp827
I15
aI18
aa(lp828
I18
aI12
aa(lp829
I18
aI15
aa(lp830
I18
aI18
aaI6
aa(lp831
I1
a(lp832
I-1
aI-1
aa(lp833
I-1
aI3
aa(lp834
I-1
aI7
aa(lp835
I3
aI-1
aa(lp836
I3
aI3
aa(lp837
I3
aI7
aa(lp838
I7
aI-1
aa(lp839
I7
aI3
aa(lp840
I7
aI7
aaI8
aa(lp841
I1
a(lp842
I-1
aI0
aa(lp843
I-1
aI4
aa(lp844
I-1
aI8
aa(lp845
I3
aI0
aa(lp846
I3
aI4
aa(lp847
I3
aI8
aa(lp848
I7
aI0
aa(lp849
I7
aI4
aa(lp850
I7
aI8
aaI8
aa(lp851
I1
a(lp852
I0
aI-1
aa(lp853
I0
aI3
aa(lp854
I0
aI7
aa(lp855
I4
aI-1
aa(lp856
I4
aI3
aa(lp857
I4
aI7
aa(lp858
I8
aI-1
aa(lp859
I8
aI3
aa(lp860
I8
aI7
aaI8
aa(lp861
I1
a(lp862
I0
aI0
aa(lp863
I0
aI4
aa(lp864
I0
aI8
aa(lp865
I4
aI0
aa(lp866
I4
aI4
aa(lp867
I4
aI8
aa(lp868
I8
aI0
aa(lp869
I8
aI4
aa(lp870
I8
aI8
aaI8
aa(lp871
I1
a(lp872
I1
aI0
aa(lp873
I1
aI4
aa(lp874
I1
aI8
aa(lp875
I5
aI0
aa(lp876
I5
aI4
aa(lp877
I5
aI8
aa(lp878
I9
aI0
aa(lp879
I9
aI4
aa(lp880
I9
aI8
aaI8
aa(lp881
I1
a(lp882
I1
aI1
aa(lp883
I1
aI5
aa(lp884
I1
aI9
aa(lp885
I5
aI1
aa(lp886
I5
aI5
aa(lp887
I5
aI9
aa(lp888
I9
aI1
aa(lp889
I9
aI5
aa(lp890
I9
aI9
aaI8
aa(lp891
I1
a(lp892
I1
aI2
aa(lp893
I1
aI6
aa(lp894
I1
aI10
aa(lp895
I5
aI2
aa(lp896
I5
aI6
aa(lp897
I5
aI10
aa(lp898
I9
aI2
aa(lp899
I9
aI6
aa(lp900
I9
aI10
aaI8
aa(lp901
I1
a(lp902
I2
aI0
aa(lp903
I2
aI4
aa(lp904
I2
aI8
aa(lp905
I6
aI0
aa(lp906
I6
aI4
aa(lp907
I6
aI8
aa(lp908
I10
aI0
aa(lp909
I10
aI4
aa(lp910
I10
aI8
aaI8
aa(lp911
I1
a(lp912
I2
aI1
aa(lp913
I2
aI5
aa(lp914
I2
aI9
aa(lp915
I6
aI1
aa(lp916
I6
aI5
aa(lp917
I6
aI9
aa(lp918
I10
aI1
aa(lp919
I10
aI5
aa(lp920
I10
aI9
aaI8
aa(lp921
I1
a(lp922
I2
aI2
aa(lp923
I2
aI6
aa(lp924
I2
aI10
aa(lp925
I6
aI2
aa(lp926
I6
aI6
aa(lp927
I6
aI10
aa(lp928
I10
aI2
aa(lp929
I10
aI6
aa(lp930
I10
aI10
aaI8
aa(lp931
I1
a(lp932
I2
aI3
aa(lp933
I2
aI7
aa(lp934
I2
aI11
aa(lp935
I6
aI3
aa(lp936
I6
aI7
aa(lp937
I6
aI11
aa(lp938
I10
aI3
aa(lp939
I10
aI7
aa(lp940
I10
aI11
aaI8
aa(lp941
I1
a(lp942
I2
aI4
aa(lp943
I2
aI8
aa(lp944
I2
aI12
aa(lp945
I6
aI4
aa(lp946
I6
aI8
aa(lp947
I6
aI12
aa(lp948
I10
aI4
aa(lp949
I10
aI8
aa(lp950
I10
aI12
aaI8
aa(lp951
I1
a(lp952
I3
aI0
aa(lp953
I3
aI4
aa(lp954
I3
aI8
aa(lp955
I7
aI0
aa(lp956
I7
aI4
aa(lp957
I7
aI8
aa(lp958
I11
aI0
aa(lp959
I11
aI4
aa(lp960
I11
aI8
aaI8
aa(lp961
I1
a(lp962
I3
aI1
aa(lp963
I3
aI5
aa(lp964
I3
aI9
aa(lp965
I7
aI1
aa(lp966
I7
aI5
aa(lp967
I7
aI9
aa(lp968
I11
aI1
aa(lp969
I11
aI5
aa(lp970
I11
aI9
aaI8
aa(lp971
I1
a(lp972
I3
aI2
aa(lp973
I3
aI6
aa(lp974
I3
aI10
aa(lp975
I7
aI2
aa(lp976
I7
aI6
aa(lp977
I7
aI10
aa(lp978
I11
aI2
aa(lp979
I11
aI6
aa(lp980
I11
aI10
aaI8
aa(lp981
I1
a(lp982
I3
aI3
aa(lp983
I3
aI7
aa(lp984
I3
aI11
aa(lp985
I7
aI3
aa(lp986
I7
aI7
aa(lp987
I7
aI11
aa(lp988
I11
aI3
aa(lp989
I11
aI7
aa(lp990
I11
aI11
aaI8
aa(lp991
I1
a(lp992
I3
aI4
aa(lp993
I3
aI8
aa(lp994
I3
aI12
aa(lp995
I7
aI4
aa(lp996
I7
aI8
aa(lp997
I7
aI12
aa(lp998
I11
aI4
aa(lp999
I11
aI8
aa(lp1000
I11
aI12
aaI8
aa(lp1001
I1
a(lp1002
I4
aI0
aa(lp1003
I4
aI4
aa(lp1004
I4
aI8
aa(lp1005
I8
aI0
aa(lp1006
I8
aI4
aa(lp1007
I8
aI8
aa(lp1008
I12
aI0
aa(lp1009
I12
aI4
aa(lp1010
I12
aI8
aaI8
aa(lp1011
I1
a(lp1012
I4
aI1
aa(lp1013
I4
aI5
aa(lp1014
I4
aI9
aa(lp1015
I8
aI1
aa(lp1016
I8
aI5
aa(lp1017
I8
aI9
aa(lp1018
I12
aI1
aa(lp1019
I12
aI5
aa(lp1020
I12
aI9
aaI8
aa(lp1021
I1
a(lp1022
I4
aI2
aa(lp1023
I4
aI6
aa(lp1024
I4
aI10
aa(lp1025
I8
aI2
aa(lp1026
I8
aI6
aa(lp1027
I8
aI10
aa(lp1028
I12
aI2
aa(lp1029
I12
aI6
aa(lp1030
I12
aI10
aaI8
aa(lp1031
I1
a(lp1032
I4
aI3
aa(lp1033
I4
aI7
aa(lp1034
I4
aI11
aa(lp1035
I8
aI3
aa(lp1036
I8
aI7
aa(lp1037
I8
aI11
aa(lp1038
I12
aI3
aa(lp1039
I12
aI7
aa(lp1040
I12
aI11
aaI8
aa(lp1041
I1
a(lp1042
I4
aI4
aa(lp1043
I4
aI8
aa(lp1044
I4
aI12
aa(lp1045
I8
aI4
aa(lp1046
I8
aI8
aa(lp1047
I8
aI12
aa(lp1048
I12
aI4
aa(lp1049
I12
aI8
aa(lp1050
I12
aI12
aaI8
aa(lp1051
I1
a(lp1052
I5
aI1
aa(lp1053
I5
aI5
aa(lp1054
I5
aI9
aa(lp1055
I9
aI1
aa(lp1056
I9
aI5
aa(lp1057
I9
aI9
aa(lp1058
I13
aI1
aa(lp1059
I13
aI5
aa(lp1060
I13
aI9
aaI8
aa(lp1061
I1
a(lp1062
I5
aI2
aa(lp1063
I5
aI6
aa(lp1064
I5
aI10
aa(lp1065
I9
aI2
aa(lp1066
I9
aI6
aa(lp1067
I9
aI10
aa(lp1068
I13
aI2
aa(lp1069
I13
aI6
aa(lp1070
I13
aI10
aaI8
aa(lp1071
I1
a(lp1072
I5
aI3
aa(lp1073
I5
aI7
aa(lp1074
I5
aI11
aa(lp1075
I9
aI3
aa(lp1076
I9
aI7
aa(lp1077
I9
aI11
aa(lp1078
I13
aI3
aa(lp1079
I13
aI7
aa(lp1080
I13
aI11
aaI8
aa(lp1081
I1
a(lp1082
I5
aI4
aa(lp1083
I5
aI8
aa(lp1084
I5
aI12
aa(lp1085
I9
aI4
aa(lp1086
I9
aI8
aa(lp1087
I9
aI12
aa(lp1088
I13
aI4
aa(lp1089
I13
aI8
aa(lp1090
I13
aI12
aaI8
aa(lp1091
I1
a(lp1092
I6
aI2
aa(lp1093
I6
aI6
aa(lp1094
I6
aI10
aa(lp1095
I10
aI2
aa(lp1096
I10
aI6
aa(lp1097
I10
aI10
aa(lp1098
I14
aI2
aa(lp1099
I14
aI6
aa(lp1100
I14
aI10
aaI8
aa(lp1101
I1
a(lp1102
I6
aI3
aa(lp1103
I6
aI7
aa(lp1104
I6
aI11
aa(lp1105
I10
aI3
aa(lp1106
I10
aI7
aa(lp1107
I10
aI11
aa(lp1108
I14
aI3
aa(lp1109
I14
aI7
aa(lp1110
I14
aI11
aaI8
aa(lp1111
I1
a(lp1112
I6
aI4
aa(lp1113
I6
aI8
aa(lp1114
I6
aI12
aa(lp1115
I10
aI4
aa(lp1116
I10
aI8
aa(lp1117
I10
aI12
aa(lp1118
I14
aI4
aa(lp1119
I14
aI8
aa(lp1120
I14
aI12
aaI8
aa(lp1121
I1
a(lp1122
I7
aI4
aa(lp1123
I7
aI8
aa(lp1124
I7
aI12
aa(lp1125
I11
aI4
aa(lp1126
I11
aI8
aa(lp1127
I11
aI12
aa(lp1128
I15
aI4
aa(lp1129
I15
aI8
aa(lp1130
I15
aI12
aaI8
aa(lp1131
I1
a(lp1132
I8
aI8
aa(lp1133
I8
aI12
aa(lp1134
I8
aI16
aa(lp1135
I12
aI8
aa(lp1136
I12
aI12
aa(lp1137
I12
aI16
aa(lp1138
I16
aI8
aa(lp1139
I16
aI12
aa(lp1140
I16
aI16
aaI8
aa(lp1141
I1
a(lp1142
I8
aI9
aa(lp1143
I8
aI13
aa(lp1144
I8
aI17
aa(lp1145
I12
aI9
aa(lp1146
I12
aI13
aa(lp1147
I12
aI17
aa(lp1148
I16
aI9
aa(lp1149
I16
aI13
aa(lp1150
I16
aI17
aaI8
aa(lp1151
I1
a(lp1152
I8
aI10
aa(lp1153
I8
aI14
aa(lp1154
I8
aI18
aa(lp1155
I12
aI10
aa(lp1156
I12
aI14
aa(lp1157
I12
aI18
aa(lp1158
I16
aI10
aa(lp1159
I16
aI14
aa(lp1160
I16
aI18
aaI8
aa(lp1161
I1
a(lp1162
I9
aI6
aa(lp1163
I9
aI10
aa(lp1164
I9
aI14
aa(lp1165
I13
aI6
aa(lp1166
I13
aI10
aa(lp1167
I13
aI14
aa(lp1168
I17
aI6
aa(lp1169
I17
aI10
aa(lp1170
I17
aI14
aaI8
aa(lp1171
I1
a(lp1172
I9
aI7
aa(lp1173
I9
aI11
aa(lp1174
I9
aI15
aa(lp1175
I13
aI7
aa(lp1176
I13
aI11
aa(lp1177
I13
aI15
aa(lp1178
I17
aI7
aa(lp1179
I17
aI11
aa(lp1180
I17
aI15
aaI8
aa(lp1181
I1
a(lp1182
I9
aI8
aa(lp1183
I9
aI12
aa(lp1184
I9
aI16
aa(lp1185
I13
aI8
aa(lp1186
I13
aI12
aa(lp1187
I13
aI16
aa(lp1188
I17
aI8
aa(lp1189
I17
aI12
aa(lp1190
I17
aI16
aaI8
aa(lp1191
I1
a(lp1192
I9
aI9
aa(lp1193
I9
aI13
aa(lp1194
I9
aI17
aa(lp1195
I13
aI9
aa(lp1196
I13
aI13
aa(lp1197
I13
aI17
aa(lp1198
I17
aI9
aa(lp1199
I17
aI13
aa(lp1200
I17
aI17
aaI8
aa(lp1201
I1
a(lp1202
I9
aI10
aa(lp1203
I9
aI14
aa(lp1204
I9
aI18
aa(lp1205
I13
aI10
aa(lp1206
I13
aI14
aa(lp1207
I13
aI18
aa(lp1208
I17
aI10
aa(lp1209
I17
aI14
aa(lp1210
I17
aI18
aaI8
aa(lp1211
I1
a(lp1212
I10
aI6
aa(lp1213
I10
aI10
aa(lp1214
I10
aI14
aa(lp1215
I14
aI6
aa(lp1216
I14
aI10
aa(lp1217
I14
aI14
aa(lp1218
I18
aI6
aa(lp1219
I18
aI10
aa(lp1220
I18
aI14
aaI8
aa(lp1221
I1
a(lp1222
I10
aI7
aa(lp1223
I10
aI11
aa(lp1224
I10
aI15
aa(lp1225
I14
aI7
aa(lp1226
I14
aI11
aa(lp1227
I14
aI15
aa(lp1228
I18
aI7
aa(lp1229
I18
aI11
aa(lp1230
I18
aI15
aaI8
aa(lp1231
I1
a(lp1232
I10
aI8
aa(lp1233
I10
aI12
aa(lp1234
I10
aI16
aa(lp1235
I14
aI8
aa(lp1236
I14
aI12
aa(lp1237
I14
aI16
aa(lp1238
I18
aI8
aa(lp1239
I18
aI12
aa(lp1240
I18
aI16
aaI8
aa(lp1241
I1
a(lp1242
I10
aI9
aa(lp1243
I10
aI13
aa(lp1244
I10
aI17
aa(lp1245
I14
aI9
aa(lp1246
I14
aI13
aa(lp1247
I14
aI17
aa(lp1248
I18
aI9
aa(lp1249
I18
aI13
aa(lp1250
I18
aI17
aaI8
aa(lp1251
I1
a(lp1252
I10
aI10
aa(lp1253
I10
aI14
aa(lp1254
I10
aI18
aa(lp1255
I14
aI10
aa(lp1256
I14
aI14
aa(lp1257
I14
aI18
aa(lp1258
I18
aI10
aa(lp1259
I18
aI14
aa(lp1260
I18
aI18
aaI8
aa(lp1261
I1
a(lp1262
I-1
aI-1
aa(lp1263
I-1
aI4
aa(lp1264
I-1
aI9
aa(lp1265
I4
aI-1
aa(lp1266
I4
aI4
aa(lp1267
I4
aI9
aa(lp1268
I9
aI-1
aa(lp1269
I9
aI4
aa(lp1270
I9
aI9
aaI10
aa(lp1271
I1
a(lp1272
I0
aI-1
aa(lp1273
I0
aI4
aa(lp1274
I0
aI9
aa(lp1275
I5
aI-1
aa(lp1276
I5
aI4
aa(lp1277
I5
aI9
aa(lp1278
I10
aI-1
aa(lp1279
I10
aI4
aa(lp1280
I10
aI9
aaI10
aa(lp1281
I1
a(lp1282
I0
aI0
aa(lp1283
I0
aI5
aa(lp1284
I0
aI10
aa(lp1285
I5
aI0
aa(lp1286
I5
aI5
aa(lp1287
I5
aI10
aa(lp1288
I10
aI0
aa(lp1289
I10
aI5
aa(lp1290
I10
aI10
aaI10
aa(lp1291
I1
a(lp1292
I0
aI1
aa(lp1293
I0
aI6
aa(lp1294
I0
aI11
aa(lp1295
I5
aI1
aa(lp1296
I5
aI6
aa(lp1297
I5
aI11
aa(lp1298
I10
aI1
aa(lp1299
I10
aI6
aa(lp1300
I10
aI11
aaI10
aa(lp1301
I1
a(lp1302
I1
aI-1
aa(lp1303
I1
aI4
aa(lp1304
I1
aI9
aa(lp1305
I6
aI-1
aa(lp1306
I6
aI4
aa(lp1307
I6
aI9
aa(lp1308
I11
aI-1
aa(lp1309
I11
aI4
aa(lp1310
I11
aI9
aaI10
aa(lp1311
I1
a(lp1312
I1
aI0
aa(lp1313
I1
aI5
aa(lp1314
I1
aI10
aa(lp1315
I6
aI0
aa(lp1316
I6
aI5
aa(lp1317
I6
aI10
aa(lp1318
I11
aI0
aa(lp1319
I11
aI5
aa(lp1320
I11
aI10
aaI10
aa(lp1321
I1
a(lp1322
I1
aI1
aa(lp1323
I1
aI6
aa(lp1324
I1
aI11
aa(lp1325
I6
aI1
aa(lp1326
I6
aI6
aa(lp1327
I6
aI11
aa(lp1328
I11
aI1
aa(lp1329
I11
aI6
aa(lp1330
I11
aI11
aaI10
aa(lp1331
I1
a(lp1332
I1
aI2
aa(lp1333
I1
aI7
aa(lp1334
I1
aI12
aa(lp1335
I6
aI2
aa(lp1336
I6
aI7
aa(lp1337
I6
aI12
aa(lp1338
I11
aI2
aa(lp1339
I11
aI7
aa(lp1340
I11
aI12
aaI10
aa(lp1341
I1
a(lp1342
I1
aI3
aa(lp1343
I1
aI8
aa(lp1344
I1
aI13
aa(lp1345
I6
aI3
aa(lp1346
I6
aI8
aa(lp1347
I6
aI13
aa(lp1348
I11
aI3
aa(lp1349
I11
aI8
aa(lp1350
I11
aI13
aaI10
aa(lp1351
I1
a(lp1352
I2
aI-1
aa(lp1353
I2
aI4
aa(lp1354
I2
aI9
aa(lp1355
I7
aI-1
aa(lp1356
I7
aI4
aa(lp1357
I7
aI9
aa(lp1358
I12
aI-1
aa(lp1359
I12
aI4
aa(lp1360
I12
aI9
aaI10
aa(lp1361
I1
a(lp1362
I2
aI0
aa(lp1363
I2
aI5
aa(lp1364
I2
aI10
aa(lp1365
I7
aI0
aa(lp1366
I7
aI5
aa(lp1367
I7
aI10
aa(lp1368
I12
aI0
aa(lp1369
I12
aI5
aa(lp1370
I12
aI10
aaI10
aa(lp1371
I1
a(lp1372
I2
aI1
aa(lp1373
I2
aI6
aa(lp1374
I2
aI11
aa(lp1375
I7
aI1
aa(lp1376
I7
aI6
aa(lp1377
I7
aI11
aa(lp1378
I12
aI1
aa(lp1379
I12
aI6
aa(lp1380
I12
aI11
aaI10
aa(lp1381
I1
a(lp1382
I2
aI2
aa(lp1383
I2
aI7
aa(lp1384
I2
aI12
aa(lp1385
I7
aI2
aa(lp1386
I7
aI7
aa(lp1387
I7
aI12
aa(lp1388
I12
aI2
aa(lp1389
I12
aI7
aa(lp1390
I12
aI12
aaI10
aa(lp1391
I1
a(lp1392
I2
aI3
aa(lp1393
I2
aI8
aa(lp1394
I2
aI13
aa(lp1395
I7
aI3
aa(lp1396
I7
aI8
aa(lp1397
I7
aI13
aa(lp1398
I12
aI3
aa(lp1399
I12
aI8
aa(lp1400
I12
aI13
aaI10
aa(lp1401
I1
a(lp1402
I3
aI-1
aa(lp1403
I3
aI4
aa(lp1404
I3
aI9
aa(lp1405
I8
aI-1
aa(lp1406
I8
aI4
aa(lp1407
I8
aI9
aa(lp1408
I13
aI-1
aa(lp1409
I13
aI4
aa(lp1410
I13
aI9
aaI10
aa(lp1411
I1
a(lp1412
I3
aI0
aa(lp1413
I3
aI5
aa(lp1414
I3
aI10
aa(lp1415
I8
aI0
aa(lp1416
I8
aI5
aa(lp1417
I8
aI10
aa(lp1418
I13
aI0
aa(lp1419
I13
aI5
aa(lp1420
I13
aI10
aaI10
aa(lp1421
I1
a(lp1422
I3
aI1
aa(lp1423
I3
aI6
aa(lp1424
I3
aI11
aa(lp1425
I8
aI1
aa(lp1426
I8
aI6
aa(lp1427
I8
aI11
aa(lp1428
I13
aI1
aa(lp1429
I13
aI6
aa(lp1430
I13
aI11
aaI10
aa(lp1431
I1
a(lp1432
I3
aI2
aa(lp1433
I3
aI7
aa(lp1434
I3
aI12
aa(lp1435
I8
aI2
aa(lp1436
I8
aI7
aa(lp1437
I8
aI12
aa(lp1438
I13
aI2
aa(lp1439
I13
aI7
aa(lp1440
I13
aI12
aaI10
aa(lp1441
I1
a(lp1442
I3
aI3
aa(lp1443
I3
aI8
aa(lp1444
I3
aI13
aa(lp1445
I8
aI3
aa(lp1446
I8
aI8
aa(lp1447
I8
aI13
aa(lp1448
I13
aI3
aa(lp1449
I13
aI8
aa(lp1450
I13
aI13
aaI10
aa(lp1451
I1
a(lp1452
I4
aI-1
aa(lp1453
I4
aI4
aa(lp1454
I4
aI9
aa(lp1455
I9
aI-1
aa(lp1456
I9
aI4
aa(lp1457
I9
aI9
aa(lp1458
I14
aI-1
aa(lp1459
I14
aI4
aa(lp1460
I14
aI9
aaI10
aa(lp1461
I1
a(lp1462
I4
aI0
aa(lp1463
I4
aI5
aa(lp1464
I4
aI10
aa(lp1465
I9
aI0
aa(lp1466
I9
aI5
aa(lp1467
I9
aI10
aa(lp1468
I14
aI0
aa(lp1469
I14
aI5
aa(lp1470
I14
aI10
aaI10
aa(lp1471
I1
a(lp1472
I4
aI1
aa(lp1473
I4
aI6
aa(lp1474
I4
aI11
aa(lp1475
I9
aI1
aa(lp1476
I9
aI6
aa(lp1477
I9
aI11
aa(lp1478
I14
aI1
aa(lp1479
I14
aI6
aa(lp1480
I14
aI11
aaI10
aa(lp1481
I1
a(lp1482
I4
aI2
aa(lp1483
I4
aI7
aa(lp1484
I4
aI12
aa(lp1485
I9
aI2
aa(lp1486
I9
aI7
aa(lp1487
I9
aI12
aa(lp1488
I14
aI2
aa(lp1489
I14
aI7
aa(lp1490
I14
aI12
aaI10
aa(lp1491
I1
a(lp1492
I4
aI3
aa(lp1493
I4
aI8
aa(lp1494
I4
aI13
aa(lp1495
I9
aI3
aa(lp1496
I9
aI8
aa(lp1497
I9
aI13
aa(lp1498
I14
aI3
aa(lp1499
I14
aI8
aa(lp1500
I14
aI13
aaI10
aa(lp1501
I1
a(lp1502
I5
aI-1
aa(lp1503
I5
aI4
aa(lp1504
I5
aI9
aa(lp1505
I10
aI-1
aa(lp1506
I10
aI4
aa(lp1507
I10
aI9
aa(lp1508
I15
aI-1
aa(lp1509
I15
aI4
aa(lp1510
I15
aI9
aaI10
aa(lp1511
I1
a(lp1512
I5
aI0
aa(lp1513
I5
aI5
aa(lp1514
I5
aI10
aa(lp1515
I10
aI0
aa(lp1516
I10
aI5
aa(lp1517
I10
aI10
aa(lp1518
I15
aI0
aa(lp1519
I15
aI5
aa(lp1520
I15
aI10
aaI10
aa(lp1521
I1
a(lp1522
I5
aI1
aa(lp1523
I5
aI6
aa(lp1524
I5
aI11
aa(lp1525
I10
aI1
aa(lp1526
I10
aI6
aa(lp1527
I10
aI11
aa(lp1528
I15
aI1
aa(lp1529
I15
aI6
aa(lp1530
I15
aI11
aaI10
aa(lp1531
I1
a(lp1532
I5
aI2
aa(lp1533
I5
aI7
aa(lp1534
I5
aI12
aa(lp1535
I10
aI2
aa(lp1536
I10
aI7
aa(lp1537
I10
aI12
aa(lp1538
I15
aI2
aa(lp1539
I15
aI7
aa(lp1540
I15
aI12
aaI10
aa(lp1541
I1
a(lp1542
I5
aI3
aa(lp1543
I5
aI8
aa(lp1544
I5
aI13
aa(lp1545
I10
aI3
aa(lp1546
I10
aI8
aa(lp1547
I10
aI13
aa(lp1548
I15
aI3
aa(lp1549
I15
aI8
aa(lp1550
I15
aI13
aaI10
aa(lp1551
I1
a(lp1552
I7
aI6
aa(lp1553
I7
aI11
aa(lp1554
I7
aI16
aa(lp1555
I12
aI6
aa(lp1556
I12
aI11
aa(lp1557
I12
aI16
aa(lp1558
I17
aI6
aa(lp1559
I17
aI11
aa(lp1560
I17
aI16
aaI10
aa(lp1561
I1
a(lp1562
I7
aI7
aa(lp1563
I7
aI12
aa(lp1564
I7
aI17
aa(lp1565
I12
aI7
aa(lp1566
I12
aI12
aa(lp1567
I12
aI17
aa(lp1568
I17
aI7
aa(lp1569
I17
aI12
aa(lp1570
I17
aI17
aaI10
aa(lp1571
I1
a(lp1572
I7
aI8
aa(lp1573
I7
aI13
aa(lp1574
I7
aI18
aa(lp1575
I12
aI8
aa(lp1576
I12
aI13
aa(lp1577
I12
aI18
aa(lp1578
I17
aI8
aa(lp1579
I17
aI13
aa(lp1580
I17
aI18
aaI10
aa(lp1581
I1
a(lp1582
I8
aI5
aa(lp1583
I8
aI10
aa(lp1584
I8
aI15
aa(lp1585
I13
aI5
aa(lp1586
I13
aI10
aa(lp1587
I13
aI15
aa(lp1588
I18
aI5
aa(lp1589
I18
aI10
aa(lp1590
I18
aI15
aaI10
aa(lp1591
I1
a(lp1592
I8
aI6
aa(lp1593
I8
aI11
aa(lp1594
I8
aI16
aa(lp1595
I13
aI6
aa(lp1596
I13
aI11
aa(lp1597
I13
aI16
aa(lp1598
I18
aI6
aa(lp1599
I18
aI11
aa(lp1600
I18
aI16
aaI10
aa(lp1601
I1
a(lp1602
I8
aI7
aa(lp1603
I8
aI12
aa(lp1604
I8
aI17
aa(lp1605
I13
aI7
aa(lp1606
I13
aI12
aa(lp1607
I13
aI17
aa(lp1608
I18
aI7
aa(lp1609
I18
aI12
aa(lp1610
I18
aI17
aaI10
aa(lp1611
I1
a(lp1612
I8
aI8
aa(lp1613
I8
aI13
aa(lp1614
I8
aI18
aa(lp1615
I13
aI8
aa(lp1616
I13
aI13
aa(lp1617
I13
aI18
aa(lp1618
I18
aI8
aa(lp1619
I18
aI13
aa(lp1620
I18
aI18
aaI10
aa(lp1621
I1
a(lp1622
I-1
aI-1
aa(lp1623
I-1
aI5
aa(lp1624
I-1
aI11
aa(lp1625
I5
aI-1
aa(lp1626
I5
aI5
aa(lp1627
I5
aI11
aa(lp1628
I11
aI-1
aa(lp1629
I11
aI5
aa(lp1630
I11
aI11
aaI12
aa(lp1631
I1
a(lp1632
I-1
aI0
aa(lp1633
I-1
aI6
aa(lp1634
I-1
aI12
aa(lp1635
I5
aI0
aa(lp1636
I5
aI6
aa(lp1637
I5
aI12
aa(lp1638
I11
aI0
aa(lp1639
I11
aI6
aa(lp1640
I11
aI12
aaI12
aa(lp1641
I1
a(lp1642
I-1
aI1
aa(lp1643
I-1
aI7
aa(lp1644
I-1
aI13
aa(lp1645
I5
aI1
aa(lp1646
I5
aI7
aa(lp1647
I5
aI13
aa(lp1648
I11
aI1
aa(lp1649
I11
aI7
aa(lp1650
I11
aI13
aaI12
aa(lp1651
I1
a(lp1652
I0
aI-1
aa(lp1653
I0
aI5
aa(lp1654
I0
aI11
aa(lp1655
I6
aI-1
aa(lp1656
I6
aI5
aa(lp1657
I6
aI11
aa(lp1658
I12
aI-1
aa(lp1659
I12
aI5
aa(lp1660
I12
aI11
aaI12
aa(lp1661
I1
a(lp1662
I0
aI0
aa(lp1663
I0
aI6
aa(lp1664
I0
aI12
aa(lp1665
I6
aI0
aa(lp1666
I6
aI6
aa(lp1667
I6
aI12
aa(lp1668
I12
aI0
aa(lp1669
I12
aI6
aa(lp1670
I12
aI12
aaI12
aa(lp1671
I1
a(lp1672
I0
aI1
aa(lp1673
I0
aI7
aa(lp1674
I0
aI13
aa(lp1675
I6
aI1
aa(lp1676
I6
aI7
aa(lp1677
I6
aI13
aa(lp1678
I12
aI1
aa(lp1679
I12
aI7
aa(lp1680
I12
aI13
aaI12
aa(lp1681
I1
a(lp1682
I0
aI2
aa(lp1683
I0
aI8
aa(lp1684
I0
aI14
aa(lp1685
I6
aI2
aa(lp1686
I6
aI8
aa(lp1687
I6
aI14
aa(lp1688
I12
aI2
aa(lp1689
I12
aI8
aa(lp1690
I12
aI14
aaI12
aa(lp1691
I1
a(lp1692
I1
aI-1
aa(lp1693
I1
aI5
aa(lp1694
I1
aI11
aa(lp1695
I7
aI-1
aa(lp1696
I7
aI5
aa(lp1697
I7
aI11
aa(lp1698
I13
aI-1
aa(lp1699
I13
aI5
aa(lp1700
I13
aI11
aaI12
aa(lp1701
I1
a(lp1702
I1
aI0
aa(lp1703
I1
aI6
aa(lp1704
I1
aI12
aa(lp1705
I7
aI0
aa(lp1706
I7
aI6
aa(lp1707
I7
aI12
aa(lp1708
I13
aI0
aa(lp1709
I13
aI6
aa(lp1710
I13
aI12
aaI12
aa(lp1711
I1
a(lp1712
I1
aI1
aa(lp1713
I1
aI7
aa(lp1714
I1
aI13
aa(lp1715
I7
aI1
aa(lp1716
I7
aI7
aa(lp1717
I7
aI13
aa(lp1718
I13
aI1
aa(lp1719
I13
aI7
aa(lp1720
I13
aI13
aaI12
aa(lp1721
I1
a(lp1722
I1
aI2
aa(lp1723
I1
aI8
aa(lp1724
I1
aI14
aa(lp1725
I7
aI2
aa(lp1726
I7
aI8
aa(lp1727
I7
aI14
aa(lp1728
I13
aI2
aa(lp1729
I13
aI8
aa(lp1730
I13
aI14
aaI12
aa(lp1731
I1
a(lp1732
I2
aI-1
aa(lp1733
I2
aI5
aa(lp1734
I2
aI11
aa(lp1735
I8
aI-1
aa(lp1736
I8
aI5
aa(lp1737
I8
aI11
aa(lp1738
I14
aI-1
aa(lp1739
I14
aI5
aa(lp1740
I14
aI11
aaI12
aa(lp1741
I1
a(lp1742
I2
aI0
aa(lp1743
I2
aI6
aa(lp1744
I2
aI12
aa(lp1745
I8
aI0
aa(lp1746
I8
aI6
aa(lp1747
I8
aI12
aa(lp1748
I14
aI0
aa(lp1749
I14
aI6
aa(lp1750
I14
aI12
aaI12
aa(lp1751
I1
a(lp1752
I2
aI1
aa(lp1753
I2
aI7
aa(lp1754
I2
aI13
aa(lp1755
I8
aI1
aa(lp1756
I8
aI7
aa(lp1757
I8
aI13
aa(lp1758
I14
aI1
aa(lp1759
I14
aI7
aa(lp1760
I14
aI13
aaI12
aa(lp1761
I1
a(lp1762
I2
aI2
aa(lp1763
I2
aI8
aa(lp1764
I2
aI14
aa(lp1765
I8
aI2
aa(lp1766
I8
aI8
aa(lp1767
I8
aI14
aa(lp1768
I14
aI2
aa(lp1769
I14
aI8
aa(lp1770
I14
aI14
aaI12
aa(lp1771
I1
a(lp1772
I3
aI-1
aa(lp1773
I3
aI5
aa(lp1774
I3
aI11
aa(lp1775
I9
aI-1
aa(lp1776
I9
aI5
aa(lp1777
I9
aI11
aa(lp1778
I15
aI-1
aa(lp1779
I15
aI5
aa(lp1780
I15
aI11
aaI12
aa(lp1781
I1
a(lp1782
I3
aI0
aa(lp1783
I3
aI6
aa(lp1784
I3
aI12
aa(lp1785
I9
aI0
aa(lp1786
I9
aI6
aa(lp1787
I9
aI12
aa(lp1788
I15
aI0
aa(lp1789
I15
aI6
aa(lp1790
I15
aI12
aaI12
aa(lp1791
I1
a(lp1792
I3
aI1
aa(lp1793
I3
aI7
aa(lp1794
I3
aI13
aa(lp1795
I9
aI1
aa(lp1796
I9
aI7
aa(lp1797
I9
aI13
aa(lp1798
I15
aI1
aa(lp1799
I15
aI7
aa(lp1800
I15
aI13
aaI12
aa(lp1801
I1
a(lp1802
I3
aI2
aa(lp1803
I3
aI8
aa(lp1804
I3
aI14
aa(lp1805
I9
aI2
aa(lp1806
I9
aI8
aa(lp1807
I9
aI14
aa(lp1808
I15
aI2
aa(lp1809
I15
aI8
aa(lp1810
I15
aI14
aaI12
aa(lp1811
I1
a(lp1812
I4
aI-1
aa(lp1813
I4
aI5
aa(lp1814
I4
aI11
aa(lp1815
I10
aI-1
aa(lp1816
I10
aI5
aa(lp1817
I10
aI11
aa(lp1818
I16
aI-1
aa(lp1819
I16
aI5
aa(lp1820
I16
aI11
aaI12
aa(lp1821
I1
a(lp1822
I4
aI0
aa(lp1823
I4
aI6
aa(lp1824
I4
aI12
aa(lp1825
I10
aI0
aa(lp1826
I10
aI6
aa(lp1827
I10
aI12
aa(lp1828
I16
aI0
aa(lp1829
I16
aI6
aa(lp1830
I16
aI12
aaI12
aa(lp1831
I1
a(lp1832
I4
aI1
aa(lp1833
I4
aI7
aa(lp1834
I4
aI13
aa(lp1835
I10
aI1
aa(lp1836
I10
aI7
aa(lp1837
I10
aI13
aa(lp1838
I16
aI1
aa(lp1839
I16
aI7
aa(lp1840
I16
aI13
aaI12
aa(lp1841
I1
a(lp1842
I4
aI2
aa(lp1843
I4
aI8
aa(lp1844
I4
aI14
aa(lp1845
I10
aI2
aa(lp1846
I10
aI8
aa(lp1847
I10
aI14
aa(lp1848
I16
aI2
aa(lp1849
I16
aI8
aa(lp1850
I16
aI14
aaI12
aa(lp1851
I1
a(lp1852
I5
aI2
aa(lp1853
I5
aI8
aa(lp1854
I5
aI14
aa(lp1855
I11
aI2
aa(lp1856
I11
aI8
aa(lp1857
I11
aI14
aa(lp1858
I17
aI2
aa(lp1859
I17
aI8
aa(lp1860
I17
aI14
aaI12
aa(lp1861
I1
a(lp1862
I6
aI4
aa(lp1863
I6
aI10
aa(lp1864
I6
aI16
aa(lp1865
I12
aI4
aa(lp1866
I12
aI10
aa(lp1867
I12
aI16
aa(lp1868
I18
aI4
aa(lp1869
I18
aI10
aa(lp1870
I18
aI16
aaI12
aa(lp1871
I1
a(lp1872
I6
aI5
aa(lp1873
I6
aI11
aa(lp1874
I6
aI17
aa(lp1875
I12
aI5
aa(lp1876
I12
aI11
aa(lp1877
I12
aI17
aa(lp1878
I18
aI5
aa(lp1879
I18
aI11
aa(lp1880
I18
aI17
aaI12
aa(lp1881
I1
a(lp1882
I6
aI6
aa(lp1883
I6
aI12
aa(lp1884
I6
aI18
aa(lp1885
I12
aI6
aa(lp1886
I12
aI12
aa(lp1887
I12
aI18
aa(lp1888
I18
aI6
aa(lp1889
I18
aI12
aa(lp1890
I18
aI18
aaI12
aa(lp1891
I1
a(lp1892
I-1
aI-1
aa(lp1893
I-1
aI6
aa(lp1894
I-1
aI13
aa(lp1895
I6
aI-1
aa(lp1896
I6
aI6
aa(lp1897
I6
aI13
aa(lp1898
I13
aI-1
aa(lp1899
I13
aI6
aa(lp1900
I13
aI13
aaI14
aa(lp1901
I1
a(lp1902
I-1
aI0
aa(lp1903
I-1
aI7
aa(lp1904
I-1
aI14
aa(lp1905
I6
aI0
aa(lp1906
I6
aI7
aa(lp1907
I6
aI14
aa(lp1908
I13
aI0
aa(lp1909
I13
aI7
aa(lp1910
I13
aI14
aaI14
aa(lp1911
I1
a(lp1912
I-1
aI1
aa(lp1913
I-1
aI8
aa(lp1914
I-1
aI15
aa(lp1915
I6
aI1
aa(lp1916
I6
aI8
aa(lp1917
I6
aI15
aa(lp1918
I13
aI1
aa(lp1919
I13
aI8
aa(lp1920
I13
aI15
aaI14
aa(lp1921
I1
a(lp1922
I0
aI-1
aa(lp1923
I0
aI6
aa(lp1924
I0
aI13
aa(lp1925
I7
aI-1
aa(lp1926
I7
aI6
aa(lp1927
I7
aI13
aa(lp1928
I14
aI-1
aa(lp1929
I14
aI6
aa(lp1930
I14
aI13
aaI14
aa(lp1931
I1
a(lp1932
I0
aI0
aa(lp1933
I0
aI7
aa(lp1934
I0
aI14
aa(lp1935
I7
aI0
aa(lp1936
I7
aI7
aa(lp1937
I7
aI14
aa(lp1938
I14
aI0
aa(lp1939
I14
aI7
aa(lp1940
I14
aI14
aaI14
aa(lp1941
I1
a(lp1942
I0
aI1
aa(lp1943
I0
aI8
aa(lp1944
I0
aI15
aa(lp1945
I7
aI1
aa(lp1946
I7
aI8
aa(lp1947
I7
aI15
aa(lp1948
I14
aI1
aa(lp1949
I14
aI8
aa(lp1950
I14
aI15
aaI14
aa(lp1951
I1
a(lp1952
I1
aI-1
aa(lp1953
I1
aI6
aa(lp1954
I1
aI13
aa(lp1955
I8
aI-1
aa(lp1956
I8
aI6
aa(lp1957
I8
aI13
aa(lp1958
I15
aI-1
aa(lp1959
I15
aI6
aa(lp1960
I15
aI13
aaI14
aa(lp1961
I1
a(lp1962
I1
aI0
aa(lp1963
I1
aI7
aa(lp1964
I1
aI14
aa(lp1965
I8
aI0
aa(lp1966
I8
aI7
aa(lp1967
I8
aI14
aa(lp1968
I15
aI0
aa(lp1969
I15
aI7
aa(lp1970
I15
aI14
aaI14
aa(lp1971
I1
a(lp1972
I1
aI1
aa(lp1973
I1
aI8
aa(lp1974
I1
aI15
aa(lp1975
I8
aI1
aa(lp1976
I8
aI8
aa(lp1977
I8
aI15
aa(lp1978
I15
aI1
aa(lp1979
I15
aI8
aa(lp1980
I15
aI15
aaI14
aa(lp1981
I1
a(lp1982
I2
aI-1
aa(lp1983
I2
aI6
aa(lp1984
I2
aI13
aa(lp1985
I9
aI-1
aa(lp1986
I9
aI6
aa(lp1987
I9
aI13
aa(lp1988
I16
aI-1
aa(lp1989
I16
aI6
aa(lp1990
I16
aI13
aaI14
aa(lp1991
I1
a(lp1992
I2
aI0
aa(lp1993
I2
aI7
aa(lp1994
I2
aI14
aa(lp1995
I9
aI0
aa(lp1996
I9
aI7
aa(lp1997
I9
aI14
aa(lp1998
I16
aI0
aa(lp1999
I16
aI7
aa(lp2000
I16
aI14
aaI14
aa(lp2001
I1
a(lp2002
I2
aI1
aa(lp2003
I2
aI8
aa(lp2004
I2
aI15
aa(lp2005
I9
aI1
aa(lp2006
I9
aI8
aa(lp2007
I9
aI15
aa(lp2008
I16
aI1
aa(lp2009
I16
aI8
aa(lp2010
I16
aI15
aaI14
aa(lp2011
I1
a(lp2012
I3
aI-1
aa(lp2013
I3
aI6
aa(lp2014
I3
aI13
aa(lp2015
I10
aI-1
aa(lp2016
I10
aI6
aa(lp2017
I10
aI13
aa(lp2018
I17
aI-1
aa(lp2019
I17
aI6
aa(lp2020
I17
aI13
aaI14
aa(lp2021
I1
a(lp2022
I3
aI0
aa(lp2023
I3
aI7
aa(lp2024
I3
aI14
aa(lp2025
I10
aI0
aa(lp2026
I10
aI7
aa(lp2027
I10
aI14
aa(lp2028
I17
aI0
aa(lp2029
I17
aI7
aa(lp2030
I17
aI14
aaI14
aa(lp2031
I1
a(lp2032
I3
aI1
aa(lp2033
I3
aI8
aa(lp2034
I3
aI15
aa(lp2035
I10
aI1
aa(lp2036
I10
aI8
aa(lp2037
I10
aI15
aa(lp2038
I17
aI1
aa(lp2039
I17
aI8
aa(lp2040
I17
aI15
aaI14
aa(lp2041
I1
a(lp2042
I4
aI1
aa(lp2043
I4
aI8
aa(lp2044
I4
aI15
aa(lp2045
I11
aI1
aa(lp2046
I11
aI8
aa(lp2047
I11
aI15
aa(lp2048
I18
aI1
aa(lp2049
I18
aI8
aa(lp2050
I18
aI15
aaI14
aa(lp2051
I1
a(lp2052
I-1
aI-1
aa(lp2053
I-1
aI7
aa(lp2054
I-1
aI15
aa(lp2055
I7
aI-1
aa(lp2056
I7
aI7
aa(lp2057
I7
aI15
aa(lp2058
I15
aI-1
aa(lp2059
I15
aI7
aa(lp2060
I15
aI15
aaI16
aa(lp2061
I1
a(lp2062
I-1
aI0
aa(lp2063
I-1
aI8
aa(lp2064
I-1
aI16
aa(lp2065
I7
aI0
aa(lp2066
I7
aI8
aa(lp2067
I7
aI16
aa(lp2068
I15
aI0
aa(lp2069
I15
aI8
aa(lp2070
I15
aI16
aaI16
aa(lp2071
I1
a(lp2072
I0
aI-1
aa(lp2073
I0
aI7
aa(lp2074
I0
aI15
aa(lp2075
I8
aI-1
aa(lp2076
I8
aI7
aa(lp2077
I8
aI15
aa(lp2078
I16
aI-1
aa(lp2079
I16
aI7
aa(lp2080
I16
aI15
aaI16
aa(lp2081
I1
a(lp2082
I0
aI0
aa(lp2083
I0
aI8
aa(lp2084
I0
aI16
aa(lp2085
I8
aI0
aa(lp2086
I8
aI8
aa(lp2087
I8
aI16
aa(lp2088
I16
aI0
aa(lp2089
I16
aI8
aa(lp2090
I16
aI16
aaI16
aa(lp2091
I1
a(lp2092
I1
aI-1
aa(lp2093
I1
aI7
aa(lp2094
I1
aI15
aa(lp2095
I9
aI-1
aa(lp2096
I9
aI7
aa(lp2097
I9
aI15
aa(lp2098
I17
aI-1
aa(lp2099
I17
aI7
aa(lp2100
I17
aI15
aaI16
aa(lp2101
I1
a(lp2102
I1
aI0
aa(lp2103
I1
aI8
aa(lp2104
I1
aI16
aa(lp2105
I9
aI0
aa(lp2106
I9
aI8
aa(lp2107
I9
aI16
aa(lp2108
I17
aI0
aa(lp2109
I17
aI8
aa(lp2110
I17
aI16
aaI16
aa(lp2111
I1
a(lp2112
I2
aI-1
aa(lp2113
I2
aI7
aa(lp2114
I2
aI15
aa(lp2115
I10
aI-1
aa(lp2116
I10
aI7
aa(lp2117
I10
aI15
aa(lp2118
I18
aI-1
aa(lp2119
I18
aI7
aa(lp2120
I18
aI15
aaI16
aa(lp2121
I1
a(lp2122
I2
aI0
aa(lp2123
I2
aI8
aa(lp2124
I2
aI16
aa(lp2125
I10
aI0
aa(lp2126
I10
aI8
aa(lp2127
I10
aI16
aa(lp2128
I18
aI0
aa(lp2129
I18
aI8
aa(lp2130
I18
aI16
aaI16
aa(lp2131
I1
a(lp2132
I-1
aI-1
aa(lp2133
I-1
aI8
aa(lp2134
I-1
aI17
aa(lp2135
I8
aI-1
aa(lp2136
I8
aI8
aa(lp2137
I8
aI17
aa(lp2138
I17
aI-1
aa(lp2139
I17
aI8
aa(lp2140
I17
aI17
aaI18
aa(lp2141
I1
a(lp2142
I0
aI-1
aa(lp2143
I0
aI8
aa(lp2144
I0
aI17
aa(lp2145
I9
aI-1
aa(lp2146
I9
aI8
aa(lp2147
I9
aI17
aa(lp2148
I18
aI-1
aa(lp2149
I18
aI8
aa(lp2150
I18
aI17
aaI18
aa(lp2151
I-1
a(lp2152
I-1
aI4
aa(lp2153
I-1
aI6
aa(lp2154
I-1
aI8
aa(lp2155
I1
aI4
aa(lp2156
I1
aI6
aa(lp2157
I1
aI8
aa(lp2158
I3
aI4
aa(lp2159
I3
aI6
aa(lp2160
I3
aI8
aaI4
aa(lp2161
I-1
a(lp2162
I-1
aI5
aa(lp2163
I-1
aI7
aa(lp2164
I-1
aI9
aa(lp2165
I1
aI5
aa(lp2166
I1
aI7
aa(lp2167
I1
aI9
aa(lp2168
I3
aI5
aa(lp2169
I3
aI7
aa(lp2170
I3
aI9
aaI4
aa(lp2171
I-1
a(lp2172
I-1
aI6
aa(lp2173
I-1
aI8
aa(lp2174
I-1
aI10
aa(lp2175
I1
aI6
aa(lp2176
I1
aI8
aa(lp2177
I1
aI10
aa(lp2178
I3
aI6
aa(lp2179
I3
aI8
aa(lp2180
I3
aI10
aaI4
aa(lp2181
I-1
a(lp2182
I-1
aI12
aa(lp2183
I-1
aI14
aa(lp2184
I-1
aI16
aa(lp2185
I1
aI12
aa(lp2186
I1
aI14
aa(lp2187
I1
aI16
aa(lp2188
I3
aI12
aa(lp2189
I3
aI14
aa(lp2190
I3
aI16
aaI4
aa(lp2191
I-1
a(lp2192
I-1
aI13
aa(lp2193
I-1
aI15
aa(lp2194
I-1
aI17
aa(lp2195
I1
aI13
aa(lp2196
I1
aI15
aa(lp2197
I1
aI17
aa(lp2198
I3
aI13
aa(lp2199
I3
aI15
aa(lp2200
I3
aI17
aaI4
aa(lp2201
I-1
a(lp2202
I-1
aI14
aa(lp2203
I-1
aI16
aa(lp2204
I-1
aI18
aa(lp2205
I1
aI14
aa(lp2206
I1
aI16
aa(lp2207
I1
aI18
aa(lp2208
I3
aI14
aa(lp2209
I3
aI16
aa(lp2210
I3
aI18
aaI4
aa(lp2211
I-1
a(lp2212
I0
aI5
aa(lp2213
I0
aI7
aa(lp2214
I0
aI9
aa(lp2215
I2
aI5
aa(lp2216
I2
aI7
aa(lp2217
I2
aI9
aa(lp2218
I4
aI5
aa(lp2219
I4
aI7
aa(lp2220
I4
aI9
aaI4
aa(lp2221
I-1
a(lp2222
I0
aI6
aa(lp2223
I0
aI8
aa(lp2224
I0
aI10
aa(lp2225
I2
aI6
aa(lp2226
I2
aI8
aa(lp2227
I2
aI10
aa(lp2228
I4
aI6
aa(lp2229
I4
aI8
aa(lp2230
I4
aI10
aaI4
aa(lp2231
I-1
a(lp2232
I0
aI13
aa(lp2233
I0
aI15
aa(lp2234
I0
aI17
aa(lp2235
I2
aI13
aa(lp2236
I2
aI15
aa(lp2237
I2
aI17
aa(lp2238
I4
aI13
aa(lp2239
I4
aI15
aa(lp2240
I4
aI17
aaI4
aa(lp2241
I-1
a(lp2242
I0
aI14
aa(lp2243
I0
aI16
aa(lp2244
I0
aI18
aa(lp2245
I2
aI14
aa(lp2246
I2
aI16
aa(lp2247
I2
aI18
aa(lp2248
I4
aI14
aa(lp2249
I4
aI16
aa(lp2250
I4
aI18
aaI4
aa(lp2251
I-1
a(lp2252
I1
aI6
aa(lp2253
I1
aI8
aa(lp2254
I1
aI10
aa(lp2255
I3
aI6
aa(lp2256
I3
aI8
aa(lp2257
I3
aI10
aa(lp2258
I5
aI6
aa(lp2259
I5
aI8
aa(lp2260
I5
aI10
aaI4
aa(lp2261
I-1
a(lp2262
I4
aI-1
aa(lp2263
I4
aI1
aa(lp2264
I4
aI3
aa(lp2265
I6
aI-1
aa(lp2266
I6
aI1
aa(lp2267
I6
aI3
aa(lp2268
I8
aI-1
aa(lp2269
I8
aI1
aa(lp2270
I8
aI3
aaI4
aa(lp2271
I-1
a(lp2272
I4
aI0
aa(lp2273
I4
aI2
aa(lp2274
I4
aI4
aa(lp2275
I6
aI0
aa(lp2276
I6
aI2
aa(lp2277
I6
aI4
aa(lp2278
I8
aI0
aa(lp2279
I8
aI2
aa(lp2280
I8
aI4
aaI4
aa(lp2281
I-1
a(lp2282
I5
aI-1
aa(lp2283
I5
aI1
aa(lp2284
I5
aI3
aa(lp2285
I7
aI-1
aa(lp2286
I7
aI1
aa(lp2287
I7
aI3
aa(lp2288
I9
aI-1
aa(lp2289
I9
aI1
aa(lp2290
I9
aI3
aaI4
aa(lp2291
I-1
a(lp2292
I5
aI0
aa(lp2293
I5
aI2
aa(lp2294
I5
aI4
aa(lp2295
I7
aI0
aa(lp2296
I7
aI2
aa(lp2297
I7
aI4
aa(lp2298
I9
aI0
aa(lp2299
I9
aI2
aa(lp2300
I9
aI4
aaI4
aa(lp2301
I-1
a(lp2302
I5
aI11
aa(lp2303
I5
aI13
aa(lp2304
I5
aI15
aa(lp2305
I7
aI11
aa(lp2306
I7
aI13
aa(lp2307
I7
aI15
aa(lp2308
I9
aI11
aa(lp2309
I9
aI13
aa(lp2310
I9
aI15
aaI4
aa(lp2311
I-1
a(lp2312
I6
aI11
aa(lp2313
I6
aI13
aa(lp2314
I6
aI15
aa(lp2315
I8
aI11
aa(lp2316
I8
aI13
aa(lp2317
I8
aI15
aa(lp2318
I10
aI11
aa(lp2319
I10
aI13
aa(lp2320
I10
aI15
aaI4
aa(lp2321
I-1
a(lp2322
I8
aI8
aa(lp2323
I8
aI10
aa(lp2324
I8
aI12
aa(lp2325
I10
aI8
aa(lp2326
I10
aI10
aa(lp2327
I10
aI12
aa(lp2328
I12
aI8
aa(lp2329
I12
aI10
aa(lp2330
I12
aI12
aaI4
aa(lp2331
I-1
a(lp2332
I8
aI9
aa(lp2333
I8
aI11
aa(lp2334
I8
aI13
aa(lp2335
I10
aI9
aa(lp2336
I10
aI11
aa(lp2337
I10
aI13
aa(lp2338
I12
aI9
aa(lp2339
I12
aI11
aa(lp2340
I12
aI13
aaI4
aa(lp2341
I-1
a(lp2342
I9
aI2
aa(lp2343
I9
aI4
aa(lp2344
I9
aI6
aa(lp2345
I11
aI2
aa(lp2346
I11
aI4
aa(lp2347
I11
aI6
aa(lp2348
I13
aI2
aa(lp2349
I13
aI4
aa(lp2350
I13
aI6
aaI4
aa(lp2351
I-1
a(lp2352
I11
aI5
aa(lp2353
I11
aI7
aa(lp2354
I11
aI9
aa(lp2355
I13
aI5
aa(lp2356
I13
aI7
aa(lp2357
I13
aI9
aa(lp2358
I15
aI5
aa(lp2359
I15
aI7
aa(lp2360
I15
aI9
aaI4
aa(lp2361
I-1
a(lp2362
I11
aI12
aa(lp2363
I11
aI14
aa(lp2364
I11
aI16
aa(lp2365
I13
aI12
aa(lp2366
I13
aI14
aa(lp2367
I13
aI16
aa(lp2368
I15
aI12
aa(lp2369
I15
aI14
aa(lp2370
I15
aI16
aaI4
aa(lp2371
I-1
a(lp2372
I12
aI5
aa(lp2373
I12
aI7
aa(lp2374
I12
aI9
aa(lp2375
I14
aI5
aa(lp2376
I14
aI7
aa(lp2377
I14
aI9
aa(lp2378
I16
aI5
aa(lp2379
I16
aI7
aa(lp2380
I16
aI9
aaI4
aa(lp2381
I-1
a(lp2382
I13
aI0
aa(lp2383
I13
aI2
aa(lp2384
I13
aI4
aa(lp2385
I15
aI0
aa(lp2386
I15
aI2
aa(lp2387
I15
aI4
aa(lp2388
I17
aI0
aa(lp2389
I17
aI2
aa(lp2390
I17
aI4
aaI4
aa(lp2391
I-1
a(lp2392
I13
aI1
aa(lp2393
I13
aI3
aa(lp2394
I13
aI5
aa(lp2395
I15
aI1
aa(lp2396
I15
aI3
aa(lp2397
I15
aI5
aa(lp2398
I17
aI1
aa(lp2399
I17
aI3
aa(lp2400
I17
aI5
aaI4
aa(lp2401
I-1
a(lp2402
I13
aI2
aa(lp2403
I13
aI4
aa(lp2404
I13
aI6
aa(lp2405
I15
aI2
aa(lp2406
I15
aI4
aa(lp2407
I15
aI6
aa(lp2408
I17
aI2
aa(lp2409
I17
aI4
aa(lp2410
I17
aI6
aaI4
aa(lp2411
I-1
a(lp2412
I14
aI0
aa(lp2413
I14
aI2
aa(lp2414
I14
aI4
aa(lp2415
I16
aI0
aa(lp2416
I16
aI2
aa(lp2417
I16
aI4
aa(lp2418
I18
aI0
aa(lp2419
I18
aI2
aa(lp2420
I18
aI4
aaI4
aa(lp2421
I-1
a(lp2422
I14
aI1
aa(lp2423
I14
aI3
aa(lp2424
I14
aI5
aa(lp2425
I16
aI1
aa(lp2426
I16
aI3
aa(lp2427
I16
aI5
aa(lp2428
I18
aI1
aa(lp2429
I18
aI3
aa(lp2430
I18
aI5
aaI4
aa(lp2431
I-1
a(lp2432
I14
aI2
aa(lp2433
I14
aI4
aa(lp2434
I14
aI6
aa(lp2435
I16
aI2
aa(lp2436
I16
aI4
aa(lp2437
I16
aI6
aa(lp2438
I18
aI2
aa(lp2439
I18
aI4
aa(lp2440
I18
aI6
aaI4
aa(lp2441
I-1
a(lp2442
I-1
aI3
aa(lp2443
I-1
aI6
aa(lp2444
I-1
aI9
aa(lp2445
I2
aI3
aa(lp2446
I2
aI6
aa(lp2447
I2
aI9
aa(lp2448
I5
aI3
aa(lp2449
I5
aI6
aa(lp2450
I5
aI9
aaI6
aa(lp2451
I-1
a(lp2452
I-1
aI4
aa(lp2453
I-1
aI7
aa(lp2454
I-1
aI10
aa(lp2455
I2
aI4
aa(lp2456
I2
aI7
aa(lp2457
I2
aI10
aa(lp2458
I5
aI4
aa(lp2459
I5
aI7
aa(lp2460
I5
aI10
aaI6
aa(lp2461
I-1
a(lp2462
I-1
aI5
aa(lp2463
I-1
aI8
aa(lp2464
I-1
aI11
aa(lp2465
I2
aI5
aa(lp2466
I2
aI8
aa(lp2467
I2
aI11
aa(lp2468
I5
aI5
aa(lp2469
I5
aI8
aa(lp2470
I5
aI11
aaI6
aa(lp2471
I-1
a(lp2472
I-1
aI11
aa(lp2473
I-1
aI14
aa(lp2474
I-1
aI17
aa(lp2475
I2
aI11
aa(lp2476
I2
aI14
aa(lp2477
I2
aI17
aa(lp2478
I5
aI11
aa(lp2479
I5
aI14
aa(lp2480
I5
aI17
aaI6
aa(lp2481
I-1
a(lp2482
I-1
aI12
aa(lp2483
I-1
aI15
aa(lp2484
I-1
aI18
aa(lp2485
I2
aI12
aa(lp2486
I2
aI15
aa(lp2487
I2
aI18
aa(lp2488
I5
aI12
aa(lp2489
I5
aI15
aa(lp2490
I5
aI18
aaI6
aa(lp2491
I-1
a(lp2492
I0
aI4
aa(lp2493
I0
aI7
aa(lp2494
I0
aI10
aa(lp2495
I3
aI4
aa(lp2496
I3
aI7
aa(lp2497
I3
aI10
aa(lp2498
I6
aI4
aa(lp2499
I6
aI7
aa(lp2500
I6
aI10
aaI6
aa(lp2501
I-1
a(lp2502
I0
aI5
aa(lp2503
I0
aI8
aa(lp2504
I0
aI11
aa(lp2505
I3
aI5
aa(lp2506
I3
aI8
aa(lp2507
I3
aI11
aa(lp2508
I6
aI5
aa(lp2509
I6
aI8
aa(lp2510
I6
aI11
aaI6
aa(lp2511
I-1
a(lp2512
I0
aI12
aa(lp2513
I0
aI15
aa(lp2514
I0
aI18
aa(lp2515
I3
aI12
aa(lp2516
I3
aI15
aa(lp2517
I3
aI18
aa(lp2518
I6
aI12
aa(lp2519
I6
aI15
aa(lp2520
I6
aI18
aaI6
aa(lp2521
I-1
a(lp2522
I1
aI5
aa(lp2523
I1
aI8
aa(lp2524
I1
aI11
aa(lp2525
I4
aI5
aa(lp2526
I4
aI8
aa(lp2527
I4
aI11
aa(lp2528
I7
aI5
aa(lp2529
I7
aI8
aa(lp2530
I7
aI11
aaI6
aa(lp2531
I-1
a(lp2532
I1
aI6
aa(lp2533
I1
aI9
aa(lp2534
I1
aI12
aa(lp2535
I4
aI6
aa(lp2536
I4
aI9
aa(lp2537
I4
aI12
aa(lp2538
I7
aI6
aa(lp2539
I7
aI9
aa(lp2540
I7
aI12
aaI6
aa(lp2541
I-1
a(lp2542
I2
aI-1
aa(lp2543
I2
aI2
aa(lp2544
I2
aI5
aa(lp2545
I5
aI-1
aa(lp2546
I5
aI2
aa(lp2547
I5
aI5
aa(lp2548
I8
aI-1
aa(lp2549
I8
aI2
aa(lp2550
I8
aI5
aaI6
aa(lp2551
I-1
a(lp2552
I2
aI0
aa(lp2553
I2
aI3
aa(lp2554
I2
aI6
aa(lp2555
I5
aI0
aa(lp2556
I5
aI3
aa(lp2557
I5
aI6
aa(lp2558
I8
aI0
aa(lp2559
I8
aI3
aa(lp2560
I8
aI6
aaI6
aa(lp2561
I-1
a(lp2562
I2
aI6
aa(lp2563
I2
aI9
aa(lp2564
I2
aI12
aa(lp2565
I5
aI6
aa(lp2566
I5
aI9
aa(lp2567
I5
aI12
aa(lp2568
I8
aI6
aa(lp2569
I8
aI9
aa(lp2570
I8
aI12
aaI6
aa(lp2571
I-1
a(lp2572
I2
aI7
aa(lp2573
I2
aI10
aa(lp2574
I2
aI13
aa(lp2575
I5
aI7
aa(lp2576
I5
aI10
aa(lp2577
I5
aI13
aa(lp2578
I8
aI7
aa(lp2579
I8
aI10
aa(lp2580
I8
aI13
aaI6
aa(lp2581
I-1
a(lp2582
I2
aI8
aa(lp2583
I2
aI11
aa(lp2584
I2
aI14
aa(lp2585
I5
aI8
aa(lp2586
I5
aI11
aa(lp2587
I5
aI14
aa(lp2588
I8
aI8
aa(lp2589
I8
aI11
aa(lp2590
I8
aI14
aaI6
aa(lp2591
I-1
a(lp2592
I3
aI-1
aa(lp2593
I3
aI2
aa(lp2594
I3
aI5
aa(lp2595
I6
aI-1
aa(lp2596
I6
aI2
aa(lp2597
I6
aI5
aa(lp2598
I9
aI-1
aa(lp2599
I9
aI2
aa(lp2600
I9
aI5
aaI6
aa(lp2601
I-1
a(lp2602
I3
aI7
aa(lp2603
I3
aI10
aa(lp2604
I3
aI13
aa(lp2605
I6
aI7
aa(lp2606
I6
aI10
aa(lp2607
I6
aI13
aa(lp2608
I9
aI7
aa(lp2609
I9
aI10
aa(lp2610
I9
aI13
aaI6
aa(lp2611
I-1
a(lp2612
I3
aI8
aa(lp2613
I3
aI11
aa(lp2614
I3
aI14
aa(lp2615
I6
aI8
aa(lp2616
I6
aI11
aa(lp2617
I6
aI14
aa(lp2618
I9
aI8
aa(lp2619
I9
aI11
aa(lp2620
I9
aI14
aaI6
aa(lp2621
I-1
a(lp2622
I3
aI9
aa(lp2623
I3
aI12
aa(lp2624
I3
aI15
aa(lp2625
I6
aI9
aa(lp2626
I6
aI12
aa(lp2627
I6
aI15
aa(lp2628
I9
aI9
aa(lp2629
I9
aI12
aa(lp2630
I9
aI15
aaI6
aa(lp2631
I-1
a(lp2632
I4
aI-1
aa(lp2633
I4
aI2
aa(lp2634
I4
aI5
aa(lp2635
I7
aI-1
aa(lp2636
I7
aI2
aa(lp2637
I7
aI5
aa(lp2638
I10
aI-1
aa(lp2639
I10
aI2
aa(lp2640
I10
aI5
aaI6
aa(lp2641
I-1
a(lp2642
I4
aI8
aa(lp2643
I4
aI11
aa(lp2644
I4
aI14
aa(lp2645
I7
aI8
aa(lp2646
I7
aI11
aa(lp2647
I7
aI14
aa(lp2648
I10
aI8
aa(lp2649
I10
aI11
aa(lp2650
I10
aI14
aaI6
aa(lp2651
I-1
a(lp2652
I4
aI9
aa(lp2653
I4
aI12
aa(lp2654
I4
aI15
aa(lp2655
I7
aI9
aa(lp2656
I7
aI12
aa(lp2657
I7
aI15
aa(lp2658
I10
aI9
aa(lp2659
I10
aI12
aa(lp2660
I10
aI15
aaI6
aa(lp2661
I-1
a(lp2662
I4
aI10
aa(lp2663
I4
aI13
aa(lp2664
I4
aI16
aa(lp2665
I7
aI10
aa(lp2666
I7
aI13
aa(lp2667
I7
aI16
aa(lp2668
I10
aI10
aa(lp2669
I10
aI13
aa(lp2670
I10
aI16
aaI6
aa(lp2671
I-1
a(lp2672
I5
aI8
aa(lp2673
I5
aI11
aa(lp2674
I5
aI14
aa(lp2675
I8
aI8
aa(lp2676
I8
aI11
aa(lp2677
I8
aI14
aa(lp2678
I11
aI8
aa(lp2679
I11
aI11
aa(lp2680
I11
aI14
aaI6
aa(lp2681
I-1
a(lp2682
I5
aI9
aa(lp2683
I5
aI12
aa(lp2684
I5
aI15
aa(lp2685
I8
aI9
aa(lp2686
I8
aI12
aa(lp2687
I8
aI15
aa(lp2688
I11
aI9
aa(lp2689
I11
aI12
aa(lp2690
I11
aI15
aaI6
aa(lp2691
I-1
a(lp2692
I5
aI10
aa(lp2693
I5
aI13
aa(lp2694
I5
aI16
aa(lp2695
I8
aI10
aa(lp2696
I8
aI13
aa(lp2697
I8
aI16
aa(lp2698
I11
aI10
aa(lp2699
I11
aI13
aa(lp2700
I11
aI16
aaI6
aa(lp2701
I-1
a(lp2702
I5
aI11
aa(lp2703
I5
aI14
aa(lp2704
I5
aI17
aa(lp2705
I8
aI11
aa(lp2706
I8
aI14
aa(lp2707
I8
aI17
aa(lp2708
I11
aI11
aa(lp2709
I11
aI14
aa(lp2710
I11
aI17
aaI6
aa(lp2711
I-1
a(lp2712
I6
aI7
aa(lp2713
I6
aI10
aa(lp2714
I6
aI13
aa(lp2715
I9
aI7
aa(lp2716
I9
aI10
aa(lp2717
I9
aI13
aa(lp2718
I12
aI7
aa(lp2719
I12
aI10
aa(lp2720
I12
aI13
aaI6
aa(lp2721
I-1
a(lp2722
I6
aI8
aa(lp2723
I6
aI11
aa(lp2724
I6
aI14
aa(lp2725
I9
aI8
aa(lp2726
I9
aI11
aa(lp2727
I9
aI14
aa(lp2728
I12
aI8
aa(lp2729
I12
aI11
aa(lp2730
I12
aI14
aaI6
aa(lp2731
I-1
a(lp2732
I7
aI1
aa(lp2733
I7
aI4
aa(lp2734
I7
aI7
aa(lp2735
I10
aI1
aa(lp2736
I10
aI4
aa(lp2737
I10
aI7
aa(lp2738
I13
aI1
aa(lp2739
I13
aI4
aa(lp2740
I13
aI7
aaI6
aa(lp2741
I-1
a(lp2742
I7
aI7
aa(lp2743
I7
aI10
aa(lp2744
I7
aI13
aa(lp2745
I10
aI7
aa(lp2746
I10
aI10
aa(lp2747
I10
aI13
aa(lp2748
I13
aI7
aa(lp2749
I13
aI10
aa(lp2750
I13
aI13
aaI6
aa(lp2751
I-1
a(lp2752
I7
aI8
aa(lp2753
I7
aI11
aa(lp2754
I7
aI14
aa(lp2755
I10
aI8
aa(lp2756
I10
aI11
aa(lp2757
I10
aI14
aa(lp2758
I13
aI8
aa(lp2759
I13
aI11
aa(lp2760
I13
aI14
aaI6
aa(lp2761
I-1
a(lp2762
I8
aI1
aa(lp2763
I8
aI4
aa(lp2764
I8
aI7
aa(lp2765
I11
aI1
aa(lp2766
I11
aI4
aa(lp2767
I11
aI7
aa(lp2768
I14
aI1
aa(lp2769
I14
aI4
aa(lp2770
I14
aI7
aaI6
aa(lp2771
I-1
a(lp2772
I8
aI2
aa(lp2773
I8
aI5
aa(lp2774
I8
aI8
aa(lp2775
I11
aI2
aa(lp2776
I11
aI5
aa(lp2777
I11
aI8
aa(lp2778
I14
aI2
aa(lp2779
I14
aI5
aa(lp2780
I14
aI8
aaI6
aa(lp2781
I-1
a(lp2782
I8
aI7
aa(lp2783
I8
aI10
aa(lp2784
I8
aI13
aa(lp2785
I11
aI7
aa(lp2786
I11
aI10
aa(lp2787
I11
aI13
aa(lp2788
I14
aI7
aa(lp2789
I14
aI10
aa(lp2790
I14
aI13
aaI6
aa(lp2791
I-1
a(lp2792
I9
aI2
aa(lp2793
I9
aI5
aa(lp2794
I9
aI8
aa(lp2795
I12
aI2
aa(lp2796
I12
aI5
aa(lp2797
I12
aI8
aa(lp2798
I15
aI2
aa(lp2799
I15
aI5
aa(lp2800
I15
aI8
aaI6
aa(lp2801
I-1
a(lp2802
I10
aI3
aa(lp2803
I10
aI6
aa(lp2804
I10
aI9
aa(lp2805
I13
aI3
aa(lp2806
I13
aI6
aa(lp2807
I13
aI9
aa(lp2808
I16
aI3
aa(lp2809
I16
aI6
aa(lp2810
I16
aI9
aaI6
aa(lp2811
I-1
a(lp2812
I10
aI4
aa(lp2813
I10
aI7
aa(lp2814
I10
aI10
aa(lp2815
I13
aI4
aa(lp2816
I13
aI7
aa(lp2817
I13
aI10
aa(lp2818
I16
aI4
aa(lp2819
I16
aI7
aa(lp2820
I16
aI10
aaI6
aa(lp2821
I-1
a(lp2822
I10
aI5
aa(lp2823
I10
aI8
aa(lp2824
I10
aI11
aa(lp2825
I13
aI5
aa(lp2826
I13
aI8
aa(lp2827
I13
aI11
aa(lp2828
I16
aI5
aa(lp2829
I16
aI8
aa(lp2830
I16
aI11
aaI6
aa(lp2831
I-1
a(lp2832
I11
aI-1
aa(lp2833
I11
aI2
aa(lp2834
I11
aI5
aa(lp2835
I14
aI-1
aa(lp2836
I14
aI2
aa(lp2837
I14
aI5
aa(lp2838
I17
aI-1
aa(lp2839
I17
aI2
aa(lp2840
I17
aI5
aaI6
aa(lp2841
I-1
a(lp2842
I11
aI3
aa(lp2843
I11
aI6
aa(lp2844
I11
aI9
aa(lp2845
I14
aI3
aa(lp2846
I14
aI6
aa(lp2847
I14
aI9
aa(lp2848
I17
aI3
aa(lp2849
I17
aI6
aa(lp2850
I17
aI9
aaI6
aa(lp2851
I-1
a(lp2852
I11
aI4
aa(lp2853
I11
aI7
aa(lp2854
I11
aI10
aa(lp2855
I14
aI4
aa(lp2856
I14
aI7
aa(lp2857
I14
aI10
aa(lp2858
I17
aI4
aa(lp2859
I17
aI7
aa(lp2860
I17
aI10
aaI6
aa(lp2861
I-1
a(lp2862
I11
aI5
aa(lp2863
I11
aI8
aa(lp2864
I11
aI11
aa(lp2865
I14
aI5
aa(lp2866
I14
aI8
aa(lp2867
I14
aI11
aa(lp2868
I17
aI5
aa(lp2869
I17
aI8
aa(lp2870
I17
aI11
aaI6
aa(lp2871
I-1
a(lp2872
I12
aI-1
aa(lp2873
I12
aI2
aa(lp2874
I12
aI5
aa(lp2875
I15
aI-1
aa(lp2876
I15
aI2
aa(lp2877
I15
aI5
aa(lp2878
I18
aI-1
aa(lp2879
I18
aI2
aa(lp2880
I18
aI5
aaI6
aa(lp2881
I-1
a(lp2882
I12
aI0
aa(lp2883
I12
aI3
aa(lp2884
I12
aI6
aa(lp2885
I15
aI0
aa(lp2886
I15
aI3
aa(lp2887
I15
aI6
aa(lp2888
I18
aI0
aa(lp2889
I18
aI3
aa(lp2890
I18
aI6
aaI6
aa(lp2891
I-1
a(lp2892
I12
aI1
aa(lp2893
I12
aI4
aa(lp2894
I12
aI7
aa(lp2895
I15
aI1
aa(lp2896
I15
aI4
aa(lp2897
I15
aI7
aa(lp2898
I18
aI1
aa(lp2899
I18
aI4
aa(lp2900
I18
aI7
aaI6
aa(lp2901
I-1
a(lp2902
I12
aI2
aa(lp2903
I12
aI5
aa(lp2904
I12
aI8
aa(lp2905
I15
aI2
aa(lp2906
I15
aI5
aa(lp2907
I15
aI8
aa(lp2908
I18
aI2
aa(lp2909
I18
aI5
aa(lp2910
I18
aI8
aaI6
aa(lp2911
I-1
a(lp2912
I-1
aI2
aa(lp2913
I-1
aI6
aa(lp2914
I-1
aI10
aa(lp2915
I3
aI2
aa(lp2916
I3
aI6
aa(lp2917
I3
aI10
aa(lp2918
I7
aI2
aa(lp2919
I7
aI6
aa(lp2920
I7
aI10
aaI8
aa(lp2921
I-1
a(lp2922
I-1
aI3
aa(lp2923
I-1
aI7
aa(lp2924
I-1
aI11
aa(lp2925
I3
aI3
aa(lp2926
I3
aI7
aa(lp2927
I3
aI11
aa(lp2928
I7
aI3
aa(lp2929
I7
aI7
aa(lp2930
I7
aI11
aaI8
aa(lp2931
I-1
a(lp2932
I-1
aI4
aa(lp2933
I-1
aI8
aa(lp2934
I-1
aI12
aa(lp2935
I3
aI4
aa(lp2936
I3
aI8
aa(lp2937
I3
aI12
aa(lp2938
I7
aI4
aa(lp2939
I7
aI8
aa(lp2940
I7
aI12
aaI8
aa(lp2941
I-1
a(lp2942
I-1
aI10
aa(lp2943
I-1
aI14
aa(lp2944
I-1
aI18
aa(lp2945
I3
aI10
aa(lp2946
I3
aI14
aa(lp2947
I3
aI18
aa(lp2948
I7
aI10
aa(lp2949
I7
aI14
aa(lp2950
I7
aI18
aaI8
aa(lp2951
I-1
a(lp2952
I0
aI4
aa(lp2953
I0
aI8
aa(lp2954
I0
aI12
aa(lp2955
I4
aI4
aa(lp2956
I4
aI8
aa(lp2957
I4
aI12
aa(lp2958
I8
aI4
aa(lp2959
I8
aI8
aa(lp2960
I8
aI12
aaI8
aa(lp2961
I-1
a(lp2962
I0
aI5
aa(lp2963
I0
aI9
aa(lp2964
I0
aI13
aa(lp2965
I4
aI5
aa(lp2966
I4
aI9
aa(lp2967
I4
aI13
aa(lp2968
I8
aI5
aa(lp2969
I8
aI9
aa(lp2970
I8
aI13
aaI8
aa(lp2971
I-1
a(lp2972
I0
aI6
aa(lp2973
I0
aI10
aa(lp2974
I0
aI14
aa(lp2975
I4
aI6
aa(lp2976
I4
aI10
aa(lp2977
I4
aI14
aa(lp2978
I8
aI6
aa(lp2979
I8
aI10
aa(lp2980
I8
aI14
aaI8
aa(lp2981
I-1
a(lp2982
I1
aI5
aa(lp2983
I1
aI9
aa(lp2984
I1
aI13
aa(lp2985
I5
aI5
aa(lp2986
I5
aI9
aa(lp2987
I5
aI13
aa(lp2988
I9
aI5
aa(lp2989
I9
aI9
aa(lp2990
I9
aI13
aaI8
aa(lp2991
I-1
a(lp2992
I1
aI6
aa(lp2993
I1
aI10
aa(lp2994
I1
aI14
aa(lp2995
I5
aI6
aa(lp2996
I5
aI10
aa(lp2997
I5
aI14
aa(lp2998
I9
aI6
aa(lp2999
I9
aI10
aa(lp3000
I9
aI14
aaI8
aa(lp3001
I-1
a(lp3002
I1
aI7
aa(lp3003
I1
aI11
aa(lp3004
I1
aI15
aa(lp3005
I5
aI7
aa(lp3006
I5
aI11
aa(lp3007
I5
aI15
aa(lp3008
I9
aI7
aa(lp3009
I9
aI11
aa(lp3010
I9
aI15
aaI8
aa(lp3011
I-1
a(lp3012
I1
aI8
aa(lp3013
I1
aI12
aa(lp3014
I1
aI16
aa(lp3015
I5
aI8
aa(lp3016
I5
aI12
aa(lp3017
I5
aI16
aa(lp3018
I9
aI8
aa(lp3019
I9
aI12
aa(lp3020
I9
aI16
aaI8
aa(lp3021
I-1
a(lp3022
I2
aI5
aa(lp3023
I2
aI9
aa(lp3024
I2
aI13
aa(lp3025
I6
aI5
aa(lp3026
I6
aI9
aa(lp3027
I6
aI13
aa(lp3028
I10
aI5
aa(lp3029
I10
aI9
aa(lp3030
I10
aI13
aaI8
aa(lp3031
I-1
a(lp3032
I2
aI6
aa(lp3033
I2
aI10
aa(lp3034
I2
aI14
aa(lp3035
I6
aI6
aa(lp3036
I6
aI10
aa(lp3037
I6
aI14
aa(lp3038
I10
aI6
aa(lp3039
I10
aI10
aa(lp3040
I10
aI14
aaI8
aa(lp3041
I-1
a(lp3042
I2
aI7
aa(lp3043
I2
aI11
aa(lp3044
I2
aI15
aa(lp3045
I6
aI7
aa(lp3046
I6
aI11
aa(lp3047
I6
aI15
aa(lp3048
I10
aI7
aa(lp3049
I10
aI11
aa(lp3050
I10
aI15
aaI8
aa(lp3051
I-1
a(lp3052
I2
aI8
aa(lp3053
I2
aI12
aa(lp3054
I2
aI16
aa(lp3055
I6
aI8
aa(lp3056
I6
aI12
aa(lp3057
I6
aI16
aa(lp3058
I10
aI8
aa(lp3059
I10
aI12
aa(lp3060
I10
aI16
aaI8
aa(lp3061
I-1
a(lp3062
I2
aI9
aa(lp3063
I2
aI13
aa(lp3064
I2
aI17
aa(lp3065
I6
aI9
aa(lp3066
I6
aI13
aa(lp3067
I6
aI17
aa(lp3068
I10
aI9
aa(lp3069
I10
aI13
aa(lp3070
I10
aI17
aaI8
aa(lp3071
I-1
a(lp3072
I3
aI5
aa(lp3073
I3
aI9
aa(lp3074
I3
aI13
aa(lp3075
I7
aI5
aa(lp3076
I7
aI9
aa(lp3077
I7
aI13
aa(lp3078
I11
aI5
aa(lp3079
I11
aI9
aa(lp3080
I11
aI13
aaI8
aa(lp3081
I-1
a(lp3082
I3
aI6
aa(lp3083
I3
aI10
aa(lp3084
I3
aI14
aa(lp3085
I7
aI6
aa(lp3086
I7
aI10
aa(lp3087
I7
aI14
aa(lp3088
I11
aI6
aa(lp3089
I11
aI10
aa(lp3090
I11
aI14
aaI8
aa(lp3091
I-1
a(lp3092
I3
aI7
aa(lp3093
I3
aI11
aa(lp3094
I3
aI15
aa(lp3095
I7
aI7
aa(lp3096
I7
aI11
aa(lp3097
I7
aI15
aa(lp3098
I11
aI7
aa(lp3099
I11
aI11
aa(lp3100
I11
aI15
aaI8
aa(lp3101
I-1
a(lp3102
I3
aI8
aa(lp3103
I3
aI12
aa(lp3104
I3
aI16
aa(lp3105
I7
aI8
aa(lp3106
I7
aI12
aa(lp3107
I7
aI16
aa(lp3108
I11
aI8
aa(lp3109
I11
aI12
aa(lp3110
I11
aI16
aaI8
aa(lp3111
I-1
a(lp3112
I3
aI9
aa(lp3113
I3
aI13
aa(lp3114
I3
aI17
aa(lp3115
I7
aI9
aa(lp3116
I7
aI13
aa(lp3117
I7
aI17
aa(lp3118
I11
aI9
aa(lp3119
I11
aI13
aa(lp3120
I11
aI17
aaI8
aa(lp3121
I-1
a(lp3122
I4
aI6
aa(lp3123
I4
aI10
aa(lp3124
I4
aI14
aa(lp3125
I8
aI6
aa(lp3126
I8
aI10
aa(lp3127
I8
aI14
aa(lp3128
I12
aI6
aa(lp3129
I12
aI10
aa(lp3130
I12
aI14
aaI8
aa(lp3131
I-1
a(lp3132
I4
aI7
aa(lp3133
I4
aI11
aa(lp3134
I4
aI15
aa(lp3135
I8
aI7
aa(lp3136
I8
aI11
aa(lp3137
I8
aI15
aa(lp3138
I12
aI7
aa(lp3139
I12
aI11
aa(lp3140
I12
aI15
aaI8
aa(lp3141
I-1
a(lp3142
I4
aI8
aa(lp3143
I4
aI12
aa(lp3144
I4
aI16
aa(lp3145
I8
aI8
aa(lp3146
I8
aI12
aa(lp3147
I8
aI16
aa(lp3148
I12
aI8
aa(lp3149
I12
aI12
aa(lp3150
I12
aI16
aaI8
aa(lp3151
I-1
a(lp3152
I4
aI9
aa(lp3153
I4
aI13
aa(lp3154
I4
aI17
aa(lp3155
I8
aI9
aa(lp3156
I8
aI13
aa(lp3157
I8
aI17
aa(lp3158
I12
aI9
aa(lp3159
I12
aI13
aa(lp3160
I12
aI17
aaI8
aa(lp3161
I-1
a(lp3162
I5
aI6
aa(lp3163
I5
aI10
aa(lp3164
I5
aI14
aa(lp3165
I9
aI6
aa(lp3166
I9
aI10
aa(lp3167
I9
aI14
aa(lp3168
I13
aI6
aa(lp3169
I13
aI10
aa(lp3170
I13
aI14
aaI8
aa(lp3171
I-1
a(lp3172
I5
aI7
aa(lp3173
I5
aI11
aa(lp3174
I5
aI15
aa(lp3175
I9
aI7
aa(lp3176
I9
aI11
aa(lp3177
I9
aI15
aa(lp3178
I13
aI7
aa(lp3179
I13
aI11
aa(lp3180
I13
aI15
aaI8
aa(lp3181
I-1
a(lp3182
I5
aI8
aa(lp3183
I5
aI12
aa(lp3184
I5
aI16
aa(lp3185
I9
aI8
aa(lp3186
I9
aI12
aa(lp3187
I9
aI16
aa(lp3188
I13
aI8
aa(lp3189
I13
aI12
aa(lp3190
I13
aI16
aaI8
aa(lp3191
I-1
a(lp3192
I5
aI9
aa(lp3193
I5
aI13
aa(lp3194
I5
aI17
aa(lp3195
I9
aI9
aa(lp3196
I9
aI13
aa(lp3197
I9
aI17
aa(lp3198
I13
aI9
aa(lp3199
I13
aI13
aa(lp3200
I13
aI17
aaI8
aa(lp3201
I-1
a(lp3202
I6
aI6
aa(lp3203
I6
aI10
aa(lp3204
I6
aI14
aa(lp3205
I10
aI6
aa(lp3206
I10
aI10
aa(lp3207
I10
aI14
aa(lp3208
I14
aI6
aa(lp3209
I14
aI10
aa(lp3210
I14
aI14
aaI8
aa(lp3211
I-1
a(lp3212
I6
aI7
aa(lp3213
I6
aI11
aa(lp3214
I6
aI15
aa(lp3215
I10
aI7
aa(lp3216
I10
aI11
aa(lp3217
I10
aI15
aa(lp3218
I14
aI7
aa(lp3219
I14
aI11
aa(lp3220
I14
aI15
aaI8
aa(lp3221
I-1
a(lp3222
I6
aI8
aa(lp3223
I6
aI12
aa(lp3224
I6
aI16
aa(lp3225
I10
aI8
aa(lp3226
I10
aI12
aa(lp3227
I10
aI16
aa(lp3228
I14
aI8
aa(lp3229
I14
aI12
aa(lp3230
I14
aI16
aaI8
aa(lp3231
I-1
a(lp3232
I7
aI6
aa(lp3233
I7
aI10
aa(lp3234
I7
aI14
aa(lp3235
I11
aI6
aa(lp3236
I11
aI10
aa(lp3237
I11
aI14
aa(lp3238
I15
aI6
aa(lp3239
I15
aI10
aa(lp3240
I15
aI14
aaI8
aa(lp3241
I-1
a(lp3242
I8
aI0
aa(lp3243
I8
aI4
aa(lp3244
I8
aI8
aa(lp3245
I12
aI0
aa(lp3246
I12
aI4
aa(lp3247
I12
aI8
aa(lp3248
I16
aI0
aa(lp3249
I16
aI4
aa(lp3250
I16
aI8
aaI8
aa(lp3251
I-1
a(lp3252
I8
aI1
aa(lp3253
I8
aI5
aa(lp3254
I8
aI9
aa(lp3255
I12
aI1
aa(lp3256
I12
aI5
aa(lp3257
I12
aI9
aa(lp3258
I16
aI1
aa(lp3259
I16
aI5
aa(lp3260
I16
aI9
aaI8
aa(lp3261
I-1
a(lp3262
I8
aI2
aa(lp3263
I8
aI6
aa(lp3264
I8
aI10
aa(lp3265
I12
aI2
aa(lp3266
I12
aI6
aa(lp3267
I12
aI10
aa(lp3268
I16
aI2
aa(lp3269
I16
aI6
aa(lp3270
I16
aI10
aaI8
aa(lp3271
I-1
a(lp3272
I8
aI3
aa(lp3273
I8
aI7
aa(lp3274
I8
aI11
aa(lp3275
I12
aI3
aa(lp3276
I12
aI7
aa(lp3277
I12
aI11
aa(lp3278
I16
aI3
aa(lp3279
I16
aI7
aa(lp3280
I16
aI11
aaI8
aa(lp3281
I-1
a(lp3282
I9
aI-1
aa(lp3283
I9
aI3
aa(lp3284
I9
aI7
aa(lp3285
I13
aI-1
aa(lp3286
I13
aI3
aa(lp3287
I13
aI7
aa(lp3288
I17
aI-1
aa(lp3289
I17
aI3
aa(lp3290
I17
aI7
aaI8
aa(lp3291
I-1
a(lp3292
I9
aI0
aa(lp3293
I9
aI4
aa(lp3294
I9
aI8
aa(lp3295
I13
aI0
aa(lp3296
I13
aI4
aa(lp3297
I13
aI8
aa(lp3298
I17
aI0
aa(lp3299
I17
aI4
aa(lp3300
I17
aI8
aaI8
aa(lp3301
I-1
a(lp3302
I9
aI1
aa(lp3303
I9
aI5
aa(lp3304
I9
aI9
aa(lp3305
I13
aI1
aa(lp3306
I13
aI5
aa(lp3307
I13
aI9
aa(lp3308
I17
aI1
aa(lp3309
I17
aI5
aa(lp3310
I17
aI9
aaI8
aa(lp3311
I-1
a(lp3312
I9
aI2
aa(lp3313
I9
aI6
aa(lp3314
I9
aI10
aa(lp3315
I13
aI2
aa(lp3316
I13
aI6
aa(lp3317
I13
aI10
aa(lp3318
I17
aI2
aa(lp3319
I17
aI6
aa(lp3320
I17
aI10
aaI8
aa(lp3321
I-1
a(lp3322
I9
aI3
aa(lp3323
I9
aI7
aa(lp3324
I9
aI11
aa(lp3325
I13
aI3
aa(lp3326
I13
aI7
aa(lp3327
I13
aI11
aa(lp3328
I17
aI3
aa(lp3329
I17
aI7
aa(lp3330
I17
aI11
aaI8
aa(lp3331
I-1
a(lp3332
I9
aI4
aa(lp3333
I9
aI8
aa(lp3334
I9
aI12
aa(lp3335
I13
aI4
aa(lp3336
I13
aI8
aa(lp3337
I13
aI12
aa(lp3338
I17
aI4
aa(lp3339
I17
aI8
aa(lp3340
I17
aI12
aaI8
aa(lp3341
I-1
a(lp3342
I10
aI-1
aa(lp3343
I10
aI3
aa(lp3344
I10
aI7
aa(lp3345
I14
aI-1
aa(lp3346
I14
aI3
aa(lp3347
I14
aI7
aa(lp3348
I18
aI-1
aa(lp3349
I18
aI3
aa(lp3350
I18
aI7
aaI8
aa(lp3351
I-1
a(lp3352
I10
aI0
aa(lp3353
I10
aI4
aa(lp3354
I10
aI8
aa(lp3355
I14
aI0
aa(lp3356
I14
aI4
aa(lp3357
I14
aI8
aa(lp3358
I18
aI0
aa(lp3359
I18
aI4
aa(lp3360
I18
aI8
aaI8
aa(lp3361
I-1
a(lp3362
I10
aI1
aa(lp3363
I10
aI5
aa(lp3364
I10
aI9
aa(lp3365
I14
aI1
aa(lp3366
I14
aI5
aa(lp3367
I14
aI9
aa(lp3368
I18
aI1
aa(lp3369
I18
aI5
aa(lp3370
I18
aI9
aaI8
aa(lp3371
I-1
a(lp3372
I10
aI2
aa(lp3373
I10
aI6
aa(lp3374
I10
aI10
aa(lp3375
I14
aI2
aa(lp3376
I14
aI6
aa(lp3377
I14
aI10
aa(lp3378
I18
aI2
aa(lp3379
I18
aI6
aa(lp3380
I18
aI10
aaI8
aa(lp3381
I-1
a(lp3382
I10
aI3
aa(lp3383
I10
aI7
aa(lp3384
I10
aI11
aa(lp3385
I14
aI3
aa(lp3386
I14
aI7
aa(lp3387
I14
aI11
aa(lp3388
I18
aI3
aa(lp3389
I18
aI7
aa(lp3390
I18
aI11
aaI8
aa(lp3391
I-1
a(lp3392
I10
aI4
aa(lp3393
I10
aI8
aa(lp3394
I10
aI12
aa(lp3395
I14
aI4
aa(lp3396
I14
aI8
aa(lp3397
I14
aI12
aa(lp3398
I18
aI4
aa(lp3399
I18
aI8
aa(lp3400
I18
aI12
aaI8
aa(lp3401
I-1
a(lp3402
I-1
aI3
aa(lp3403
I-1
aI8
aa(lp3404
I-1
aI13
aa(lp3405
I4
aI3
aa(lp3406
I4
aI8
aa(lp3407
I4
aI13
aa(lp3408
I9
aI3
aa(lp3409
I9
aI8
aa(lp3410
I9
aI13
aaI10
aa(lp3411
I-1
a(lp3412
I-1
aI4
aa(lp3413
I-1
aI9
aa(lp3414
I-1
aI14
aa(lp3415
I4
aI4
aa(lp3416
I4
aI9
aa(lp3417
I4
aI14
aa(lp3418
I9
aI4
aa(lp3419
I9
aI9
aa(lp3420
I9
aI14
aaI10
aa(lp3421
I-1
a(lp3422
I-1
aI5
aa(lp3423
I-1
aI10
aa(lp3424
I-1
aI15
aa(lp3425
I4
aI5
aa(lp3426
I4
aI10
aa(lp3427
I4
aI15
aa(lp3428
I9
aI5
aa(lp3429
I9
aI10
aa(lp3430
I9
aI15
aaI10
aa(lp3431
I-1
a(lp3432
I-1
aI8
aa(lp3433
I-1
aI13
aa(lp3434
I-1
aI18
aa(lp3435
I4
aI8
aa(lp3436
I4
aI13
aa(lp3437
I4
aI18
aa(lp3438
I9
aI8
aa(lp3439
I9
aI13
aa(lp3440
I9
aI18
aaI10
aa(lp3441
I-1
a(lp3442
I0
aI4
aa(lp3443
I0
aI9
aa(lp3444
I0
aI14
aa(lp3445
I5
aI4
aa(lp3446
I5
aI9
aa(lp3447
I5
aI14
aa(lp3448
I10
aI4
aa(lp3449
I10
aI9
aa(lp3450
I10
aI14
aaI10
aa(lp3451
I-1
a(lp3452
I0
aI5
aa(lp3453
I0
aI10
aa(lp3454
I0
aI15
aa(lp3455
I5
aI5
aa(lp3456
I5
aI10
aa(lp3457
I5
aI15
aa(lp3458
I10
aI5
aa(lp3459
I10
aI10
aa(lp3460
I10
aI15
aaI10
aa(lp3461
I-1
a(lp3462
I0
aI6
aa(lp3463
I0
aI11
aa(lp3464
I0
aI16
aa(lp3465
I5
aI6
aa(lp3466
I5
aI11
aa(lp3467
I5
aI16
aa(lp3468
I10
aI6
aa(lp3469
I10
aI11
aa(lp3470
I10
aI16
aaI10
aa(lp3471
I-1
a(lp3472
I0
aI7
aa(lp3473
I0
aI12
aa(lp3474
I0
aI17
aa(lp3475
I5
aI7
aa(lp3476
I5
aI12
aa(lp3477
I5
aI17
aa(lp3478
I10
aI7
aa(lp3479
I10
aI12
aa(lp3480
I10
aI17
aaI10
aa(lp3481
I-1
a(lp3482
I0
aI8
aa(lp3483
I0
aI13
aa(lp3484
I0
aI18
aa(lp3485
I5
aI8
aa(lp3486
I5
aI13
aa(lp3487
I5
aI18
aa(lp3488
I10
aI8
aa(lp3489
I10
aI13
aa(lp3490
I10
aI18
aaI10
aa(lp3491
I-1
a(lp3492
I1
aI4
aa(lp3493
I1
aI9
aa(lp3494
I1
aI14
aa(lp3495
I6
aI4
aa(lp3496
I6
aI9
aa(lp3497
I6
aI14
aa(lp3498
I11
aI4
aa(lp3499
I11
aI9
aa(lp3500
I11
aI14
aaI10
aa(lp3501
I-1
a(lp3502
I1
aI5
aa(lp3503
I1
aI10
aa(lp3504
I1
aI15
aa(lp3505
I6
aI5
aa(lp3506
I6
aI10
aa(lp3507
I6
aI15
aa(lp3508
I11
aI5
aa(lp3509
I11
aI10
aa(lp3510
I11
aI15
aaI10
aa(lp3511
I-1
a(lp3512
I1
aI6
aa(lp3513
I1
aI11
aa(lp3514
I1
aI16
aa(lp3515
I6
aI6
aa(lp3516
I6
aI11
aa(lp3517
I6
aI16
aa(lp3518
I11
aI6
aa(lp3519
I11
aI11
aa(lp3520
I11
aI16
aaI10
aa(lp3521
I-1
a(lp3522
I1
aI7
aa(lp3523
I1
aI12
aa(lp3524
I1
aI17
aa(lp3525
I6
aI7
aa(lp3526
I6
aI12
aa(lp3527
I6
aI17
aa(lp3528
I11
aI7
aa(lp3529
I11
aI12
aa(lp3530
I11
aI17
aaI10
aa(lp3531
I-1
a(lp3532
I1
aI8
aa(lp3533
I1
aI13
aa(lp3534
I1
aI18
aa(lp3535
I6
aI8
aa(lp3536
I6
aI13
aa(lp3537
I6
aI18
aa(lp3538
I11
aI8
aa(lp3539
I11
aI13
aa(lp3540
I11
aI18
aaI10
aa(lp3541
I-1
a(lp3542
I2
aI4
aa(lp3543
I2
aI9
aa(lp3544
I2
aI14
aa(lp3545
I7
aI4
aa(lp3546
I7
aI9
aa(lp3547
I7
aI14
aa(lp3548
I12
aI4
aa(lp3549
I12
aI9
aa(lp3550
I12
aI14
aaI10
aa(lp3551
I-1
a(lp3552
I2
aI5
aa(lp3553
I2
aI10
aa(lp3554
I2
aI15
aa(lp3555
I7
aI5
aa(lp3556
I7
aI10
aa(lp3557
I7
aI15
aa(lp3558
I12
aI5
aa(lp3559
I12
aI10
aa(lp3560
I12
aI15
aaI10
aa(lp3561
I-1
a(lp3562
I2
aI6
aa(lp3563
I2
aI11
aa(lp3564
I2
aI16
aa(lp3565
I7
aI6
aa(lp3566
I7
aI11
aa(lp3567
I7
aI16
aa(lp3568
I12
aI6
aa(lp3569
I12
aI11
aa(lp3570
I12
aI16
aaI10
aa(lp3571
I-1
a(lp3572
I2
aI7
aa(lp3573
I2
aI12
aa(lp3574
I2
aI17
aa(lp3575
I7
aI7
aa(lp3576
I7
aI12
aa(lp3577
I7
aI17
aa(lp3578
I12
aI7
aa(lp3579
I12
aI12
aa(lp3580
I12
aI17
aaI10
aa(lp3581
I-1
a(lp3582
I2
aI8
aa(lp3583
I2
aI13
aa(lp3584
I2
aI18
aa(lp3585
I7
aI8
aa(lp3586
I7
aI13
aa(lp3587
I7
aI18
aa(lp3588
I12
aI8
aa(lp3589
I12
aI13
aa(lp3590
I12
aI18
aaI10
aa(lp3591
I-1
a(lp3592
I3
aI4
aa(lp3593
I3
aI9
aa(lp3594
I3
aI14
aa(lp3595
I8
aI4
aa(lp3596
I8
aI9
aa(lp3597
I8
aI14
aa(lp3598
I13
aI4
aa(lp3599
I13
aI9
aa(lp3600
I13
aI14
aaI10
aa(lp3601
I-1
a(lp3602
I3
aI5
aa(lp3603
I3
aI10
aa(lp3604
I3
aI15
aa(lp3605
I8
aI5
aa(lp3606
I8
aI10
aa(lp3607
I8
aI15
aa(lp3608
I13
aI5
aa(lp3609
I13
aI10
aa(lp3610
I13
aI15
aaI10
aa(lp3611
I-1
a(lp3612
I3
aI6
aa(lp3613
I3
aI11
aa(lp3614
I3
aI16
aa(lp3615
I8
aI6
aa(lp3616
I8
aI11
aa(lp3617
I8
aI16
aa(lp3618
I13
aI6
aa(lp3619
I13
aI11
aa(lp3620
I13
aI16
aaI10
aa(lp3621
I-1
a(lp3622
I3
aI7
aa(lp3623
I3
aI12
aa(lp3624
I3
aI17
aa(lp3625
I8
aI7
aa(lp3626
I8
aI12
aa(lp3627
I8
aI17
aa(lp3628
I13
aI7
aa(lp3629
I13
aI12
aa(lp3630
I13
aI17
aaI10
aa(lp3631
I-1
a(lp3632
I3
aI8
aa(lp3633
I3
aI13
aa(lp3634
I3
aI18
aa(lp3635
I8
aI8
aa(lp3636
I8
aI13
aa(lp3637
I8
aI18
aa(lp3638
I13
aI8
aa(lp3639
I13
aI13
aa(lp3640
I13
aI18
aaI10
aa(lp3641
I-1
a(lp3642
I4
aI4
aa(lp3643
I4
aI9
aa(lp3644
I4
aI14
aa(lp3645
I9
aI4
aa(lp3646
I9
aI9
aa(lp3647
I9
aI14
aa(lp3648
I14
aI4
aa(lp3649
I14
aI9
aa(lp3650
I14
aI14
aaI10
aa(lp3651
I-1
a(lp3652
I4
aI5
aa(lp3653
I4
aI10
aa(lp3654
I4
aI15
aa(lp3655
I9
aI5
aa(lp3656
I9
aI10
aa(lp3657
I9
aI15
aa(lp3658
I14
aI5
aa(lp3659
I14
aI10
aa(lp3660
I14
aI15
aaI10
aa(lp3661
I-1
a(lp3662
I4
aI6
aa(lp3663
I4
aI11
aa(lp3664
I4
aI16
aa(lp3665
I9
aI6
aa(lp3666
I9
aI11
aa(lp3667
I9
aI16
aa(lp3668
I14
aI6
aa(lp3669
I14
aI11
aa(lp3670
I14
aI16
aaI10
aa(lp3671
I-1
a(lp3672
I4
aI7
aa(lp3673
I4
aI12
aa(lp3674
I4
aI17
aa(lp3675
I9
aI7
aa(lp3676
I9
aI12
aa(lp3677
I9
aI17
aa(lp3678
I14
aI7
aa(lp3679
I14
aI12
aa(lp3680
I14
aI17
aaI10
aa(lp3681
I-1
a(lp3682
I4
aI8
aa(lp3683
I4
aI13
aa(lp3684
I4
aI18
aa(lp3685
I9
aI8
aa(lp3686
I9
aI13
aa(lp3687
I9
aI18
aa(lp3688
I14
aI8
aa(lp3689
I14
aI13
aa(lp3690
I14
aI18
aaI10
aa(lp3691
I-1
a(lp3692
I5
aI5
aa(lp3693
I5
aI10
aa(lp3694
I5
aI15
aa(lp3695
I10
aI5
aa(lp3696
I10
aI10
aa(lp3697
I10
aI15
aa(lp3698
I15
aI5
aa(lp3699
I15
aI10
aa(lp3700
I15
aI15
aaI10
aa(lp3701
I-1
a(lp3702
I5
aI6
aa(lp3703
I5
aI11
aa(lp3704
I5
aI16
aa(lp3705
I10
aI6
aa(lp3706
I10
aI11
aa(lp3707
I10
aI16
aa(lp3708
I15
aI6
aa(lp3709
I15
aI11
aa(lp3710
I15
aI16
aaI10
aa(lp3711
I-1
a(lp3712
I5
aI7
aa(lp3713
I5
aI12
aa(lp3714
I5
aI17
aa(lp3715
I10
aI7
aa(lp3716
I10
aI12
aa(lp3717
I10
aI17
aa(lp3718
I15
aI7
aa(lp3719
I15
aI12
aa(lp3720
I15
aI17
aaI10
aa(lp3721
I-1
a(lp3722
I5
aI8
aa(lp3723
I5
aI13
aa(lp3724
I5
aI18
aa(lp3725
I10
aI8
aa(lp3726
I10
aI13
aa(lp3727
I10
aI18
aa(lp3728
I15
aI8
aa(lp3729
I15
aI13
aa(lp3730
I15
aI18
aaI10
aa(lp3731
I-1
a(lp3732
I7
aI-1
aa(lp3733
I7
aI4
aa(lp3734
I7
aI9
aa(lp3735
I12
aI-1
aa(lp3736
I12
aI4
aa(lp3737
I12
aI9
aa(lp3738
I17
aI-1
aa(lp3739
I17
aI4
aa(lp3740
I17
aI9
aaI10
aa(lp3741
I-1
a(lp3742
I7
aI0
aa(lp3743
I7
aI5
aa(lp3744
I7
aI10
aa(lp3745
I12
aI0
aa(lp3746
I12
aI5
aa(lp3747
I12
aI10
aa(lp3748
I17
aI0
aa(lp3749
I17
aI5
aa(lp3750
I17
aI10
aaI10
aa(lp3751
I-1
a(lp3752
I7
aI1
aa(lp3753
I7
aI6
aa(lp3754
I7
aI11
aa(lp3755
I12
aI1
aa(lp3756
I12
aI6
aa(lp3757
I12
aI11
aa(lp3758
I17
aI1
aa(lp3759
I17
aI6
aa(lp3760
I17
aI11
aaI10
aa(lp3761
I-1
a(lp3762
I7
aI2
aa(lp3763
I7
aI7
aa(lp3764
I7
aI12
aa(lp3765
I12
aI2
aa(lp3766
I12
aI7
aa(lp3767
I12
aI12
aa(lp3768
I17
aI2
aa(lp3769
I17
aI7
aa(lp3770
I17
aI12
aaI10
aa(lp3771
I-1
a(lp3772
I8
aI-1
aa(lp3773
I8
aI4
aa(lp3774
I8
aI9
aa(lp3775
I13
aI-1
aa(lp3776
I13
aI4
aa(lp3777
I13
aI9
aa(lp3778
I18
aI-1
aa(lp3779
I18
aI4
aa(lp3780
I18
aI9
aaI10
aa(lp3781
I-1
a(lp3782
I8
aI0
aa(lp3783
I8
aI5
aa(lp3784
I8
aI10
aa(lp3785
I13
aI0
aa(lp3786
I13
aI5
aa(lp3787
I13
aI10
aa(lp3788
I18
aI0
aa(lp3789
I18
aI5
aa(lp3790
I18
aI10
aaI10
aa(lp3791
I-1
a(lp3792
I8
aI1
aa(lp3793
I8
aI6
aa(lp3794
I8
aI11
aa(lp3795
I13
aI1
aa(lp3796
I13
aI6
aa(lp3797
I13
aI11
aa(lp3798
I18
aI1
aa(lp3799
I18
aI6
aa(lp3800
I18
aI11
aaI10
aa(lp3801
I-1
a(lp3802
I8
aI2
aa(lp3803
I8
aI7
aa(lp3804
I8
aI12
aa(lp3805
I13
aI2
aa(lp3806
I13
aI7
aa(lp3807
I13
aI12
aa(lp3808
I18
aI2
aa(lp3809
I18
aI7
aa(lp3810
I18
aI12
aaI10
aa(lp3811
I-1
a(lp3812
I8
aI3
aa(lp3813
I8
aI8
aa(lp3814
I8
aI13
aa(lp3815
I13
aI3
aa(lp3816
I13
aI8
aa(lp3817
I13
aI13
aa(lp3818
I18
aI3
aa(lp3819
I18
aI8
aa(lp3820
I18
aI13
aaI10
aa(lp3821
I-1
a(lp3822
I-1
aI3
aa(lp3823
I-1
aI9
aa(lp3824
I-1
aI15
aa(lp3825
I5
aI3
aa(lp3826
I5
aI9
aa(lp3827
I5
aI15
aa(lp3828
I11
aI3
aa(lp3829
I11
aI9
aa(lp3830
I11
aI15
aaI12
aa(lp3831
I-1
a(lp3832
I-1
aI4
aa(lp3833
I-1
aI10
aa(lp3834
I-1
aI16
aa(lp3835
I5
aI4
aa(lp3836
I5
aI10
aa(lp3837
I5
aI16
aa(lp3838
I11
aI4
aa(lp3839
I11
aI10
aa(lp3840
I11
aI16
aaI12
aa(lp3841
I-1
a(lp3842
I-1
aI5
aa(lp3843
I-1
aI11
aa(lp3844
I-1
aI17
aa(lp3845
I5
aI5
aa(lp3846
I5
aI11
aa(lp3847
I5
aI17
aa(lp3848
I11
aI5
aa(lp3849
I11
aI11
aa(lp3850
I11
aI17
aaI12
aa(lp3851
I-1
a(lp3852
I-1
aI6
aa(lp3853
I-1
aI12
aa(lp3854
I-1
aI18
aa(lp3855
I5
aI6
aa(lp3856
I5
aI12
aa(lp3857
I5
aI18
aa(lp3858
I11
aI6
aa(lp3859
I11
aI12
aa(lp3860
I11
aI18
aaI12
aa(lp3861
I-1
a(lp3862
I0
aI3
aa(lp3863
I0
aI9
aa(lp3864
I0
aI15
aa(lp3865
I6
aI3
aa(lp3866
I6
aI9
aa(lp3867
I6
aI15
aa(lp3868
I12
aI3
aa(lp3869
I12
aI9
aa(lp3870
I12
aI15
aaI12
aa(lp3871
I-1
a(lp3872
I0
aI4
aa(lp3873
I0
aI10
aa(lp3874
I0
aI16
aa(lp3875
I6
aI4
aa(lp3876
I6
aI10
aa(lp3877
I6
aI16
aa(lp3878
I12
aI4
aa(lp3879
I12
aI10
aa(lp3880
I12
aI16
aaI12
aa(lp3881
I-1
a(lp3882
I0
aI5
aa(lp3883
I0
aI11
aa(lp3884
I0
aI17
aa(lp3885
I6
aI5
aa(lp3886
I6
aI11
aa(lp3887
I6
aI17
aa(lp3888
I12
aI5
aa(lp3889
I12
aI11
aa(lp3890
I12
aI17
aaI12
aa(lp3891
I-1
a(lp3892
I0
aI6
aa(lp3893
I0
aI12
aa(lp3894
I0
aI18
aa(lp3895
I6
aI6
aa(lp3896
I6
aI12
aa(lp3897
I6
aI18
aa(lp3898
I12
aI6
aa(lp3899
I12
aI12
aa(lp3900
I12
aI18
aaI12
aa(lp3901
I-1
a(lp3902
I1
aI3
aa(lp3903
I1
aI9
aa(lp3904
I1
aI15
aa(lp3905
I7
aI3
aa(lp3906
I7
aI9
aa(lp3907
I7
aI15
aa(lp3908
I13
aI3
aa(lp3909
I13
aI9
aa(lp3910
I13
aI15
aaI12
aa(lp3911
I-1
a(lp3912
I1
aI4
aa(lp3913
I1
aI10
aa(lp3914
I1
aI16
aa(lp3915
I7
aI4
aa(lp3916
I7
aI10
aa(lp3917
I7
aI16
aa(lp3918
I13
aI4
aa(lp3919
I13
aI10
aa(lp3920
I13
aI16
aaI12
aa(lp3921
I-1
a(lp3922
I1
aI5
aa(lp3923
I1
aI11
aa(lp3924
I1
aI17
aa(lp3925
I7
aI5
aa(lp3926
I7
aI11
aa(lp3927
I7
aI17
aa(lp3928
I13
aI5
aa(lp3929
I13
aI11
aa(lp3930
I13
aI17
aaI12
aa(lp3931
I-1
a(lp3932
I1
aI6
aa(lp3933
I1
aI12
aa(lp3934
I1
aI18
aa(lp3935
I7
aI6
aa(lp3936
I7
aI12
aa(lp3937
I7
aI18
aa(lp3938
I13
aI6
aa(lp3939
I13
aI12
aa(lp3940
I13
aI18
aaI12
aa(lp3941
I-1
a(lp3942
I2
aI3
aa(lp3943
I2
aI9
aa(lp3944
I2
aI15
aa(lp3945
I8
aI3
aa(lp3946
I8
aI9
aa(lp3947
I8
aI15
aa(lp3948
I14
aI3
aa(lp3949
I14
aI9
aa(lp3950
I14
aI15
aaI12
aa(lp3951
I-1
a(lp3952
I2
aI4
aa(lp3953
I2
aI10
aa(lp3954
I2
aI16
aa(lp3955
I8
aI4
aa(lp3956
I8
aI10
aa(lp3957
I8
aI16
aa(lp3958
I14
aI4
aa(lp3959
I14
aI10
aa(lp3960
I14
aI16
aaI12
aa(lp3961
I-1
a(lp3962
I2
aI5
aa(lp3963
I2
aI11
aa(lp3964
I2
aI17
aa(lp3965
I8
aI5
aa(lp3966
I8
aI11
aa(lp3967
I8
aI17
aa(lp3968
I14
aI5
aa(lp3969
I14
aI11
aa(lp3970
I14
aI17
aaI12
aa(lp3971
I-1
a(lp3972
I2
aI6
aa(lp3973
I2
aI12
aa(lp3974
I2
aI18
aa(lp3975
I8
aI6
aa(lp3976
I8
aI12
aa(lp3977
I8
aI18
aa(lp3978
I14
aI6
aa(lp3979
I14
aI12
aa(lp3980
I14
aI18
aaI12
aa(lp3981
I-1
a(lp3982
I3
aI3
aa(lp3983
I3
aI9
aa(lp3984
I3
aI15
aa(lp3985
I9
aI3
aa(lp3986
I9
aI9
aa(lp3987
I9
aI15
aa(lp3988
I15
aI3
aa(lp3989
I15
aI9
aa(lp3990
I15
aI15
aaI12
aa(lp3991
I-1
a(lp3992
I3
aI4
aa(lp3993
I3
aI10
aa(lp3994
I3
aI16
aa(lp3995
I9
aI4
aa(lp3996
I9
aI10
aa(lp3997
I9
aI16
aa(lp3998
I15
aI4
aa(lp3999
I15
aI10
aa(lp4000
I15
aI16
aaI12
aa(lp4001
I-1
a(lp4002
I3
aI5
aa(lp4003
I3
aI11
aa(lp4004
I3
aI17
aa(lp4005
I9
aI5
aa(lp4006
I9
aI11
aa(lp4007
I9
aI17
aa(lp4008
I15
aI5
aa(lp4009
I15
aI11
aa(lp4010
I15
aI17
aaI12
aa(lp4011
I-1
a(lp4012
I3
aI6
aa(lp4013
I3
aI12
aa(lp4014
I3
aI18
aa(lp4015
I9
aI6
aa(lp4016
I9
aI12
aa(lp4017
I9
aI18
aa(lp4018
I15
aI6
aa(lp4019
I15
aI12
aa(lp4020
I15
aI18
aaI12
aa(lp4021
I-1
a(lp4022
I4
aI3
aa(lp4023
I4
aI9
aa(lp4024
I4
aI15
aa(lp4025
I10
aI3
aa(lp4026
I10
aI9
aa(lp4027
I10
aI15
aa(lp4028
I16
aI3
aa(lp4029
I16
aI9
aa(lp4030
I16
aI15
aaI12
aa(lp4031
I-1
a(lp4032
I4
aI4
aa(lp4033
I4
aI10
aa(lp4034
I4
aI16
aa(lp4035
I10
aI4
aa(lp4036
I10
aI10
aa(lp4037
I10
aI16
aa(lp4038
I16
aI4
aa(lp4039
I16
aI10
aa(lp4040
I16
aI16
aaI12
aa(lp4041
I-1
a(lp4042
I4
aI5
aa(lp4043
I4
aI11
aa(lp4044
I4
aI17
aa(lp4045
I10
aI5
aa(lp4046
I10
aI11
aa(lp4047
I10
aI17
aa(lp4048
I16
aI5
aa(lp4049
I16
aI11
aa(lp4050
I16
aI17
aaI12
aa(lp4051
I-1
a(lp4052
I4
aI6
aa(lp4053
I4
aI12
aa(lp4054
I4
aI18
aa(lp4055
I10
aI6
aa(lp4056
I10
aI12
aa(lp4057
I10
aI18
aa(lp4058
I16
aI6
aa(lp4059
I16
aI12
aa(lp4060
I16
aI18
aaI12
aa(lp4061
I-1
a(lp4062
I5
aI3
aa(lp4063
I5
aI9
aa(lp4064
I5
aI15
aa(lp4065
I11
aI3
aa(lp4066
I11
aI9
aa(lp4067
I11
aI15
aa(lp4068
I17
aI3
aa(lp4069
I17
aI9
aa(lp4070
I17
aI15
aaI12
aa(lp4071
I-1
a(lp4072
I5
aI4
aa(lp4073
I5
aI10
aa(lp4074
I5
aI16
aa(lp4075
I11
aI4
aa(lp4076
I11
aI10
aa(lp4077
I11
aI16
aa(lp4078
I17
aI4
aa(lp4079
I17
aI10
aa(lp4080
I17
aI16
aaI12
aa(lp4081
I-1
a(lp4082
I6
aI-1
aa(lp4083
I6
aI5
aa(lp4084
I6
aI11
aa(lp4085
I12
aI-1
aa(lp4086
I12
aI5
aa(lp4087
I12
aI11
aa(lp4088
I18
aI-1
aa(lp4089
I18
aI5
aa(lp4090
I18
aI11
aaI12
aa(lp4091
I-1
a(lp4092
I6
aI0
aa(lp4093
I6
aI6
aa(lp4094
I6
aI12
aa(lp4095
I12
aI0
aa(lp4096
I12
aI6
aa(lp4097
I12
aI12
aa(lp4098
I18
aI0
aa(lp4099
I18
aI6
aa(lp4100
I18
aI12
aaI12
aa(lp4101
I-1
a(lp4102
I6
aI1
aa(lp4103
I6
aI7
aa(lp4104
I6
aI13
aa(lp4105
I12
aI1
aa(lp4106
I12
aI7
aa(lp4107
I12
aI13
aa(lp4108
I18
aI1
aa(lp4109
I18
aI7
aa(lp4110
I18
aI13
aaI12
aa(lp4111
I-1
a(lp4112
I-1
aI2
aa(lp4113
I-1
aI9
aa(lp4114
I-1
aI16
aa(lp4115
I6
aI2
aa(lp4116
I6
aI9
aa(lp4117
I6
aI16
aa(lp4118
I13
aI2
aa(lp4119
I13
aI9
aa(lp4120
I13
aI16
aaI14
aa(lp4121
I-1
a(lp4122
I-1
aI3
aa(lp4123
I-1
aI10
aa(lp4124
I-1
aI17
aa(lp4125
I6
aI3
aa(lp4126
I6
aI10
aa(lp4127
I6
aI17
aa(lp4128
I13
aI3
aa(lp4129
I13
aI10
aa(lp4130
I13
aI17
aaI14
aa(lp4131
I-1
a(lp4132
I-1
aI4
aa(lp4133
I-1
aI11
aa(lp4134
I-1
aI18
aa(lp4135
I6
aI4
aa(lp4136
I6
aI11
aa(lp4137
I6
aI18
aa(lp4138
I13
aI4
aa(lp4139
I13
aI11
aa(lp4140
I13
aI18
aaI14
aa(lp4141
I-1
a(lp4142
I0
aI2
aa(lp4143
I0
aI9
aa(lp4144
I0
aI16
aa(lp4145
I7
aI2
aa(lp4146
I7
aI9
aa(lp4147
I7
aI16
aa(lp4148
I14
aI2
aa(lp4149
I14
aI9
aa(lp4150
I14
aI16
aaI14
aa(lp4151
I-1
a(lp4152
I0
aI3
aa(lp4153
I0
aI10
aa(lp4154
I0
aI17
aa(lp4155
I7
aI3
aa(lp4156
I7
aI10
aa(lp4157
I7
aI17
aa(lp4158
I14
aI3
aa(lp4159
I14
aI10
aa(lp4160
I14
aI17
aaI14
aa(lp4161
I-1
a(lp4162
I0
aI4
aa(lp4163
I0
aI11
aa(lp4164
I0
aI18
aa(lp4165
I7
aI4
aa(lp4166
I7
aI11
aa(lp4167
I7
aI18
aa(lp4168
I14
aI4
aa(lp4169
I14
aI11
aa(lp4170
I14
aI18
aaI14
aa(lp4171
I-1
a(lp4172
I1
aI2
aa(lp4173
I1
aI9
aa(lp4174
I1
aI16
aa(lp4175
I8
aI2
aa(lp4176
I8
aI9
aa(lp4177
I8
aI16
aa(lp4178
I15
aI2
aa(lp4179
I15
aI9
aa(lp4180
I15
aI16
aaI14
aa(lp4181
I-1
a(lp4182
I1
aI3
aa(lp4183
I1
aI10
aa(lp4184
I1
aI17
aa(lp4185
I8
aI3
aa(lp4186
I8
aI10
aa(lp4187
I8
aI17
aa(lp4188
I15
aI3
aa(lp4189
I15
aI10
aa(lp4190
I15
aI17
aaI14
aa(lp4191
I-1
a(lp4192
I1
aI4
aa(lp4193
I1
aI11
aa(lp4194
I1
aI18
aa(lp4195
I8
aI4
aa(lp4196
I8
aI11
aa(lp4197
I8
aI18
aa(lp4198
I15
aI4
aa(lp4199
I15
aI11
aa(lp4200
I15
aI18
aaI14
aa(lp4201
I-1
a(lp4202
I2
aI2
aa(lp4203
I2
aI9
aa(lp4204
I2
aI16
aa(lp4205
I9
aI2
aa(lp4206
I9
aI9
aa(lp4207
I9
aI16
aa(lp4208
I16
aI2
aa(lp4209
I16
aI9
aa(lp4210
I16
aI16
aaI14
aa(lp4211
I-1
a(lp4212
I2
aI3
aa(lp4213
I2
aI10
aa(lp4214
I2
aI17
aa(lp4215
I9
aI3
aa(lp4216
I9
aI10
aa(lp4217
I9
aI17
aa(lp4218
I16
aI3
aa(lp4219
I16
aI10
aa(lp4220
I16
aI17
aaI14
aa(lp4221
I-1
a(lp4222
I2
aI4
aa(lp4223
I2
aI11
aa(lp4224
I2
aI18
aa(lp4225
I9
aI4
aa(lp4226
I9
aI11
aa(lp4227
I9
aI18
aa(lp4228
I16
aI4
aa(lp4229
I16
aI11
aa(lp4230
I16
aI18
aaI14
aa(lp4231
I-1
a(lp4232
I3
aI2
aa(lp4233
I3
aI9
aa(lp4234
I3
aI16
aa(lp4235
I10
aI2
aa(lp4236
I10
aI9
aa(lp4237
I10
aI16
aa(lp4238
I17
aI2
aa(lp4239
I17
aI9
aa(lp4240
I17
aI16
aaI14
aa(lp4241
I-1
a(lp4242
I3
aI3
aa(lp4243
I3
aI10
aa(lp4244
I3
aI17
aa(lp4245
I10
aI3
aa(lp4246
I10
aI10
aa(lp4247
I10
aI17
aa(lp4248
I17
aI3
aa(lp4249
I17
aI10
aa(lp4250
I17
aI17
aaI14
aa(lp4251
I-1
a(lp4252
I3
aI4
aa(lp4253
I3
aI11
aa(lp4254
I3
aI18
aa(lp4255
I10
aI4
aa(lp4256
I10
aI11
aa(lp4257
I10
aI18
aa(lp4258
I17
aI4
aa(lp4259
I17
aI11
aa(lp4260
I17
aI18
aaI14
aa(lp4261
I-1
a(lp4262
I4
aI3
aa(lp4263
I4
aI10
aa(lp4264
I4
aI17
aa(lp4265
I11
aI3
aa(lp4266
I11
aI10
aa(lp4267
I11
aI17
aa(lp4268
I18
aI3
aa(lp4269
I18
aI10
aa(lp4270
I18
aI17
aaI14
aa(lp4271
I-1
a(lp4272
I-1
aI1
aa(lp4273
I-1
aI9
aa(lp4274
I-1
aI17
aa(lp4275
I7
aI1
aa(lp4276
I7
aI9
aa(lp4277
I7
aI17
aa(lp4278
I15
aI1
aa(lp4279
I15
aI9
aa(lp4280
I15
aI17
aaI16
aa(lp4281
I-1
a(lp4282
I-1
aI2
aa(lp4283
I-1
aI10
aa(lp4284
I-1
aI18
aa(lp4285
I7
aI2
aa(lp4286
I7
aI10
aa(lp4287
I7
aI18
aa(lp4288
I15
aI2
aa(lp4289
I15
aI10
aa(lp4290
I15
aI18
aaI16
aa(lp4291
I-1
a(lp4292
I0
aI1
aa(lp4293
I0
aI9
aa(lp4294
I0
aI17
aa(lp4295
I8
aI1
aa(lp4296
I8
aI9
aa(lp4297
I8
aI17
aa(lp4298
I16
aI1
aa(lp4299
I16
aI9
aa(lp4300
I16
aI17
aaI16
aa(lp4301
I-1
a(lp4302
I0
aI2
aa(lp4303
I0
aI10
aa(lp4304
I0
aI18
aa(lp4305
I8
aI2
aa(lp4306
I8
aI10
aa(lp4307
I8
aI18
aa(lp4308
I16
aI2
aa(lp4309
I16
aI10
aa(lp4310
I16
aI18
aaI16
aa(lp4311
I-1
a(lp4312
I1
aI1
aa(lp4313
I1
aI9
aa(lp4314
I1
aI17
aa(lp4315
I9
aI1
aa(lp4316
I9
aI9
aa(lp4317
I9
aI17
aa(lp4318
I17
aI1
aa(lp4319
I17
aI9
aa(lp4320
I17
aI17
aaI16
aa(lp4321
I-1
a(lp4322
I1
aI2
aa(lp4323
I1
aI10
aa(lp4324
I1
aI18
aa(lp4325
I9
aI2
aa(lp4326
I9
aI10
aa(lp4327
I9
aI18
aa(lp4328
I17
aI2
aa(lp4329
I17
aI10
aa(lp4330
I17
aI18
aaI16
aa(lp4331
I-1
a(lp4332
I2
aI1
aa(lp4333
I2
aI9
aa(lp4334
I2
aI17
aa(lp4335
I10
aI1
aa(lp4336
I10
aI9
aa(lp4337
I10
aI17
aa(lp4338
I18
aI1
aa(lp4339
I18
aI9
aa(lp4340
I18
aI17
aaI16
aa(lp4341
I-1
a(lp4342
I2
aI2
aa(lp4343
I2
aI10
aa(lp4344
I2
aI18
aa(lp4345
I10
aI2
aa(lp4346
I10
aI10
aa(lp4347
I10
aI18
aa(lp4348
I18
aI2
aa(lp4349
I18
aI10
aa(lp4350
I18
aI18
aaI16
aa(lp4351
I-1
a(lp4352
I-1
aI0
aa(lp4353
I-1
aI9
aa(lp4354
I-1
aI18
aa(lp4355
I8
aI0
aa(lp4356
I8
aI9
aa(lp4357
I8
aI18
aa(lp4358
I17
aI0
aa(lp4359
I17
aI9
aa(lp4360
I17
aI18
aaI18
aa(lp4361
I-1
a(lp4362
I0
aI0
aa(lp4363
I0
aI9
aa(lp4364
I0
aI18
aa(lp4365
I9
aI0
aa(lp4366
I9
aI9
aa(lp4367
I9
aI18
aa(lp4368
I18
aI0
aa(lp4369
I18
aI9
aa(lp4370
I18
aI18
aaI18
aa.