(lp0
(lp1
I-1
a(lp2
I6
aI8
aa(lp3
I6
aI9
aa(lp4
I10
aI8
aa(lp5
I10
aI9
aa(lp6
I14
aI8
aa(lp7
I14
aI9
aa(lp8
I18
aI8
aa(lp9
I18
aI9
aaI4
aa(lp10
I-1
a(lp11
I6
aI9
aa(lp12
I6
aI10
aa(lp13
I10
aI9
aa(lp14
I10
aI10
aa(lp15
I14
aI9
aa(lp16
I14
aI10
aa(lp17
I18
aI9
aa(lp18
I18
aI10
aaI4
aa(lp19
I-1
a(lp20
I6
aI7
aa(lp21
I6
aI9
aa(lp22
I10
aI7
aa(lp23
I10
aI9
aa(lp24
I14
aI7
aa(lp25
I14
aI9
aa(lp26
I18
aI7
aa(lp27
I18
aI9
aaI8
aa(lp28
I-1
a(lp29
I6
aI8
aa(lp30
I6
aI10
aa(lp31
I10
aI8
aa(lp32
I10
aI10
aa(lp33
I14
aI8
aa(lp34
I14
aI10
aa(lp35
I18
aI8
aa(lp36
I18
aI10
aaI8
aa(lp37
I-1
a(lp38
I6
aI7
aa(lp39
I6
aI10
aa(lp40
I10
aI7
aa(lp41
I10
aI10
aa(lp42
I14
aI7
aa(lp43
I14
aI10
aa(lp44
I18
aI7
aa(lp45
I18
aI10
aaI12
aa(lp46
I-1
a(lp47
I6
aI8
aa(lp48
I6
aI11
aa(lp49
I10
aI8
aa(lp50
I10
aI11
aa(lp51
I14
aI8
aa(lp52
I14
aI11
aa(lp53
I18
aI8
aa(lp54
I18
aI11
aaI12
aa.