(lp0
(lp1
I1
a(lp2
I3
aI9
aa(lp3
I3
aI10
aa(lp4
I6
aI9
aa(lp5
I6
aI10
aa(lp6
I9
aI9
aa(lp7
I9
aI10
aa(lp8
I12
aI9
aa(lp9
I12
aI10
aaI3
aa(lp10
I1
a(lp11
I3
aI10
aa(lp12
I3
aI11
aa(lp13
I6
aI10
aa(lp14
I6
aI11
aa(lp15
I9
aI10
aa(lp16
I9
aI11
aa(lp17
I12
aI10
aa(lp18
I12
aI11
aaI3
aa(lp19
I1
a(lp20
I4
aI3
aa(lp21
I4
aI4
aa(lp22
I7
aI3
aa(lp23
I7
aI4
aa(lp24
I10
aI3
aa(lp25
I10
aI4
aa(lp26
I13
aI3
aa(lp27
I13
aI4
aaI3
aa(lp28
I1
a(lp29
I1
aI8
aa(lp30
I1
aI9
aa(lp31
I5
aI8
aa(lp32
I5
aI9
aa(lp33
I9
aI8
aa(lp34
I9
aI9
aa(lp35
I13
aI8
aa(lp36
I13
aI9
aaI4
aa(lp37
I1
a(lp38
I1
aI9
aa(lp39
I1
aI10
aa(lp40
I5
aI9
aa(lp41
I5
aI10
aa(lp42
I9
aI9
aa(lp43
I9
aI10
aa(lp44
I13
aI9
aa(lp45
I13
aI10
aaI4
aa(lp46
I1
a(lp47
I1
aI10
aa(lp48
I1
aI11
aa(lp49
I5
aI10
aa(lp50
I5
aI11
aa(lp51
I9
aI10
aa(lp52
I9
aI11
aa(lp53
I13
aI10
aa(lp54
I13
aI11
aaI4
aa(lp55
I1
a(lp56
I1
aI12
aa(lp57
I1
aI13
aa(lp58
I5
aI12
aa(lp59
I5
aI13
aa(lp60
I9
aI12
aa(lp61
I9
aI13
aa(lp62
I13
aI12
aa(lp63
I13
aI13
aaI4
aa(lp64
I1
a(lp65
I2
aI3
aa(lp66
I2
aI4
aa(lp67
I6
aI3
aa(lp68
I6
aI4
aa(lp69
I10
aI3
aa(lp70
I10
aI4
aa(lp71
I14
aI3
aa(lp72
I14
aI4
aaI4
aa(lp73
I1
a(lp74
I2
aI4
aa(lp75
I2
aI5
aa(lp76
I6
aI4
aa(lp77
I6
aI5
aa(lp78
I10
aI4
aa(lp79
I10
aI5
aa(lp80
I14
aI4
aa(lp81
I14
aI5
aaI4
aa(lp82
I1
a(lp83
I2
aI8
aa(lp84
I2
aI9
aa(lp85
I6
aI8
aa(lp86
I6
aI9
aa(lp87
I10
aI8
aa(lp88
I10
aI9
aa(lp89
I14
aI8
aa(lp90
I14
aI9
aaI4
aa(lp91
I1
a(lp92
I2
aI9
aa(lp93
I2
aI10
aa(lp94
I6
aI9
aa(lp95
I6
aI10
aa(lp96
I10
aI9
aa(lp97
I10
aI10
aa(lp98
I14
aI9
aa(lp99
I14
aI10
aaI4
aa(lp100
I1
a(lp101
I2
aI10
aa(lp102
I2
aI11
aa(lp103
I6
aI10
aa(lp104
I6
aI11
aa(lp105
I10
aI10
aa(lp106
I10
aI11
aa(lp107
I14
aI10
aa(lp108
I14
aI11
aaI4
aa(lp109
I1
a(lp110
I2
aI12
aa(lp111
I2
aI13
aa(lp112
I6
aI12
aa(lp113
I6
aI13
aa(lp114
I10
aI12
aa(lp115
I10
aI13
aa(lp116
I14
aI12
aa(lp117
I14
aI13
aaI4
aa(lp118
I1
a(lp119
I2
aI13
aa(lp120
I2
aI14
aa(lp121
I6
aI13
aa(lp122
I6
aI14
aa(lp123
I10
aI13
aa(lp124
I10
aI14
aa(lp125
I14
aI13
aa(lp126
I14
aI14
aaI4
aa(lp127
I1
a(lp128
I2
aI14
aa(lp129
I2
aI15
aa(lp130
I6
aI14
aa(lp131
I6
aI15
aa(lp132
I10
aI14
aa(lp133
I10
aI15
aa(lp134
I14
aI14
aa(lp135
I14
aI15
aaI4
aa(lp136
I1
a(lp137
I3
aI3
aa(lp138
I3
aI4
aa(lp139
I7
aI3
aa(lp140
I7
aI4
aa(lp141
I11
aI3
aa(lp142
I11
aI4
aa(lp143
I15
aI3
aa(lp144
I15
aI4
aaI4
aa(lp145
I1
a(lp146
I-1
aI8
aa(lp147
I-1
aI9
aa(lp148
I4
aI8
aa(lp149
I4
aI9
aa(lp150
I9
aI8
aa(lp151
I9
aI9
aa(lp152
I14
aI8
aa(lp153
I14
aI9
aaI5
aa(lp154
I1
a(lp155
I-1
aI9
aa(lp156
I-1
aI10
aa(lp157
I4
aI9
aa(lp158
I4
aI10
aa(lp159
I9
aI9
aa(lp160
I9
aI10
aa(lp161
I14
aI9
aa(lp162
I14
aI10
aaI5
aa(lp163
I1
a(lp164
I0
aI8
aa(lp165
I0
aI9
aa(lp166
I5
aI8
aa(lp167
I5
aI9
aa(lp168
I10
aI8
aa(lp169
I10
aI9
aa(lp170
I15
aI8
aa(lp171
I15
aI9
aaI5
aa(lp172
I1
a(lp173
I0
aI9
aa(lp174
I0
aI10
aa(lp175
I5
aI9
aa(lp176
I5
aI10
aa(lp177
I10
aI9
aa(lp178
I10
aI10
aa(lp179
I15
aI9
aa(lp180
I15
aI10
aaI5
aa(lp181
I1
a(lp182
I0
aI12
aa(lp183
I0
aI13
aa(lp184
I5
aI12
aa(lp185
I5
aI13
aa(lp186
I10
aI12
aa(lp187
I10
aI13
aa(lp188
I15
aI12
aa(lp189
I15
aI13
aaI5
aa(lp190
I1
a(lp191
I0
aI13
aa(lp192
I0
aI14
aa(lp193
I5
aI13
aa(lp194
I5
aI14
aa(lp195
I10
aI13
aa(lp196
I10
aI14
aa(lp197
I15
aI13
aa(lp198
I15
aI14
aaI5
aa(lp199
I1
a(lp200
I0
aI14
aa(lp201
I0
aI15
aa(lp202
I5
aI14
aa(lp203
I5
aI15
aa(lp204
I10
aI14
aa(lp205
I10
aI15
aa(lp206
I15
aI14
aa(lp207
I15
aI15
aaI5
aa(lp208
I1
a(lp209
I1
aI13
aa(lp210
I1
aI14
aa(lp211
I6
aI13
aa(lp212
I6
aI14
aa(lp213
I11
aI13
aa(lp214
I11
aI14
aa(lp215
I16
aI13
aa(lp216
I16
aI14
aaI5
aa(lp217
I1
a(lp218
I3
aI8
aa(lp219
I3
aI10
aa(lp220
I6
aI8
aa(lp221
I6
aI10
aa(lp222
I9
aI8
aa(lp223
I9
aI10
aa(lp224
I12
aI8
aa(lp225
I12
aI10
aaI6
aa(lp226
I1
a(lp227
I3
aI9
aa(lp228
I3
aI11
aa(lp229
I6
aI9
aa(lp230
I6
aI11
aa(lp231
I9
aI9
aa(lp232
I9
aI11
aa(lp233
I12
aI9
aa(lp234
I12
aI11
aaI6
aa(lp235
I1
a(lp236
I1
aI8
aa(lp237
I1
aI10
aa(lp238
I5
aI8
aa(lp239
I5
aI10
aa(lp240
I9
aI8
aa(lp241
I9
aI10
aa(lp242
I13
aI8
aa(lp243
I13
aI10
aaI8
aa(lp244
I1
a(lp245
I1
aI9
aa(lp246
I1
aI11
aa(lp247
I5
aI9
aa(lp248
I5
aI11
aa(lp249
I9
aI9
aa(lp250
I9
aI11
aa(lp251
I13
aI9
aa(lp252
I13
aI11
aaI8
aa(lp253
I1
a(lp254
I1
aI10
aa(lp255
I1
aI12
aa(lp256
I5
aI10
aa(lp257
I5
aI12
aa(lp258
I9
aI10
aa(lp259
I9
aI12
aa(lp260
I13
aI10
aa(lp261
I13
aI12
aaI8
aa(lp262
I1
a(lp263
I1
aI11
aa(lp264
I1
aI13
aa(lp265
I5
aI11
aa(lp266
I5
aI13
aa(lp267
I9
aI11
aa(lp268
I9
aI13
aa(lp269
I13
aI11
aa(lp270
I13
aI13
aaI8
aa(lp271
I1
a(lp272
I1
aI12
aa(lp273
I1
aI14
aa(lp274
I5
aI12
aa(lp275
I5
aI14
aa(lp276
I9
aI12
aa(lp277
I9
aI14
aa(lp278
I13
aI12
aa(lp279
I13
aI14
aaI8
aa(lp280
I1
a(lp281
I2
aI3
aa(lp282
I2
aI5
aa(lp283
I6
aI3
aa(lp284
I6
aI5
aa(lp285
I10
aI3
aa(lp286
I10
aI5
aa(lp287
I14
aI3
aa(lp288
I14
aI5
aaI8
aa(lp289
I1
a(lp290
I2
aI8
aa(lp291
I2
aI10
aa(lp292
I6
aI8
aa(lp293
I6
aI10
aa(lp294
I10
aI8
aa(lp295
I10
aI10
aa(lp296
I14
aI8
aa(lp297
I14
aI10
aaI8
aa(lp298
I1
a(lp299
I2
aI9
aa(lp300
I2
aI11
aa(lp301
I6
aI9
aa(lp302
I6
aI11
aa(lp303
I10
aI9
aa(lp304
I10
aI11
aa(lp305
I14
aI9
aa(lp306
I14
aI11
aaI8
aa(lp307
I1
a(lp308
I2
aI10
aa(lp309
I2
aI12
aa(lp310
I6
aI10
aa(lp311
I6
aI12
aa(lp312
I10
aI10
aa(lp313
I10
aI12
aa(lp314
I14
aI10
aa(lp315
I14
aI12
aaI8
aa(lp316
I1
a(lp317
I2
aI11
aa(lp318
I2
aI13
aa(lp319
I6
aI11
aa(lp320
I6
aI13
aa(lp321
I10
aI11
aa(lp322
I10
aI13
aa(lp323
I14
aI11
aa(lp324
I14
aI13
aaI8
aa(lp325
I1
a(lp326
I2
aI12
aa(lp327
I2
aI14
aa(lp328
I6
aI12
aa(lp329
I6
aI14
aa(lp330
I10
aI12
aa(lp331
I10
aI14
aa(lp332
I14
aI12
aa(lp333
I14
aI14
aaI8
aa(lp334
I1
a(lp335
I2
aI13
aa(lp336
I2
aI15
aa(lp337
I6
aI13
aa(lp338
I6
aI15
aa(lp339
I10
aI13
aa(lp340
I10
aI15
aa(lp341
I14
aI13
aa(lp342
I14
aI15
aaI8
aa(lp343
I1
a(lp344
I-1
aI8
aa(lp345
I-1
aI10
aa(lp346
I4
aI8
aa(lp347
I4
aI10
aa(lp348
I9
aI8
aa(lp349
I9
aI10
aa(lp350
I14
aI8
aa(lp351
I14
aI10
aaI10
aa(lp352
I1
a(lp353
I0
aI8
aa(lp354
I0
aI10
aa(lp355
I5
aI8
aa(lp356
I5
aI10
aa(lp357
I10
aI8
aa(lp358
I10
aI10
aa(lp359
I15
aI8
aa(lp360
I15
aI10
aaI10
aa(lp361
I1
a(lp362
I0
aI9
aa(lp363
I0
aI11
aa(lp364
I5
aI9
aa(lp365
I5
aI11
aa(lp366
I10
aI9
aa(lp367
I10
aI11
aa(lp368
I15
aI9
aa(lp369
I15
aI11
aaI10
aa(lp370
I1
a(lp371
I0
aI11
aa(lp372
I0
aI13
aa(lp373
I5
aI11
aa(lp374
I5
aI13
aa(lp375
I10
aI11
aa(lp376
I10
aI13
aa(lp377
I15
aI11
aa(lp378
I15
aI13
aaI10
aa(lp379
I1
a(lp380
I0
aI12
aa(lp381
I0
aI14
aa(lp382
I5
aI12
aa(lp383
I5
aI14
aa(lp384
I10
aI12
aa(lp385
I10
aI14
aa(lp386
I15
aI12
aa(lp387
I15
aI14
aaI10
aa(lp388
I1
a(lp389
I0
aI13
aa(lp390
I0
aI15
aa(lp391
I5
aI13
aa(lp392
I5
aI15
aa(lp393
I10
aI13
aa(lp394
I10
aI15
aa(lp395
I15
aI13
aa(lp396
I15
aI15
aaI10
aa(lp397
I1
a(lp398
I1
aI12
aa(lp399
I1
aI14
aa(lp400
I6
aI12
aa(lp401
I6
aI14
aa(lp402
I11
aI12
aa(lp403
I11
aI14
aa(lp404
I16
aI12
aa(lp405
I16
aI14
aaI10
aa(lp406
I1
a(lp407
I3
aI8
aa(lp408
I3
aI11
aa(lp409
I6
aI8
aa(lp410
I6
aI11
aa(lp411
I9
aI8
aa(lp412
I9
aI11
aa(lp413
I12
aI8
aa(lp414
I12
aI11
aaI9
aa(lp415
I1
a(lp416
I3
aI9
aa(lp417
I3
aI12
aa(lp418
I6
aI9
aa(lp419
I6
aI12
aa(lp420
I9
aI9
aa(lp421
I9
aI12
aa(lp422
I12
aI9
aa(lp423
I12
aI12
aaI9
aa(lp424
I1
a(lp425
I1
aI8
aa(lp426
I1
aI11
aa(lp427
I5
aI8
aa(lp428
I5
aI11
aa(lp429
I9
aI8
aa(lp430
I9
aI11
aa(lp431
I13
aI8
aa(lp432
I13
aI11
aaI12
aa(lp433
I1
a(lp434
I1
aI9
aa(lp435
I1
aI12
aa(lp436
I5
aI9
aa(lp437
I5
aI12
aa(lp438
I9
aI9
aa(lp439
I9
aI12
aa(lp440
I13
aI9
aa(lp441
I13
aI12
aaI12
aa(lp442
I1
a(lp443
I1
aI10
aa(lp444
I1
aI13
aa(lp445
I5
aI10
aa(lp446
I5
aI13
aa(lp447
I9
aI10
aa(lp448
I9
aI13
aa(lp449
I13
aI10
aa(lp450
I13
aI13
aaI12
aa(lp451
I1
a(lp452
I1
aI11
aa(lp453
I1
aI14
aa(lp454
I5
aI11
aa(lp455
I5
aI14
aa(lp456
I9
aI11
aa(lp457
I9
aI14
aa(lp458
I13
aI11
aa(lp459
I13
aI14
aaI12
aa(lp460
I1
a(lp461
I2
aI8
aa(lp462
I2
aI11
aa(lp463
I6
aI8
aa(lp464
I6
aI11
aa(lp465
I10
aI8
aa(lp466
I10
aI11
aa(lp467
I14
aI8
aa(lp468
I14
aI11
aaI12
aa(lp469
I1
a(lp470
I2
aI9
aa(lp471
I2
aI12
aa(lp472
I6
aI9
aa(lp473
I6
aI12
aa(lp474
I10
aI9
aa(lp475
I10
aI12
aa(lp476
I14
aI9
aa(lp477
I14
aI12
aaI12
aa(lp478
I1
a(lp479
I2
aI10
aa(lp480
I2
aI13
aa(lp481
I6
aI10
aa(lp482
I6
aI13
aa(lp483
I10
aI10
aa(lp484
I10
aI13
aa(lp485
I14
aI10
aa(lp486
I14
aI13
aaI12
aa(lp487
I1
a(lp488
I2
aI11
aa(lp489
I2
aI14
aa(lp490
I6
aI11
aa(lp491
I6
aI14
aa(lp492
I10
aI11
aa(lp493
I10
aI14
aa(lp494
I14
aI11
aa(lp495
I14
aI14
aaI12
aa(lp496
I1
a(lp497
I2
aI12
aa(lp498
I2
aI15
aa(lp499
I6
aI12
aa(lp500
I6
aI15
aa(lp501
I10
aI12
aa(lp502
I10
aI15
aa(lp503
I14
aI12
aa(lp504
I14
aI15
aaI12
aa(lp505
I1
a(lp506
I-1
aI8
aa(lp507
I-1
aI11
aa(lp508
I4
aI8
aa(lp509
I4
aI11
aa(lp510
I9
aI8
aa(lp511
I9
aI11
aa(lp512
I14
aI8
aa(lp513
I14
aI11
aaI15
aa(lp514
I1
a(lp515
I0
aI8
aa(lp516
I0
aI11
aa(lp517
I5
aI8
aa(lp518
I5
aI11
aa(lp519
I10
aI8
aa(lp520
I10
aI11
aa(lp521
I15
aI8
aa(lp522
I15
aI11
aaI15
aa(lp523
I1
a(lp524
I0
aI9
aa(lp525
I0
aI12
aa(lp526
I5
aI9
aa(lp527
I5
aI12
aa(lp528
I10
aI9
aa(lp529
I10
aI12
aa(lp530
I15
aI9
aa(lp531
I15
aI12
aaI15
aa(lp532
I1
a(lp533
I0
aI10
aa(lp534
I0
aI13
aa(lp535
I5
aI10
aa(lp536
I5
aI13
aa(lp537
I10
aI10
aa(lp538
I10
aI13
aa(lp539
I15
aI10
aa(lp540
I15
aI13
aaI15
aa(lp541
I1
a(lp542
I0
aI11
aa(lp543
I0
aI14
aa(lp544
I5
aI11
aa(lp545
I5
aI14
aa(lp546
I10
aI11
aa(lp547
I10
aI14
aa(lp548
I15
aI11
aa(lp549
I15
aI14
aaI15
aa(lp550
I1
a(lp551
I0
aI12
aa(lp552
I0
aI15
aa(lp553
I5
aI12
aa(lp554
I5
aI15
aa(lp555
I10
aI12
aa(lp556
I10
aI15
aa(lp557
I15
aI12
aa(lp558
I15
aI15
aaI15
aa(lp559
I1
a(lp560
I0
aI13
aa(lp561
I0
aI16
aa(lp562
I5
aI13
aa(lp563
I5
aI16
aa(lp564
I10
aI13
aa(lp565
I10
aI16
aa(lp566
I15
aI13
aa(lp567
I15
aI16
aaI15
aa(lp568
I1
a(lp569
I1
aI11
aa(lp570
I1
aI14
aa(lp571
I6
aI11
aa(lp572
I6
aI14
aa(lp573
I11
aI11
aa(lp574
I11
aI14
aa(lp575
I16
aI11
aa(lp576
I16
aI14
aaI15
aa(lp577
I1
a(lp578
I3
aI8
aa(lp579
I3
aI12
aa(lp580
I6
aI8
aa(lp581
I6
aI12
aa(lp582
I9
aI8
aa(lp583
I9
aI12
aa(lp584
I12
aI8
aa(lp585
I12
aI12
aaI12
aa(lp586
I1
a(lp587
I1
aI8
aa(lp588
I1
aI12
aa(lp589
I5
aI8
aa(lp590
I5
aI12
aa(lp591
I9
aI8
aa(lp592
I9
aI12
aa(lp593
I13
aI8
aa(lp594
I13
aI12
aaI16
aa(lp595
I1
a(lp596
I1
aI9
aa(lp597
I1
aI13
aa(lp598
I5
aI9
aa(lp599
I5
aI13
aa(lp600
I9
aI9
aa(lp601
I9
aI13
aa(lp602
I13
aI9
aa(lp603
I13
aI13
aaI16
aa(lp604
I1
a(lp605
I1
aI10
aa(lp606
I1
aI14
aa(lp607
I5
aI10
aa(lp608
I5
aI14
aa(lp609
I9
aI10
aa(lp610
I9
aI14
aa(lp611
I13
aI10
aa(lp612
I13
aI14
aaI16
aa(lp613
I1
a(lp614
I2
aI8
aa(lp615
I2
aI12
aa(lp616
I6
aI8
aa(lp617
I6
aI12
aa(lp618
I10
aI8
aa(lp619
I10
aI12
aa(lp620
I14
aI8
aa(lp621
I14
aI12
aaI16
aa(lp622
I1
a(lp623
I2
aI9
aa(lp624
I2
aI13
aa(lp625
I6
aI9
aa(lp626
I6
aI13
aa(lp627
I10
aI9
aa(lp628
I10
aI13
aa(lp629
I14
aI9
aa(lp630
I14
aI13
aaI16
aa(lp631
I1
a(lp632
I2
aI10
aa(lp633
I2
aI14
aa(lp634
I6
aI10
aa(lp635
I6
aI14
aa(lp636
I10
aI10
aa(lp637
I10
aI14
aa(lp638
I14
aI10
aa(lp639
I14
aI14
aaI16
aa(lp640
I1
a(lp641
I2
aI11
aa(lp642
I2
aI15
aa(lp643
I6
aI11
aa(lp644
I6
aI15
aa(lp645
I10
aI11
aa(lp646
I10
aI15
aa(lp647
I14
aI11
aa(lp648
I14
aI15
aaI16
aa(lp649
I1
a(lp650
I2
aI12
aa(lp651
I2
aI16
aa(lp652
I6
aI12
aa(lp653
I6
aI16
aa(lp654
I10
aI12
aa(lp655
I10
aI16
aa(lp656
I14
aI12
aa(lp657
I14
aI16
aaI16
aa(lp658
I1
a(lp659
I0
aI8
aa(lp660
I0
aI12
aa(lp661
I5
aI8
aa(lp662
I5
aI12
aa(lp663
I10
aI8
aa(lp664
I10
aI12
aa(lp665
I15
aI8
aa(lp666
I15
aI12
aaI20
aa(lp667
I1
a(lp668
I0
aI9
aa(lp669
I0
aI13
aa(lp670
I5
aI9
aa(lp671
I5
aI13
aa(lp672
I10
aI9
aa(lp673
I10
aI13
aa(lp674
I15
aI9
aa(lp675
I15
aI13
aaI20
aa(lp676
I1
a(lp677
I0
aI10
aa(lp678
I0
aI14
aa(lp679
I5
aI10
aa(lp680
I5
aI14
aa(lp681
I10
aI10
aa(lp682
I10
aI14
aa(lp683
I15
aI10
aa(lp684
I15
aI14
aaI20
aa(lp685
I1
a(lp686
I0
aI11
aa(lp687
I0
aI15
aa(lp688
I5
aI11
aa(lp689
I5
aI15
aa(lp690
I10
aI11
aa(lp691
I10
aI15
aa(lp692
I15
aI11
aa(lp693
I15
aI15
aaI20
aa(lp694
I1
a(lp695
I0
aI12
aa(lp696
I0
aI16
aa(lp697
I5
aI12
aa(lp698
I5
aI16
aa(lp699
I10
aI12
aa(lp700
I10
aI16
aa(lp701
I15
aI12
aa(lp702
I15
aI16
aaI20
aa(lp703
I1
a(lp704
I1
aI8
aa(lp705
I1
aI13
aa(lp706
I5
aI8
aa(lp707
I5
aI13
aa(lp708
I9
aI8
aa(lp709
I9
aI13
aa(lp710
I13
aI8
aa(lp711
I13
aI13
aaI20
aa(lp712
I1
a(lp713
I1
aI9
aa(lp714
I1
aI14
aa(lp715
I5
aI9
aa(lp716
I5
aI14
aa(lp717
I9
aI9
aa(lp718
I9
aI14
aa(lp719
I13
aI9
aa(lp720
I13
aI14
aaI20
aa(lp721
I1
a(lp722
I2
aI8
aa(lp723
I2
aI13
aa(lp724
I6
aI8
aa(lp725
I6
aI13
aa(lp726
I10
aI8
aa(lp727
I10
aI13
aa(lp728
I14
aI8
aa(lp729
I14
aI13
aaI20
aa(lp730
I1
a(lp731
I2
aI9
aa(lp732
I2
aI14
aa(lp733
I6
aI9
aa(lp734
I6
aI14
aa(lp735
I10
aI9
aa(lp736
I10
aI14
aa(lp737
I14
aI9
aa(lp738
I14
aI14
aaI20
aa(lp739
I1
a(lp740
I2
aI10
aa(lp741
I2
aI15
aa(lp742
I6
aI10
aa(lp743
I6
aI15
aa(lp744
I10
aI10
aa(lp745
I10
aI15
aa(lp746
I14
aI10
aa(lp747
I14
aI15
aaI20
aa(lp748
I1
a(lp749
I2
aI11
aa(lp750
I2
aI16
aa(lp751
I6
aI11
aa(lp752
I6
aI16
aa(lp753
I10
aI11
aa(lp754
I10
aI16
aa(lp755
I14
aI11
aa(lp756
I14
aI16
aaI20
aa(lp757
I1
a(lp758
I0
aI8
aa(lp759
I0
aI13
aa(lp760
I5
aI8
aa(lp761
I5
aI13
aa(lp762
I10
aI8
aa(lp763
I10
aI13
aa(lp764
I15
aI8
aa(lp765
I15
aI13
aaI25
aa(lp766
I1
a(lp767
I0
aI9
aa(lp768
I0
aI14
aa(lp769
I5
aI9
aa(lp770
I5
aI14
aa(lp771
I10
aI9
aa(lp772
I10
aI14
aa(lp773
I15
aI9
aa(lp774
I15
aI14
aaI25
aa(lp775
I1
a(lp776
I0
aI10
aa(lp777
I0
aI15
aa(lp778
I5
aI10
aa(lp779
I5
aI15
aa(lp780
I10
aI10
aa(lp781
I10
aI15
aa(lp782
I15
aI10
aa(lp783
I15
aI15
aaI25
aa(lp784
I1
a(lp785
I0
aI11
aa(lp786
I0
aI16
aa(lp787
I5
aI11
aa(lp788
I5
aI16
aa(lp789
I10
aI11
aa(lp790
I10
aI16
aa(lp791
I15
aI11
aa(lp792
I15
aI16
aaI25
aa(lp793
I1
a(lp794
I1
aI7
aa(lp795
I1
aI13
aa(lp796
I5
aI7
aa(lp797
I5
aI13
aa(lp798
I9
aI7
aa(lp799
I9
aI13
aa(lp800
I13
aI7
aa(lp801
I13
aI13
aaI24
aa(lp802
I1
a(lp803
I1
aI8
aa(lp804
I1
aI14
aa(lp805
I5
aI8
aa(lp806
I5
aI14
aa(lp807
I9
aI8
aa(lp808
I9
aI14
aa(lp809
I13
aI8
aa(lp810
I13
aI14
aaI24
aa(lp811
I1
a(lp812
I1
aI9
aa(lp813
I1
aI15
aa(lp814
I5
aI9
aa(lp815
I5
aI15
aa(lp816
I9
aI9
aa(lp817
I9
aI15
aa(lp818
I13
aI9
aa(lp819
I13
aI15
aaI24
aa(lp820
I1
a(lp821
I2
aI8
aa(lp822
I2
aI14
aa(lp823
I6
aI8
aa(lp824
I6
aI14
aa(lp825
I10
aI8
aa(lp826
I10
aI14
aa(lp827
I14
aI8
aa(lp828
I14
aI14
aaI24
aa(lp829
I1
a(lp830
I2
aI9
aa(lp831
I2
aI15
aa(lp832
I6
aI9
aa(lp833
I6
aI15
aa(lp834
I10
aI9
aa(lp835
I10
aI15
aa(lp836
I14
aI9
aa(lp837
I14
aI15
aaI24
aa(lp838
I1
a(lp839
I2
aI10
aa(lp840
I2
aI16
aa(lp841
I6
aI10
aa(lp842
I6
aI16
aa(lp843
I10
aI10
aa(lp844
I10
aI16
aa(lp845
I14
aI10
aa(lp846
I14
aI16
aaI24
aa(lp847
I1
a(lp848
I0
aI8
aa(lp849
I0
aI14
aa(lp850
I5
aI8
aa(lp851
I5
aI14
aa(lp852
I10
aI8
aa(lp853
I10
aI14
aa(lp854
I15
aI8
aa(lp855
I15
aI14
aaI30
aa(lp856
I1
a(lp857
I0
aI9
aa(lp858
I0
aI15
aa(lp859
I5
aI9
aa(lp860
I5
aI15
aa(lp861
I10
aI9
aa(lp862
I10
aI15
aa(lp863
I15
aI9
aa(lp864
I15
aI15
aaI30
aa(lp865
I1
a(lp866
I0
aI10
aa(lp867
I0
aI16
aa(lp868
I5
aI10
aa(lp869
I5
aI16
aa(lp870
I10
aI10
aa(lp871
I10
aI16
aa(lp872
I15
aI10
aa(lp873
I15
aI16
aaI30
aa(lp874
I1
a(lp875
I1
aI8
aa(lp876
I1
aI15
aa(lp877
I5
aI8
aa(lp878
I5
aI15
aa(lp879
I9
aI8
aa(lp880
I9
aI15
aa(lp881
I13
aI8
aa(lp882
I13
aI15
aaI28
aa(lp883
I1
a(lp884
I1
aI9
aa(lp885
I1
aI16
aa(lp886
I5
aI9
aa(lp887
I5
aI16
aa(lp888
I9
aI9
aa(lp889
I9
aI16
aa(lp890
I13
aI9
aa(lp891
I13
aI16
aaI28
aa(lp892
I1
a(lp893
I2
aI8
aa(lp894
I2
aI15
aa(lp895
I6
aI8
aa(lp896
I6
aI15
aa(lp897
I10
aI8
aa(lp898
I10
aI15
aa(lp899
I14
aI8
aa(lp900
I14
aI15
aaI28
aa(lp901
I1
a(lp902
I2
aI9
aa(lp903
I2
aI16
aa(lp904
I6
aI9
aa(lp905
I6
aI16
aa(lp906
I10
aI9
aa(lp907
I10
aI16
aa(lp908
I14
aI9
aa(lp909
I14
aI16
aaI28
aa(lp910
I1
a(lp911
I0
aI7
aa(lp912
I0
aI14
aa(lp913
I5
aI7
aa(lp914
I5
aI14
aa(lp915
I10
aI7
aa(lp916
I10
aI14
aa(lp917
I15
aI7
aa(lp918
I15
aI14
aaI35
aa(lp919
I1
a(lp920
I0
aI8
aa(lp921
I0
aI15
aa(lp922
I5
aI8
aa(lp923
I5
aI15
aa(lp924
I10
aI8
aa(lp925
I10
aI15
aa(lp926
I15
aI8
aa(lp927
I15
aI15
aaI35
aa(lp928
I1
a(lp929
I0
aI9
aa(lp930
I0
aI16
aa(lp931
I5
aI9
aa(lp932
I5
aI16
aa(lp933
I10
aI9
aa(lp934
I10
aI16
aa(lp935
I15
aI9
aa(lp936
I15
aI16
aaI35
aa(lp937
I1
a(lp938
I0
aI10
aa(lp939
I0
aI17
aa(lp940
I5
aI10
aa(lp941
I5
aI17
aa(lp942
I10
aI10
aa(lp943
I10
aI17
aa(lp944
I15
aI10
aa(lp945
I15
aI17
aaI35
aa(lp946
I1
a(lp947
I1
aI8
aa(lp948
I1
aI16
aa(lp949
I5
aI8
aa(lp950
I5
aI16
aa(lp951
I9
aI8
aa(lp952
I9
aI16
aa(lp953
I13
aI8
aa(lp954
I13
aI16
aaI32
aa(lp955
I1
a(lp956
I2
aI8
aa(lp957
I2
aI16
aa(lp958
I6
aI8
aa(lp959
I6
aI16
aa(lp960
I10
aI8
aa(lp961
I10
aI16
aa(lp962
I14
aI8
aa(lp963
I14
aI16
aaI32
aa(lp964
I1
a(lp965
I0
aI7
aa(lp966
I0
aI15
aa(lp967
I5
aI7
aa(lp968
I5
aI15
aa(lp969
I10
aI7
aa(lp970
I10
aI15
aa(lp971
I15
aI7
aa(lp972
I15
aI15
aaI40
aa(lp973
I1
a(lp974
I0
aI8
aa(lp975
I0
aI16
aa(lp976
I5
aI8
aa(lp977
I5
aI16
aa(lp978
I10
aI8
aa(lp979
I10
aI16
aa(lp980
I15
aI8
aa(lp981
I15
aI16
aaI40
aa(lp982
I1
a(lp983
I0
aI9
aa(lp984
I0
aI17
aa(lp985
I5
aI9
aa(lp986
I5
aI17
aa(lp987
I10
aI9
aa(lp988
I10
aI17
aa(lp989
I15
aI9
aa(lp990
I15
aI17
aaI40
aa(lp991
I1
a(lp992
I0
aI7
aa(lp993
I0
aI16
aa(lp994
I5
aI7
aa(lp995
I5
aI16
aa(lp996
I10
aI7
aa(lp997
I10
aI16
aa(lp998
I15
aI7
aa(lp999
I15
aI16
aaI45
aa(lp1000
I1
a(lp1001
I0
aI8
aa(lp1002
I0
aI17
aa(lp1003
I5
aI8
aa(lp1004
I5
aI17
aa(lp1005
I10
aI8
aa(lp1006
I10
aI17
aa(lp1007
I15
aI8
aa(lp1008
I15
aI17
aaI45
aa(lp1009
I1
a(lp1010
I0
aI9
aa(lp1011
I0
aI18
aa(lp1012
I5
aI9
aa(lp1013
I5
aI18
aa(lp1014
I10
aI9
aa(lp1015
I10
aI18
aa(lp1016
I15
aI9
aa(lp1017
I15
aI18
aaI45
aa(lp1018
I1
a(lp1019
I0
aI7
aa(lp1020
I0
aI17
aa(lp1021
I5
aI7
aa(lp1022
I5
aI17
aa(lp1023
I10
aI7
aa(lp1024
I10
aI17
aa(lp1025
I15
aI7
aa(lp1026
I15
aI17
aaI50
aa(lp1027
I1
a(lp1028
I0
aI8
aa(lp1029
I0
aI18
aa(lp1030
I5
aI8
aa(lp1031
I5
aI18
aa(lp1032
I10
aI8
aa(lp1033
I10
aI18
aa(lp1034
I15
aI8
aa(lp1035
I15
aI18
aaI50
aa(lp1036
I-1
a(lp1037
I8
aI8
aa(lp1038
I8
aI9
aa(lp1039
I11
aI8
aa(lp1040
I11
aI9
aa(lp1041
I14
aI8
aa(lp1042
I14
aI9
aa(lp1043
I17
aI8
aa(lp1044
I17
aI9
aaI3
aa(lp1045
I-1
a(lp1046
I9
aI4
aa(lp1047
I9
aI5
aa(lp1048
I12
aI4
aa(lp1049
I12
aI5
aa(lp1050
I15
aI4
aa(lp1051
I15
aI5
aa(lp1052
I18
aI4
aa(lp1053
I18
aI5
aaI3
aa(lp1054
I-1
a(lp1055
I6
aI7
aa(lp1056
I6
aI8
aa(lp1057
I10
aI7
aa(lp1058
I10
aI8
aa(lp1059
I14
aI7
aa(lp1060
I14
aI8
aa(lp1061
I18
aI7
aa(lp1062
I18
aI8
aaI4
aa(lp1063
I-1
a(lp1064
I6
aI8
aa(lp1065
I6
aI9
aa(lp1066
I10
aI8
aa(lp1067
I10
aI9
aa(lp1068
I14
aI8
aa(lp1069
I14
aI9
aa(lp1070
I18
aI8
aa(lp1071
I18
aI9
aaI4
aa(lp1072
I-1
a(lp1073
I6
aI9
aa(lp1074
I6
aI10
aa(lp1075
I10
aI9
aa(lp1076
I10
aI10
aa(lp1077
I14
aI9
aa(lp1078
I14
aI10
aa(lp1079
I18
aI9
aa(lp1080
I18
aI10
aaI4
aa(lp1081
I-1
a(lp1082
I6
aI10
aa(lp1083
I6
aI11
aa(lp1084
I10
aI10
aa(lp1085
I10
aI11
aa(lp1086
I14
aI10
aa(lp1087
I14
aI11
aa(lp1088
I18
aI10
aa(lp1089
I18
aI11
aaI4
aa(lp1090
I-1
a(lp1091
I8
aI8
aa(lp1092
I8
aI10
aa(lp1093
I11
aI8
aa(lp1094
I11
aI10
aa(lp1095
I14
aI8
aa(lp1096
I14
aI10
aa(lp1097
I17
aI8
aa(lp1098
I17
aI10
aaI6
aa(lp1099
I-1
a(lp1100
I9
aI4
aa(lp1101
I9
aI6
aa(lp1102
I12
aI4
aa(lp1103
I12
aI6
aa(lp1104
I15
aI4
aa(lp1105
I15
aI6
aa(lp1106
I18
aI4
aa(lp1107
I18
aI6
aaI6
aa(lp1108
I-1
a(lp1109
I6
aI7
aa(lp1110
I6
aI9
aa(lp1111
I10
aI7
aa(lp1112
I10
aI9
aa(lp1113
I14
aI7
aa(lp1114
I14
aI9
aa(lp1115
I18
aI7
aa(lp1116
I18
aI9
aaI8
aa(lp1117
I-1
a(lp1118
I6
aI8
aa(lp1119
I6
aI10
aa(lp1120
I10
aI8
aa(lp1121
I10
aI10
aa(lp1122
I14
aI8
aa(lp1123
I14
aI10
aa(lp1124
I18
aI8
aa(lp1125
I18
aI10
aaI8
aa(lp1126
I-1
a(lp1127
I6
aI9
aa(lp1128
I6
aI11
aa(lp1129
I10
aI9
aa(lp1130
I10
aI11
aa(lp1131
I14
aI9
aa(lp1132
I14
aI11
aa(lp1133
I18
aI9
aa(lp1134
I18
aI11
aaI8
aa(lp1135
I-1
a(lp1136
I9
aI3
aa(lp1137
I9
aI6
aa(lp1138
I12
aI3
aa(lp1139
I12
aI6
aa(lp1140
I15
aI3
aa(lp1141
I15
aI6
aa(lp1142
I18
aI3
aa(lp1143
I18
aI6
aaI9
aa(lp1144
I-1
a(lp1145
I6
aI6
aa(lp1146
I6
aI9
aa(lp1147
I10
aI6
aa(lp1148
I10
aI9
aa(lp1149
I14
aI6
aa(lp1150
I14
aI9
aa(lp1151
I18
aI6
aa(lp1152
I18
aI9
aaI12
aa(lp1153
I-1
a(lp1154
I6
aI7
aa(lp1155
I6
aI10
aa(lp1156
I10
aI7
aa(lp1157
I10
aI10
aa(lp1158
I14
aI7
aa(lp1159
I14
aI10
aa(lp1160
I18
aI7
aa(lp1161
I18
aI10
aaI12
aa(lp1162
I-1
a(lp1163
I6
aI8
aa(lp1164
I6
aI11
aa(lp1165
I10
aI8
aa(lp1166
I10
aI11
aa(lp1167
I14
aI8
aa(lp1168
I14
aI11
aa(lp1169
I18
aI8
aa(lp1170
I18
aI11
aaI12
aa(lp1171
I-1
a(lp1172
I6
aI9
aa(lp1173
I6
aI12
aa(lp1174
I10
aI9
aa(lp1175
I10
aI12
aa(lp1176
I14
aI9
aa(lp1177
I14
aI12
aa(lp1178
I18
aI9
aa(lp1179
I18
aI12
aaI12
aa(lp1180
I-1
a(lp1181
I6
aI5
aa(lp1182
I6
aI9
aa(lp1183
I10
aI5
aa(lp1184
I10
aI9
aa(lp1185
I14
aI5
aa(lp1186
I14
aI9
aa(lp1187
I18
aI5
aa(lp1188
I18
aI9
aaI16
aa(lp1189
I-1
a(lp1190
I6
aI6
aa(lp1191
I6
aI10
aa(lp1192
I10
aI6
aa(lp1193
I10
aI10
aa(lp1194
I14
aI6
aa(lp1195
I14
aI10
aa(lp1196
I18
aI6
aa(lp1197
I18
aI10
aaI16
aa(lp1198
I-1
a(lp1199
I6
aI7
aa(lp1200
I6
aI11
aa(lp1201
I10
aI7
aa(lp1202
I10
aI11
aa(lp1203
I14
aI7
aa(lp1204
I14
aI11
aa(lp1205
I18
aI7
aa(lp1206
I18
aI11
aaI16
aa(lp1207
I-1
a(lp1208
I6
aI8
aa(lp1209
I6
aI12
aa(lp1210
I10
aI8
aa(lp1211
I10
aI12
aa(lp1212
I14
aI8
aa(lp1213
I14
aI12
aa(lp1214
I18
aI8
aa(lp1215
I18
aI12
aaI16
aa(lp1216
I-1
a(lp1217
I6
aI5
aa(lp1218
I6
aI10
aa(lp1219
I10
aI5
aa(lp1220
I10
aI10
aa(lp1221
I14
aI5
aa(lp1222
I14
aI10
aa(lp1223
I18
aI5
aa(lp1224
I18
aI10
aaI20
aa(lp1225
I-1
a(lp1226
I6
aI6
aa(lp1227
I6
aI11
aa(lp1228
I10
aI6
aa(lp1229
I10
aI11
aa(lp1230
I14
aI6
aa(lp1231
I14
aI11
aa(lp1232
I18
aI6
aa(lp1233
I18
aI11
aaI20
aa(lp1234
I-1
a(lp1235
I6
aI7
aa(lp1236
I6
aI12
aa(lp1237
I10
aI7
aa(lp1238
I10
aI12
aa(lp1239
I14
aI7
aa(lp1240
I14
aI12
aa(lp1241
I18
aI7
aa(lp1242
I18
aI12
aaI20
aa(lp1243
I-1
a(lp1244
I6
aI8
aa(lp1245
I6
aI13
aa(lp1246
I10
aI8
aa(lp1247
I10
aI13
aa(lp1248
I14
aI8
aa(lp1249
I14
aI13
aa(lp1250
I18
aI8
aa(lp1251
I18
aI13
aaI20
aa(lp1252
I-1
a(lp1253
I6
aI4
aa(lp1254
I6
aI10
aa(lp1255
I10
aI4
aa(lp1256
I10
aI10
aa(lp1257
I14
aI4
aa(lp1258
I14
aI10
aa(lp1259
I18
aI4
aa(lp1260
I18
aI10
aaI24
aa(lp1261
I-1
a(lp1262
I6
aI5
aa(lp1263
I6
aI11
aa(lp1264
I10
aI5
aa(lp1265
I10
aI11
aa(lp1266
I14
aI5
aa(lp1267
I14
aI11
aa(lp1268
I18
aI5
aa(lp1269
I18
aI11
aaI24
aa(lp1270
I-1
a(lp1271
I6
aI6
aa(lp1272
I6
aI12
aa(lp1273
I10
aI6
aa(lp1274
I10
aI12
aa(lp1275
I14
aI6
aa(lp1276
I14
aI12
aa(lp1277
I18
aI6
aa(lp1278
I18
aI12
aaI24
aa(lp1279
I-1
a(lp1280
I6
aI7
aa(lp1281
I6
aI13
aa(lp1282
I10
aI7
aa(lp1283
I10
aI13
aa(lp1284
I14
aI7
aa(lp1285
I14
aI13
aa(lp1286
I18
aI7
aa(lp1287
I18
aI13
aaI24
aa(lp1288
I-1
a(lp1289
I6
aI8
aa(lp1290
I6
aI14
aa(lp1291
I10
aI8
aa(lp1292
I10
aI14
aa(lp1293
I14
aI8
aa(lp1294
I14
aI14
aa(lp1295
I18
aI8
aa(lp1296
I18
aI14
aaI24
aa(lp1297
I-1
a(lp1298
I6
aI3
aa(lp1299
I6
aI10
aa(lp1300
I10
aI3
aa(lp1301
I10
aI10
aa(lp1302
I14
aI3
aa(lp1303
I14
aI10
aa(lp1304
I18
aI3
aa(lp1305
I18
aI10
aaI28
aa(lp1306
I-1
a(lp1307
I6
aI4
aa(lp1308
I6
aI11
aa(lp1309
I10
aI4
aa(lp1310
I10
aI11
aa(lp1311
I14
aI4
aa(lp1312
I14
aI11
aa(lp1313
I18
aI4
aa(lp1314
I18
aI11
aaI28
aa(lp1315
I-1
a(lp1316
I6
aI5
aa(lp1317
I6
aI12
aa(lp1318
I10
aI5
aa(lp1319
I10
aI12
aa(lp1320
I14
aI5
aa(lp1321
I14
aI12
aa(lp1322
I18
aI5
aa(lp1323
I18
aI12
aaI28
aa(lp1324
I-1
a(lp1325
I6
aI6
aa(lp1326
I6
aI13
aa(lp1327
I10
aI6
aa(lp1328
I10
aI13
aa(lp1329
I14
aI6
aa(lp1330
I14
aI13
aa(lp1331
I18
aI6
aa(lp1332
I18
aI13
aaI28
aa(lp1333
I-1
a(lp1334
I6
aI7
aa(lp1335
I6
aI14
aa(lp1336
I10
aI7
aa(lp1337
I10
aI14
aa(lp1338
I14
aI7
aa(lp1339
I14
aI14
aa(lp1340
I18
aI7
aa(lp1341
I18
aI14
aaI28
aa(lp1342
I-1
a(lp1343
I6
aI3
aa(lp1344
I6
aI11
aa(lp1345
I10
aI3
aa(lp1346
I10
aI11
aa(lp1347
I14
aI3
aa(lp1348
I14
aI11
aa(lp1349
I18
aI3
aa(lp1350
I18
aI11
aaI32
aa(lp1351
I-1
a(lp1352
I6
aI4
aa(lp1353
I6
aI12
aa(lp1354
I10
aI4
aa(lp1355
I10
aI12
aa(lp1356
I14
aI4
aa(lp1357
I14
aI12
aa(lp1358
I18
aI4
aa(lp1359
I18
aI12
aaI32
aa.