(lp0
(lp1
I-1
a(lp2
I6
aI8
aa(lp3
I6
aI9
aa(lp4
I10
aI8
aa(lp5
I10
aI9
aa(lp6
I14
aI8
aa(lp7
I14
aI9
aa(lp8
I18
aI8
aa(lp9
I18
aI9
aaI4
aa(lp10
I-1
a(lp11
I6
aI9
aa(lp12
I6
aI10
aa(lp13
I10
aI9
aa(lp14
I10
aI10
aa(lp15
I14
aI9
aa(lp16
I14
aI10
aa(lp17
I18
aI9
aa(lp18
I18
aI10
aaI4
aa(lp19
I-1
a(lp20
I6
aI8
aa(lp21
I6
aI10
aa(lp22
I10
aI8
aa(lp23
I10
aI10
aa(lp24
I14
aI8
aa(lp25
I14
aI10
aa(lp26
I18
aI8
aa(lp27
I18
aI10
aaI8
aa.