(lp0
(lp1
I1
a(lp2
I3
aI3
aa(lp3
I3
aI4
aa(lp4
I6
aI3
aa(lp5
I6
aI4
aa(lp6
I9
aI3
aa(lp7
I9
aI4
aa(lp8
I12
aI3
aa(lp9
I12
aI4
aaI3
aa(lp10
I1
a(lp11
I3
aI4
aa(lp12
I3
aI5
aa(lp13
I6
aI4
aa(lp14
I6
aI5
aa(lp15
I9
aI4
aa(lp16
I9
aI5
aa(lp17
I12
aI4
aa(lp18
I12
aI5
aaI3
aa(lp19
I1
a(lp20
I3
aI8
aa(lp21
I3
aI9
aa(lp22
I6
aI8
aa(lp23
I6
aI9
aa(lp24
I9
aI8
aa(lp25
I9
aI9
aa(lp26
I12
aI8
aa(lp27
I12
aI9
aaI3
aa(lp28
I1
a(lp29
I3
aI9
aa(lp30
I3
aI10
aa(lp31
I6
aI9
aa(lp32
I6
aI10
aa(lp33
I9
aI9
aa(lp34
I9
aI10
aa(lp35
I12
aI9
aa(lp36
I12
aI10
aaI3
aa(lp37
I1
a(lp38
I3
aI10
aa(lp39
I3
aI11
aa(lp40
I6
aI10
aa(lp41
I6
aI11
aa(lp42
I9
aI10
aa(lp43
I9
aI11
aa(lp44
I12
aI10
aa(lp45
I12
aI11
aaI3
aa(lp46
I1
a(lp47
I3
aI13
aa(lp48
I3
aI14
aa(lp49
I6
aI13
aa(lp50
I6
aI14
aa(lp51
I9
aI13
aa(lp52
I9
aI14
aa(lp53
I12
aI13
aa(lp54
I12
aI14
aaI3
aa(lp55
I1
a(lp56
I4
aI2
aa(lp57
I4
aI3
aa(lp58
I7
aI2
aa(lp59
I7
aI3
aa(lp60
I10
aI2
aa(lp61
I10
aI3
aa(lp62
I13
aI2
aa(lp63
I13
aI3
aaI3
aa(lp64
I1
a(lp65
I4
aI3
aa(lp66
I4
aI4
aa(lp67
I7
aI3
aa(lp68
I7
aI4
aa(lp69
I10
aI3
aa(lp70
I10
aI4
aa(lp71
I13
aI3
aa(lp72
I13
aI4
aaI3
aa(lp73
I1
a(lp74
I4
aI8
aa(lp75
I4
aI9
aa(lp76
I7
aI8
aa(lp77
I7
aI9
aa(lp78
I10
aI8
aa(lp79
I10
aI9
aa(lp80
I13
aI8
aa(lp81
I13
aI9
aaI3
aa(lp82
I1
a(lp83
I4
aI9
aa(lp84
I4
aI10
aa(lp85
I7
aI9
aa(lp86
I7
aI10
aa(lp87
I10
aI9
aa(lp88
I10
aI10
aa(lp89
I13
aI9
aa(lp90
I13
aI10
aaI3
aa(lp91
I1
a(lp92
I4
aI14
aa(lp93
I4
aI15
aa(lp94
I7
aI14
aa(lp95
I7
aI15
aa(lp96
I10
aI14
aa(lp97
I10
aI15
aa(lp98
I13
aI14
aa(lp99
I13
aI15
aaI3
aa(lp100
I1
a(lp101
I1
aI4
aa(lp102
I1
aI5
aa(lp103
I5
aI4
aa(lp104
I5
aI5
aa(lp105
I9
aI4
aa(lp106
I9
aI5
aa(lp107
I13
aI4
aa(lp108
I13
aI5
aaI4
aa(lp109
I1
a(lp110
I1
aI8
aa(lp111
I1
aI9
aa(lp112
I5
aI8
aa(lp113
I5
aI9
aa(lp114
I9
aI8
aa(lp115
I9
aI9
aa(lp116
I13
aI8
aa(lp117
I13
aI9
aaI4
aa(lp118
I1
a(lp119
I1
aI9
aa(lp120
I1
aI10
aa(lp121
I5
aI9
aa(lp122
I5
aI10
aa(lp123
I9
aI9
aa(lp124
I9
aI10
aa(lp125
I13
aI9
aa(lp126
I13
aI10
aaI4
aa(lp127
I1
a(lp128
I1
aI10
aa(lp129
I1
aI11
aa(lp130
I5
aI10
aa(lp131
I5
aI11
aa(lp132
I9
aI10
aa(lp133
I9
aI11
aa(lp134
I13
aI10
aa(lp135
I13
aI11
aaI4
aa(lp136
I1
a(lp137
I1
aI11
aa(lp138
I1
aI12
aa(lp139
I5
aI11
aa(lp140
I5
aI12
aa(lp141
I9
aI11
aa(lp142
I9
aI12
aa(lp143
I13
aI11
aa(lp144
I13
aI12
aaI4
aa(lp145
I1
a(lp146
I1
aI12
aa(lp147
I1
aI13
aa(lp148
I5
aI12
aa(lp149
I5
aI13
aa(lp150
I9
aI12
aa(lp151
I9
aI13
aa(lp152
I13
aI12
aa(lp153
I13
aI13
aaI4
aa(lp154
I1
a(lp155
I1
aI13
aa(lp156
I1
aI14
aa(lp157
I5
aI13
aa(lp158
I5
aI14
aa(lp159
I9
aI13
aa(lp160
I9
aI14
aa(lp161
I13
aI13
aa(lp162
I13
aI14
aaI4
aa(lp163
I1
a(lp164
I1
aI14
aa(lp165
I1
aI15
aa(lp166
I5
aI14
aa(lp167
I5
aI15
aa(lp168
I9
aI14
aa(lp169
I9
aI15
aa(lp170
I13
aI14
aa(lp171
I13
aI15
aaI4
aa(lp172
I1
a(lp173
I1
aI17
aa(lp174
I1
aI18
aa(lp175
I5
aI17
aa(lp176
I5
aI18
aa(lp177
I9
aI17
aa(lp178
I9
aI18
aa(lp179
I13
aI17
aa(lp180
I13
aI18
aaI4
aa(lp181
I1
a(lp182
I2
aI2
aa(lp183
I2
aI3
aa(lp184
I6
aI2
aa(lp185
I6
aI3
aa(lp186
I10
aI2
aa(lp187
I10
aI3
aa(lp188
I14
aI2
aa(lp189
I14
aI3
aaI4
aa(lp190
I1
a(lp191
I2
aI3
aa(lp192
I2
aI4
aa(lp193
I6
aI3
aa(lp194
I6
aI4
aa(lp195
I10
aI3
aa(lp196
I10
aI4
aa(lp197
I14
aI3
aa(lp198
I14
aI4
aaI4
aa(lp199
I1
a(lp200
I2
aI4
aa(lp201
I2
aI5
aa(lp202
I6
aI4
aa(lp203
I6
aI5
aa(lp204
I10
aI4
aa(lp205
I10
aI5
aa(lp206
I14
aI4
aa(lp207
I14
aI5
aaI4
aa(lp208
I1
a(lp209
I2
aI8
aa(lp210
I2
aI9
aa(lp211
I6
aI8
aa(lp212
I6
aI9
aa(lp213
I10
aI8
aa(lp214
I10
aI9
aa(lp215
I14
aI8
aa(lp216
I14
aI9
aaI4
aa(lp217
I1
a(lp218
I2
aI9
aa(lp219
I2
aI10
aa(lp220
I6
aI9
aa(lp221
I6
aI10
aa(lp222
I10
aI9
aa(lp223
I10
aI10
aa(lp224
I14
aI9
aa(lp225
I14
aI10
aaI4
aa(lp226
I1
a(lp227
I2
aI10
aa(lp228
I2
aI11
aa(lp229
I6
aI10
aa(lp230
I6
aI11
aa(lp231
I10
aI10
aa(lp232
I10
aI11
aa(lp233
I14
aI10
aa(lp234
I14
aI11
aaI4
aa(lp235
I1
a(lp236
I2
aI11
aa(lp237
I2
aI12
aa(lp238
I6
aI11
aa(lp239
I6
aI12
aa(lp240
I10
aI11
aa(lp241
I10
aI12
aa(lp242
I14
aI11
aa(lp243
I14
aI12
aaI4
aa(lp244
I1
a(lp245
I2
aI12
aa(lp246
I2
aI13
aa(lp247
I6
aI12
aa(lp248
I6
aI13
aa(lp249
I10
aI12
aa(lp250
I10
aI13
aa(lp251
I14
aI12
aa(lp252
I14
aI13
aaI4
aa(lp253
I1
a(lp254
I2
aI13
aa(lp255
I2
aI14
aa(lp256
I6
aI13
aa(lp257
I6
aI14
aa(lp258
I10
aI13
aa(lp259
I10
aI14
aa(lp260
I14
aI13
aa(lp261
I14
aI14
aaI4
aa(lp262
I1
a(lp263
I2
aI14
aa(lp264
I2
aI15
aa(lp265
I6
aI14
aa(lp266
I6
aI15
aa(lp267
I10
aI14
aa(lp268
I10
aI15
aa(lp269
I14
aI14
aa(lp270
I14
aI15
aaI4
aa(lp271
I1
a(lp272
I2
aI15
aa(lp273
I2
aI16
aa(lp274
I6
aI15
aa(lp275
I6
aI16
aa(lp276
I10
aI15
aa(lp277
I10
aI16
aa(lp278
I14
aI15
aa(lp279
I14
aI16
aaI4
aa(lp280
I1
a(lp281
I2
aI16
aa(lp282
I2
aI17
aa(lp283
I6
aI16
aa(lp284
I6
aI17
aa(lp285
I10
aI16
aa(lp286
I10
aI17
aa(lp287
I14
aI16
aa(lp288
I14
aI17
aaI4
aa(lp289
I1
a(lp290
I2
aI17
aa(lp291
I2
aI18
aa(lp292
I6
aI17
aa(lp293
I6
aI18
aa(lp294
I10
aI17
aa(lp295
I10
aI18
aa(lp296
I14
aI17
aa(lp297
I14
aI18
aaI4
aa(lp298
I1
a(lp299
I3
aI2
aa(lp300
I3
aI3
aa(lp301
I7
aI2
aa(lp302
I7
aI3
aa(lp303
I11
aI2
aa(lp304
I11
aI3
aa(lp305
I15
aI2
aa(lp306
I15
aI3
aaI4
aa(lp307
I1
a(lp308
I3
aI3
aa(lp309
I3
aI4
aa(lp310
I7
aI3
aa(lp311
I7
aI4
aa(lp312
I11
aI3
aa(lp313
I11
aI4
aa(lp314
I15
aI3
aa(lp315
I15
aI4
aaI4
aa(lp316
I1
a(lp317
I3
aI4
aa(lp318
I3
aI5
aa(lp319
I7
aI4
aa(lp320
I7
aI5
aa(lp321
I11
aI4
aa(lp322
I11
aI5
aa(lp323
I15
aI4
aa(lp324
I15
aI5
aaI4
aa(lp325
I1
a(lp326
I3
aI13
aa(lp327
I3
aI14
aa(lp328
I7
aI13
aa(lp329
I7
aI14
aa(lp330
I11
aI13
aa(lp331
I11
aI14
aa(lp332
I15
aI13
aa(lp333
I15
aI14
aaI4
aa(lp334
I1
a(lp335
I-1
aI8
aa(lp336
I-1
aI9
aa(lp337
I4
aI8
aa(lp338
I4
aI9
aa(lp339
I9
aI8
aa(lp340
I9
aI9
aa(lp341
I14
aI8
aa(lp342
I14
aI9
aaI5
aa(lp343
I1
a(lp344
I-1
aI9
aa(lp345
I-1
aI10
aa(lp346
I4
aI9
aa(lp347
I4
aI10
aa(lp348
I9
aI9
aa(lp349
I9
aI10
aa(lp350
I14
aI9
aa(lp351
I14
aI10
aaI5
aa(lp352
I1
a(lp353
I-1
aI17
aa(lp354
I-1
aI18
aa(lp355
I4
aI17
aa(lp356
I4
aI18
aa(lp357
I9
aI17
aa(lp358
I9
aI18
aa(lp359
I14
aI17
aa(lp360
I14
aI18
aaI5
aa(lp361
I1
a(lp362
I0
aI3
aa(lp363
I0
aI4
aa(lp364
I5
aI3
aa(lp365
I5
aI4
aa(lp366
I10
aI3
aa(lp367
I10
aI4
aa(lp368
I15
aI3
aa(lp369
I15
aI4
aaI5
aa(lp370
I1
a(lp371
I0
aI4
aa(lp372
I0
aI5
aa(lp373
I5
aI4
aa(lp374
I5
aI5
aa(lp375
I10
aI4
aa(lp376
I10
aI5
aa(lp377
I15
aI4
aa(lp378
I15
aI5
aaI5
aa(lp379
I1
a(lp380
I0
aI8
aa(lp381
I0
aI9
aa(lp382
I5
aI8
aa(lp383
I5
aI9
aa(lp384
I10
aI8
aa(lp385
I10
aI9
aa(lp386
I15
aI8
aa(lp387
I15
aI9
aaI5
aa(lp388
I1
a(lp389
I0
aI9
aa(lp390
I0
aI10
aa(lp391
I5
aI9
aa(lp392
I5
aI10
aa(lp393
I10
aI9
aa(lp394
I10
aI10
aa(lp395
I15
aI9
aa(lp396
I15
aI10
aaI5
aa(lp397
I1
a(lp398
I0
aI10
aa(lp399
I0
aI11
aa(lp400
I5
aI10
aa(lp401
I5
aI11
aa(lp402
I10
aI10
aa(lp403
I10
aI11
aa(lp404
I15
aI10
aa(lp405
I15
aI11
aaI5
aa(lp406
I1
a(lp407
I0
aI11
aa(lp408
I0
aI12
aa(lp409
I5
aI11
aa(lp410
I5
aI12
aa(lp411
I10
aI11
aa(lp412
I10
aI12
aa(lp413
I15
aI11
aa(lp414
I15
aI12
aaI5
aa(lp415
I1
a(lp416
I0
aI12
aa(lp417
I0
aI13
aa(lp418
I5
aI12
aa(lp419
I5
aI13
aa(lp420
I10
aI12
aa(lp421
I10
aI13
aa(lp422
I15
aI12
aa(lp423
I15
aI13
aaI5
aa(lp424
I1
a(lp425
I0
aI13
aa(lp426
I0
aI14
aa(lp427
I5
aI13
aa(lp428
I5
aI14
aa(lp429
I10
aI13
aa(lp430
I10
aI14
aa(lp431
I15
aI13
aa(lp432
I15
aI14
aaI5
aa(lp433
I1
a(lp434
I0
aI14
aa(lp435
I0
aI15
aa(lp436
I5
aI14
aa(lp437
I5
aI15
aa(lp438
I10
aI14
aa(lp439
I10
aI15
aa(lp440
I15
aI14
aa(lp441
I15
aI15
aaI5
aa(lp442
I1
a(lp443
I0
aI15
aa(lp444
I0
aI16
aa(lp445
I5
aI15
aa(lp446
I5
aI16
aa(lp447
I10
aI15
aa(lp448
I10
aI16
aa(lp449
I15
aI15
aa(lp450
I15
aI16
aaI5
aa(lp451
I1
a(lp452
I0
aI16
aa(lp453
I0
aI17
aa(lp454
I5
aI16
aa(lp455
I5
aI17
aa(lp456
I10
aI16
aa(lp457
I10
aI17
aa(lp458
I15
aI16
aa(lp459
I15
aI17
aaI5
aa(lp460
I1
a(lp461
I0
aI17
aa(lp462
I0
aI18
aa(lp463
I5
aI17
aa(lp464
I5
aI18
aa(lp465
I10
aI17
aa(lp466
I10
aI18
aa(lp467
I15
aI17
aa(lp468
I15
aI18
aaI5
aa(lp469
I1
a(lp470
I1
aI3
aa(lp471
I1
aI4
aa(lp472
I6
aI3
aa(lp473
I6
aI4
aa(lp474
I11
aI3
aa(lp475
I11
aI4
aa(lp476
I16
aI3
aa(lp477
I16
aI4
aaI5
aa(lp478
I1
a(lp479
I1
aI12
aa(lp480
I1
aI13
aa(lp481
I6
aI12
aa(lp482
I6
aI13
aa(lp483
I11
aI12
aa(lp484
I11
aI13
aa(lp485
I16
aI12
aa(lp486
I16
aI13
aaI5
aa(lp487
I1
a(lp488
I1
aI13
aa(lp489
I1
aI14
aa(lp490
I6
aI13
aa(lp491
I6
aI14
aa(lp492
I11
aI13
aa(lp493
I11
aI14
aa(lp494
I16
aI13
aa(lp495
I16
aI14
aaI5
aa(lp496
I1
a(lp497
I1
aI14
aa(lp498
I1
aI15
aa(lp499
I6
aI14
aa(lp500
I6
aI15
aa(lp501
I11
aI14
aa(lp502
I11
aI15
aa(lp503
I16
aI14
aa(lp504
I16
aI15
aaI5
aa(lp505
I1
a(lp506
I-1
aI13
aa(lp507
I-1
aI14
aa(lp508
I5
aI13
aa(lp509
I5
aI14
aa(lp510
I11
aI13
aa(lp511
I11
aI14
aa(lp512
I17
aI13
aa(lp513
I17
aI14
aaI6
aa(lp514
I1
a(lp515
I-1
aI14
aa(lp516
I-1
aI15
aa(lp517
I5
aI14
aa(lp518
I5
aI15
aa(lp519
I11
aI14
aa(lp520
I11
aI15
aa(lp521
I17
aI14
aa(lp522
I17
aI15
aaI6
aa(lp523
I1
a(lp524
I-1
aI15
aa(lp525
I-1
aI16
aa(lp526
I5
aI15
aa(lp527
I5
aI16
aa(lp528
I11
aI15
aa(lp529
I11
aI16
aa(lp530
I17
aI15
aa(lp531
I17
aI16
aaI6
aa(lp532
I1
a(lp533
I-1
aI16
aa(lp534
I-1
aI17
aa(lp535
I5
aI16
aa(lp536
I5
aI17
aa(lp537
I11
aI16
aa(lp538
I11
aI17
aa(lp539
I17
aI16
aa(lp540
I17
aI17
aaI6
aa(lp541
I1
a(lp542
I-1
aI17
aa(lp543
I-1
aI18
aa(lp544
I5
aI17
aa(lp545
I5
aI18
aa(lp546
I11
aI17
aa(lp547
I11
aI18
aa(lp548
I17
aI17
aa(lp549
I17
aI18
aaI6
aa(lp550
I1
a(lp551
I0
aI13
aa(lp552
I0
aI14
aa(lp553
I6
aI13
aa(lp554
I6
aI14
aa(lp555
I12
aI13
aa(lp556
I12
aI14
aa(lp557
I18
aI13
aa(lp558
I18
aI14
aaI6
aa(lp559
I1
a(lp560
I3
aI3
aa(lp561
I3
aI5
aa(lp562
I6
aI3
aa(lp563
I6
aI5
aa(lp564
I9
aI3
aa(lp565
I9
aI5
aa(lp566
I12
aI3
aa(lp567
I12
aI5
aaI6
aa(lp568
I1
a(lp569
I3
aI8
aa(lp570
I3
aI10
aa(lp571
I6
aI8
aa(lp572
I6
aI10
aa(lp573
I9
aI8
aa(lp574
I9
aI10
aa(lp575
I12
aI8
aa(lp576
I12
aI10
aaI6
aa(lp577
I1
a(lp578
I3
aI9
aa(lp579
I3
aI11
aa(lp580
I6
aI9
aa(lp581
I6
aI11
aa(lp582
I9
aI9
aa(lp583
I9
aI11
aa(lp584
I12
aI9
aa(lp585
I12
aI11
aaI6
aa(lp586
I1
a(lp587
I3
aI10
aa(lp588
I3
aI12
aa(lp589
I6
aI10
aa(lp590
I6
aI12
aa(lp591
I9
aI10
aa(lp592
I9
aI12
aa(lp593
I12
aI10
aa(lp594
I12
aI12
aaI6
aa(lp595
I1
a(lp596
I3
aI12
aa(lp597
I3
aI14
aa(lp598
I6
aI12
aa(lp599
I6
aI14
aa(lp600
I9
aI12
aa(lp601
I9
aI14
aa(lp602
I12
aI12
aa(lp603
I12
aI14
aaI6
aa(lp604
I1
a(lp605
I4
aI2
aa(lp606
I4
aI4
aa(lp607
I7
aI2
aa(lp608
I7
aI4
aa(lp609
I10
aI2
aa(lp610
I10
aI4
aa(lp611
I13
aI2
aa(lp612
I13
aI4
aaI6
aa(lp613
I1
a(lp614
I4
aI3
aa(lp615
I4
aI5
aa(lp616
I7
aI3
aa(lp617
I7
aI5
aa(lp618
I10
aI3
aa(lp619
I10
aI5
aa(lp620
I13
aI3
aa(lp621
I13
aI5
aaI6
aa(lp622
I1
a(lp623
I1
aI8
aa(lp624
I1
aI10
aa(lp625
I5
aI8
aa(lp626
I5
aI10
aa(lp627
I9
aI8
aa(lp628
I9
aI10
aa(lp629
I13
aI8
aa(lp630
I13
aI10
aaI8
aa(lp631
I1
a(lp632
I1
aI9
aa(lp633
I1
aI11
aa(lp634
I5
aI9
aa(lp635
I5
aI11
aa(lp636
I9
aI9
aa(lp637
I9
aI11
aa(lp638
I13
aI9
aa(lp639
I13
aI11
aaI8
aa(lp640
I1
a(lp641
I1
aI10
aa(lp642
I1
aI12
aa(lp643
I5
aI10
aa(lp644
I5
aI12
aa(lp645
I9
aI10
aa(lp646
I9
aI12
aa(lp647
I13
aI10
aa(lp648
I13
aI12
aaI8
aa(lp649
I1
a(lp650
I1
aI11
aa(lp651
I1
aI13
aa(lp652
I5
aI11
aa(lp653
I5
aI13
aa(lp654
I9
aI11
aa(lp655
I9
aI13
aa(lp656
I13
aI11
aa(lp657
I13
aI13
aaI8
aa(lp658
I1
a(lp659
I1
aI12
aa(lp660
I1
aI14
aa(lp661
I5
aI12
aa(lp662
I5
aI14
aa(lp663
I9
aI12
aa(lp664
I9
aI14
aa(lp665
I13
aI12
aa(lp666
I13
aI14
aaI8
aa(lp667
I1
a(lp668
I1
aI13
aa(lp669
I1
aI15
aa(lp670
I5
aI13
aa(lp671
I5
aI15
aa(lp672
I9
aI13
aa(lp673
I9
aI15
aa(lp674
I13
aI13
aa(lp675
I13
aI15
aaI8
aa(lp676
I1
a(lp677
I1
aI16
aa(lp678
I1
aI18
aa(lp679
I5
aI16
aa(lp680
I5
aI18
aa(lp681
I9
aI16
aa(lp682
I9
aI18
aa(lp683
I13
aI16
aa(lp684
I13
aI18
aaI8
aa(lp685
I1
a(lp686
I2
aI2
aa(lp687
I2
aI4
aa(lp688
I6
aI2
aa(lp689
I6
aI4
aa(lp690
I10
aI2
aa(lp691
I10
aI4
aa(lp692
I14
aI2
aa(lp693
I14
aI4
aaI8
aa(lp694
I1
a(lp695
I2
aI3
aa(lp696
I2
aI5
aa(lp697
I6
aI3
aa(lp698
I6
aI5
aa(lp699
I10
aI3
aa(lp700
I10
aI5
aa(lp701
I14
aI3
aa(lp702
I14
aI5
aaI8
aa(lp703
I1
a(lp704
I2
aI4
aa(lp705
I2
aI6
aa(lp706
I6
aI4
aa(lp707
I6
aI6
aa(lp708
I10
aI4
aa(lp709
I10
aI6
aa(lp710
I14
aI4
aa(lp711
I14
aI6
aaI8
aa(lp712
I1
a(lp713
I2
aI8
aa(lp714
I2
aI10
aa(lp715
I6
aI8
aa(lp716
I6
aI10
aa(lp717
I10
aI8
aa(lp718
I10
aI10
aa(lp719
I14
aI8
aa(lp720
I14
aI10
aaI8
aa(lp721
I1
a(lp722
I2
aI9
aa(lp723
I2
aI11
aa(lp724
I6
aI9
aa(lp725
I6
aI11
aa(lp726
I10
aI9
aa(lp727
I10
aI11
aa(lp728
I14
aI9
aa(lp729
I14
aI11
aaI8
aa(lp730
I1
a(lp731
I2
aI10
aa(lp732
I2
aI12
aa(lp733
I6
aI10
aa(lp734
I6
aI12
aa(lp735
I10
aI10
aa(lp736
I10
aI12
aa(lp737
I14
aI10
aa(lp738
I14
aI12
aaI8
aa(lp739
I1
a(lp740
I2
aI11
aa(lp741
I2
aI13
aa(lp742
I6
aI11
aa(lp743
I6
aI13
aa(lp744
I10
aI11
aa(lp745
I10
aI13
aa(lp746
I14
aI11
aa(lp747
I14
aI13
aaI8
aa(lp748
I1
a(lp749
I2
aI12
aa(lp750
I2
aI14
aa(lp751
I6
aI12
aa(lp752
I6
aI14
aa(lp753
I10
aI12
aa(lp754
I10
aI14
aa(lp755
I14
aI12
aa(lp756
I14
aI14
aaI8
aa(lp757
I1
a(lp758
I2
aI13
aa(lp759
I2
aI15
aa(lp760
I6
aI13
aa(lp761
I6
aI15
aa(lp762
I10
aI13
aa(lp763
I10
aI15
aa(lp764
I14
aI13
aa(lp765
I14
aI15
aaI8
aa(lp766
I1
a(lp767
I2
aI14
aa(lp768
I2
aI16
aa(lp769
I6
aI14
aa(lp770
I6
aI16
aa(lp771
I10
aI14
aa(lp772
I10
aI16
aa(lp773
I14
aI14
aa(lp774
I14
aI16
aaI8
aa(lp775
I1
a(lp776
I2
aI15
aa(lp777
I2
aI17
aa(lp778
I6
aI15
aa(lp779
I6
aI17
aa(lp780
I10
aI15
aa(lp781
I10
aI17
aa(lp782
I14
aI15
aa(lp783
I14
aI17
aaI8
aa(lp784
I1
a(lp785
I3
aI2
aa(lp786
I3
aI4
aa(lp787
I7
aI2
aa(lp788
I7
aI4
aa(lp789
I11
aI2
aa(lp790
I11
aI4
aa(lp791
I15
aI2
aa(lp792
I15
aI4
aaI8
aa(lp793
I1
a(lp794
I3
aI3
aa(lp795
I3
aI5
aa(lp796
I7
aI3
aa(lp797
I7
aI5
aa(lp798
I11
aI3
aa(lp799
I11
aI5
aa(lp800
I15
aI3
aa(lp801
I15
aI5
aaI8
aa(lp802
I1
a(lp803
I3
aI12
aa(lp804
I3
aI14
aa(lp805
I7
aI12
aa(lp806
I7
aI14
aa(lp807
I11
aI12
aa(lp808
I11
aI14
aa(lp809
I15
aI12
aa(lp810
I15
aI14
aaI8
aa(lp811
I1
a(lp812
I3
aI13
aa(lp813
I3
aI15
aa(lp814
I7
aI13
aa(lp815
I7
aI15
aa(lp816
I11
aI13
aa(lp817
I11
aI15
aa(lp818
I15
aI13
aa(lp819
I15
aI15
aaI8
aa(lp820
I1
a(lp821
I-1
aI8
aa(lp822
I-1
aI10
aa(lp823
I4
aI8
aa(lp824
I4
aI10
aa(lp825
I9
aI8
aa(lp826
I9
aI10
aa(lp827
I14
aI8
aa(lp828
I14
aI10
aaI10
aa(lp829
I1
a(lp830
I-1
aI9
aa(lp831
I-1
aI11
aa(lp832
I4
aI9
aa(lp833
I4
aI11
aa(lp834
I9
aI9
aa(lp835
I9
aI11
aa(lp836
I14
aI9
aa(lp837
I14
aI11
aaI10
aa(lp838
I1
a(lp839
I0
aI3
aa(lp840
I0
aI5
aa(lp841
I5
aI3
aa(lp842
I5
aI5
aa(lp843
I10
aI3
aa(lp844
I10
aI5
aa(lp845
I15
aI3
aa(lp846
I15
aI5
aaI10
aa(lp847
I1
a(lp848
I0
aI4
aa(lp849
I0
aI6
aa(lp850
I5
aI4
aa(lp851
I5
aI6
aa(lp852
I10
aI4
aa(lp853
I10
aI6
aa(lp854
I15
aI4
aa(lp855
I15
aI6
aaI10
aa(lp856
I1
a(lp857
I0
aI8
aa(lp858
I0
aI10
aa(lp859
I5
aI8
aa(lp860
I5
aI10
aa(lp861
I10
aI8
aa(lp862
I10
aI10
aa(lp863
I15
aI8
aa(lp864
I15
aI10
aaI10
aa(lp865
I1
a(lp866
I0
aI9
aa(lp867
I0
aI11
aa(lp868
I5
aI9
aa(lp869
I5
aI11
aa(lp870
I10
aI9
aa(lp871
I10
aI11
aa(lp872
I15
aI9
aa(lp873
I15
aI11
aaI10
aa(lp874
I1
a(lp875
I0
aI10
aa(lp876
I0
aI12
aa(lp877
I5
aI10
aa(lp878
I5
aI12
aa(lp879
I10
aI10
aa(lp880
I10
aI12
aa(lp881
I15
aI10
aa(lp882
I15
aI12
aaI10
aa(lp883
I1
a(lp884
I0
aI11
aa(lp885
I0
aI13
aa(lp886
I5
aI11
aa(lp887
I5
aI13
aa(lp888
I10
aI11
aa(lp889
I10
aI13
aa(lp890
I15
aI11
aa(lp891
I15
aI13
aaI10
aa(lp892
I1
a(lp893
I0
aI12
aa(lp894
I0
aI14
aa(lp895
I5
aI12
aa(lp896
I5
aI14
aa(lp897
I10
aI12
aa(lp898
I10
aI14
aa(lp899
I15
aI12
aa(lp900
I15
aI14
aaI10
aa(lp901
I1
a(lp902
I0
aI13
aa(lp903
I0
aI15
aa(lp904
I5
aI13
aa(lp905
I5
aI15
aa(lp906
I10
aI13
aa(lp907
I10
aI15
aa(lp908
I15
aI13
aa(lp909
I15
aI15
aaI10
aa(lp910
I1
a(lp911
I0
aI14
aa(lp912
I0
aI16
aa(lp913
I5
aI14
aa(lp914
I5
aI16
aa(lp915
I10
aI14
aa(lp916
I10
aI16
aa(lp917
I15
aI14
aa(lp918
I15
aI16
aaI10
aa(lp919
I1
a(lp920
I0
aI15
aa(lp921
I0
aI17
aa(lp922
I5
aI15
aa(lp923
I5
aI17
aa(lp924
I10
aI15
aa(lp925
I10
aI17
aa(lp926
I15
aI15
aa(lp927
I15
aI17
aaI10
aa(lp928
I1
a(lp929
I0
aI16
aa(lp930
I0
aI18
aa(lp931
I5
aI16
aa(lp932
I5
aI18
aa(lp933
I10
aI16
aa(lp934
I10
aI18
aa(lp935
I15
aI16
aa(lp936
I15
aI18
aaI10
aa(lp937
I1
a(lp938
I1
aI3
aa(lp939
I1
aI5
aa(lp940
I6
aI3
aa(lp941
I6
aI5
aa(lp942
I11
aI3
aa(lp943
I11
aI5
aa(lp944
I16
aI3
aa(lp945
I16
aI5
aaI10
aa(lp946
I1
a(lp947
I1
aI11
aa(lp948
I1
aI13
aa(lp949
I6
aI11
aa(lp950
I6
aI13
aa(lp951
I11
aI11
aa(lp952
I11
aI13
aa(lp953
I16
aI11
aa(lp954
I16
aI13
aaI10
aa(lp955
I1
a(lp956
I1
aI12
aa(lp957
I1
aI14
aa(lp958
I6
aI12
aa(lp959
I6
aI14
aa(lp960
I11
aI12
aa(lp961
I11
aI14
aa(lp962
I16
aI12
aa(lp963
I16
aI14
aaI10
aa(lp964
I1
a(lp965
I1
aI13
aa(lp966
I1
aI15
aa(lp967
I6
aI13
aa(lp968
I6
aI15
aa(lp969
I11
aI13
aa(lp970
I11
aI15
aa(lp971
I16
aI13
aa(lp972
I16
aI15
aaI10
aa(lp973
I1
a(lp974
I-1
aI12
aa(lp975
I-1
aI14
aa(lp976
I5
aI12
aa(lp977
I5
aI14
aa(lp978
I11
aI12
aa(lp979
I11
aI14
aa(lp980
I17
aI12
aa(lp981
I17
aI14
aaI12
aa(lp982
I1
a(lp983
I-1
aI13
aa(lp984
I-1
aI15
aa(lp985
I5
aI13
aa(lp986
I5
aI15
aa(lp987
I11
aI13
aa(lp988
I11
aI15
aa(lp989
I17
aI13
aa(lp990
I17
aI15
aaI12
aa(lp991
I1
a(lp992
I-1
aI14
aa(lp993
I-1
aI16
aa(lp994
I5
aI14
aa(lp995
I5
aI16
aa(lp996
I11
aI14
aa(lp997
I11
aI16
aa(lp998
I17
aI14
aa(lp999
I17
aI16
aaI12
aa(lp1000
I1
a(lp1001
I-1
aI15
aa(lp1002
I-1
aI17
aa(lp1003
I5
aI15
aa(lp1004
I5
aI17
aa(lp1005
I11
aI15
aa(lp1006
I11
aI17
aa(lp1007
I17
aI15
aa(lp1008
I17
aI17
aaI12
aa(lp1009
I1
a(lp1010
I-1
aI16
aa(lp1011
I-1
aI18
aa(lp1012
I5
aI16
aa(lp1013
I5
aI18
aa(lp1014
I11
aI16
aa(lp1015
I11
aI18
aa(lp1016
I17
aI16
aa(lp1017
I17
aI18
aaI12
aa(lp1018
I1
a(lp1019
I0
aI12
aa(lp1020
I0
aI14
aa(lp1021
I6
aI12
aa(lp1022
I6
aI14
aa(lp1023
I12
aI12
aa(lp1024
I12
aI14
aa(lp1025
I18
aI12
aa(lp1026
I18
aI14
aaI12
aa(lp1027
I1
a(lp1028
I3
aI7
aa(lp1029
I3
aI10
aa(lp1030
I6
aI7
aa(lp1031
I6
aI10
aa(lp1032
I9
aI7
aa(lp1033
I9
aI10
aa(lp1034
I12
aI7
aa(lp1035
I12
aI10
aaI9
aa(lp1036
I1
a(lp1037
I3
aI8
aa(lp1038
I3
aI11
aa(lp1039
I6
aI8
aa(lp1040
I6
aI11
aa(lp1041
I9
aI8
aa(lp1042
I9
aI11
aa(lp1043
I12
aI8
aa(lp1044
I12
aI11
aaI9
aa(lp1045
I1
a(lp1046
I3
aI9
aa(lp1047
I3
aI12
aa(lp1048
I6
aI9
aa(lp1049
I6
aI12
aa(lp1050
I9
aI9
aa(lp1051
I9
aI12
aa(lp1052
I12
aI9
aa(lp1053
I12
aI12
aaI9
aa(lp1054
I1
a(lp1055
I3
aI10
aa(lp1056
I3
aI13
aa(lp1057
I6
aI10
aa(lp1058
I6
aI13
aa(lp1059
I9
aI10
aa(lp1060
I9
aI13
aa(lp1061
I12
aI10
aa(lp1062
I12
aI13
aaI9
aa(lp1063
I1
a(lp1064
I4
aI1
aa(lp1065
I4
aI4
aa(lp1066
I7
aI1
aa(lp1067
I7
aI4
aa(lp1068
I10
aI1
aa(lp1069
I10
aI4
aa(lp1070
I13
aI1
aa(lp1071
I13
aI4
aaI9
aa(lp1072
I1
a(lp1073
I4
aI2
aa(lp1074
I4
aI5
aa(lp1075
I7
aI2
aa(lp1076
I7
aI5
aa(lp1077
I10
aI2
aa(lp1078
I10
aI5
aa(lp1079
I13
aI2
aa(lp1080
I13
aI5
aaI9
aa(lp1081
I1
a(lp1082
I1
aI7
aa(lp1083
I1
aI10
aa(lp1084
I5
aI7
aa(lp1085
I5
aI10
aa(lp1086
I9
aI7
aa(lp1087
I9
aI10
aa(lp1088
I13
aI7
aa(lp1089
I13
aI10
aaI12
aa(lp1090
I1
a(lp1091
I1
aI8
aa(lp1092
I1
aI11
aa(lp1093
I5
aI8
aa(lp1094
I5
aI11
aa(lp1095
I9
aI8
aa(lp1096
I9
aI11
aa(lp1097
I13
aI8
aa(lp1098
I13
aI11
aaI12
aa(lp1099
I1
a(lp1100
I1
aI9
aa(lp1101
I1
aI12
aa(lp1102
I5
aI9
aa(lp1103
I5
aI12
aa(lp1104
I9
aI9
aa(lp1105
I9
aI12
aa(lp1106
I13
aI9
aa(lp1107
I13
aI12
aaI12
aa(lp1108
I1
a(lp1109
I1
aI10
aa(lp1110
I1
aI13
aa(lp1111
I5
aI10
aa(lp1112
I5
aI13
aa(lp1113
I9
aI10
aa(lp1114
I9
aI13
aa(lp1115
I13
aI10
aa(lp1116
I13
aI13
aaI12
aa(lp1117
I1
a(lp1118
I1
aI11
aa(lp1119
I1
aI14
aa(lp1120
I5
aI11
aa(lp1121
I5
aI14
aa(lp1122
I9
aI11
aa(lp1123
I9
aI14
aa(lp1124
I13
aI11
aa(lp1125
I13
aI14
aaI12
aa(lp1126
I1
a(lp1127
I1
aI12
aa(lp1128
I1
aI15
aa(lp1129
I5
aI12
aa(lp1130
I5
aI15
aa(lp1131
I9
aI12
aa(lp1132
I9
aI15
aa(lp1133
I13
aI12
aa(lp1134
I13
aI15
aaI12
aa(lp1135
I1
a(lp1136
I1
aI15
aa(lp1137
I1
aI18
aa(lp1138
I5
aI15
aa(lp1139
I5
aI18
aa(lp1140
I9
aI15
aa(lp1141
I9
aI18
aa(lp1142
I13
aI15
aa(lp1143
I13
aI18
aaI12
aa(lp1144
I1
a(lp1145
I2
aI2
aa(lp1146
I2
aI5
aa(lp1147
I6
aI2
aa(lp1148
I6
aI5
aa(lp1149
I10
aI2
aa(lp1150
I10
aI5
aa(lp1151
I14
aI2
aa(lp1152
I14
aI5
aaI12
aa(lp1153
I1
a(lp1154
I2
aI3
aa(lp1155
I2
aI6
aa(lp1156
I6
aI3
aa(lp1157
I6
aI6
aa(lp1158
I10
aI3
aa(lp1159
I10
aI6
aa(lp1160
I14
aI3
aa(lp1161
I14
aI6
aaI12
aa(lp1162
I1
a(lp1163
I2
aI7
aa(lp1164
I2
aI10
aa(lp1165
I6
aI7
aa(lp1166
I6
aI10
aa(lp1167
I10
aI7
aa(lp1168
I10
aI10
aa(lp1169
I14
aI7
aa(lp1170
I14
aI10
aaI12
aa(lp1171
I1
a(lp1172
I2
aI8
aa(lp1173
I2
aI11
aa(lp1174
I6
aI8
aa(lp1175
I6
aI11
aa(lp1176
I10
aI8
aa(lp1177
I10
aI11
aa(lp1178
I14
aI8
aa(lp1179
I14
aI11
aaI12
aa(lp1180
I1
a(lp1181
I2
aI9
aa(lp1182
I2
aI12
aa(lp1183
I6
aI9
aa(lp1184
I6
aI12
aa(lp1185
I10
aI9
aa(lp1186
I10
aI12
aa(lp1187
I14
aI9
aa(lp1188
I14
aI12
aaI12
aa(lp1189
I1
a(lp1190
I2
aI10
aa(lp1191
I2
aI13
aa(lp1192
I6
aI10
aa(lp1193
I6
aI13
aa(lp1194
I10
aI10
aa(lp1195
I10
aI13
aa(lp1196
I14
aI10
aa(lp1197
I14
aI13
aaI12
aa(lp1198
I1
a(lp1199
I2
aI11
aa(lp1200
I2
aI14
aa(lp1201
I6
aI11
aa(lp1202
I6
aI14
aa(lp1203
I10
aI11
aa(lp1204
I10
aI14
aa(lp1205
I14
aI11
aa(lp1206
I14
aI14
aaI12
aa(lp1207
I1
a(lp1208
I2
aI12
aa(lp1209
I2
aI15
aa(lp1210
I6
aI12
aa(lp1211
I6
aI15
aa(lp1212
I10
aI12
aa(lp1213
I10
aI15
aa(lp1214
I14
aI12
aa(lp1215
I14
aI15
aaI12
aa(lp1216
I1
a(lp1217
I2
aI13
aa(lp1218
I2
aI16
aa(lp1219
I6
aI13
aa(lp1220
I6
aI16
aa(lp1221
I10
aI13
aa(lp1222
I10
aI16
aa(lp1223
I14
aI13
aa(lp1224
I14
aI16
aaI12
aa(lp1225
I1
a(lp1226
I2
aI14
aa(lp1227
I2
aI17
aa(lp1228
I6
aI14
aa(lp1229
I6
aI17
aa(lp1230
I10
aI14
aa(lp1231
I10
aI17
aa(lp1232
I14
aI14
aa(lp1233
I14
aI17
aaI12
aa(lp1234
I1
a(lp1235
I3
aI2
aa(lp1236
I3
aI5
aa(lp1237
I7
aI2
aa(lp1238
I7
aI5
aa(lp1239
I11
aI2
aa(lp1240
I11
aI5
aa(lp1241
I15
aI2
aa(lp1242
I15
aI5
aaI12
aa(lp1243
I1
a(lp1244
I3
aI12
aa(lp1245
I3
aI15
aa(lp1246
I7
aI12
aa(lp1247
I7
aI15
aa(lp1248
I11
aI12
aa(lp1249
I11
aI15
aa(lp1250
I15
aI12
aa(lp1251
I15
aI15
aaI12
aa(lp1252
I1
a(lp1253
I-1
aI7
aa(lp1254
I-1
aI10
aa(lp1255
I4
aI7
aa(lp1256
I4
aI10
aa(lp1257
I9
aI7
aa(lp1258
I9
aI10
aa(lp1259
I14
aI7
aa(lp1260
I14
aI10
aaI15
aa(lp1261
I1
a(lp1262
I-1
aI8
aa(lp1263
I-1
aI11
aa(lp1264
I4
aI8
aa(lp1265
I4
aI11
aa(lp1266
I9
aI8
aa(lp1267
I9
aI11
aa(lp1268
I14
aI8
aa(lp1269
I14
aI11
aaI15
aa(lp1270
I1
a(lp1271
I0
aI7
aa(lp1272
I0
aI10
aa(lp1273
I5
aI7
aa(lp1274
I5
aI10
aa(lp1275
I10
aI7
aa(lp1276
I10
aI10
aa(lp1277
I15
aI7
aa(lp1278
I15
aI10
aaI15
aa(lp1279
I1
a(lp1280
I0
aI8
aa(lp1281
I0
aI11
aa(lp1282
I5
aI8
aa(lp1283
I5
aI11
aa(lp1284
I10
aI8
aa(lp1285
I10
aI11
aa(lp1286
I15
aI8
aa(lp1287
I15
aI11
aaI15
aa(lp1288
I1
a(lp1289
I0
aI9
aa(lp1290
I0
aI12
aa(lp1291
I5
aI9
aa(lp1292
I5
aI12
aa(lp1293
I10
aI9
aa(lp1294
I10
aI12
aa(lp1295
I15
aI9
aa(lp1296
I15
aI12
aaI15
aa(lp1297
I1
a(lp1298
I0
aI10
aa(lp1299
I0
aI13
aa(lp1300
I5
aI10
aa(lp1301
I5
aI13
aa(lp1302
I10
aI10
aa(lp1303
I10
aI13
aa(lp1304
I15
aI10
aa(lp1305
I15
aI13
aaI15
aa(lp1306
I1
a(lp1307
I0
aI11
aa(lp1308
I0
aI14
aa(lp1309
I5
aI11
aa(lp1310
I5
aI14
aa(lp1311
I10
aI11
aa(lp1312
I10
aI14
aa(lp1313
I15
aI11
aa(lp1314
I15
aI14
aaI15
aa(lp1315
I1
a(lp1316
I0
aI12
aa(lp1317
I0
aI15
aa(lp1318
I5
aI12
aa(lp1319
I5
aI15
aa(lp1320
I10
aI12
aa(lp1321
I10
aI15
aa(lp1322
I15
aI12
aa(lp1323
I15
aI15
aaI15
aa(lp1324
I1
a(lp1325
I0
aI13
aa(lp1326
I0
aI16
aa(lp1327
I5
aI13
aa(lp1328
I5
aI16
aa(lp1329
I10
aI13
aa(lp1330
I10
aI16
aa(lp1331
I15
aI13
aa(lp1332
I15
aI16
aaI15
aa(lp1333
I1
a(lp1334
I0
aI14
aa(lp1335
I0
aI17
aa(lp1336
I5
aI14
aa(lp1337
I5
aI17
aa(lp1338
I10
aI14
aa(lp1339
I10
aI17
aa(lp1340
I15
aI14
aa(lp1341
I15
aI17
aaI15
aa(lp1342
I1
a(lp1343
I0
aI15
aa(lp1344
I0
aI18
aa(lp1345
I5
aI15
aa(lp1346
I5
aI18
aa(lp1347
I10
aI15
aa(lp1348
I10
aI18
aa(lp1349
I15
aI15
aa(lp1350
I15
aI18
aaI15
aa(lp1351
I1
a(lp1352
I1
aI10
aa(lp1353
I1
aI13
aa(lp1354
I6
aI10
aa(lp1355
I6
aI13
aa(lp1356
I11
aI10
aa(lp1357
I11
aI13
aa(lp1358
I16
aI10
aa(lp1359
I16
aI13
aaI15
aa(lp1360
I1
a(lp1361
I1
aI11
aa(lp1362
I1
aI14
aa(lp1363
I6
aI11
aa(lp1364
I6
aI14
aa(lp1365
I11
aI11
aa(lp1366
I11
aI14
aa(lp1367
I16
aI11
aa(lp1368
I16
aI14
aaI15
aa(lp1369
I1
a(lp1370
I1
aI12
aa(lp1371
I1
aI15
aa(lp1372
I6
aI12
aa(lp1373
I6
aI15
aa(lp1374
I11
aI12
aa(lp1375
I11
aI15
aa(lp1376
I16
aI12
aa(lp1377
I16
aI15
aaI15
aa(lp1378
I1
a(lp1379
I-1
aI12
aa(lp1380
I-1
aI15
aa(lp1381
I5
aI12
aa(lp1382
I5
aI15
aa(lp1383
I11
aI12
aa(lp1384
I11
aI15
aa(lp1385
I17
aI12
aa(lp1386
I17
aI15
aaI18
aa(lp1387
I1
a(lp1388
I-1
aI13
aa(lp1389
I-1
aI16
aa(lp1390
I5
aI13
aa(lp1391
I5
aI16
aa(lp1392
I11
aI13
aa(lp1393
I11
aI16
aa(lp1394
I17
aI13
aa(lp1395
I17
aI16
aaI18
aa(lp1396
I1
a(lp1397
I-1
aI14
aa(lp1398
I-1
aI17
aa(lp1399
I5
aI14
aa(lp1400
I5
aI17
aa(lp1401
I11
aI14
aa(lp1402
I11
aI17
aa(lp1403
I17
aI14
aa(lp1404
I17
aI17
aaI18
aa(lp1405
I1
a(lp1406
I-1
aI15
aa(lp1407
I-1
aI18
aa(lp1408
I5
aI15
aa(lp1409
I5
aI18
aa(lp1410
I11
aI15
aa(lp1411
I11
aI18
aa(lp1412
I17
aI15
aa(lp1413
I17
aI18
aaI18
aa(lp1414
I1
a(lp1415
I3
aI7
aa(lp1416
I3
aI11
aa(lp1417
I6
aI7
aa(lp1418
I6
aI11
aa(lp1419
I9
aI7
aa(lp1420
I9
aI11
aa(lp1421
I12
aI7
aa(lp1422
I12
aI11
aaI12
aa(lp1423
I1
a(lp1424
I3
aI8
aa(lp1425
I3
aI12
aa(lp1426
I6
aI8
aa(lp1427
I6
aI12
aa(lp1428
I9
aI8
aa(lp1429
I9
aI12
aa(lp1430
I12
aI8
aa(lp1431
I12
aI12
aaI12
aa(lp1432
I1
a(lp1433
I3
aI9
aa(lp1434
I3
aI13
aa(lp1435
I6
aI9
aa(lp1436
I6
aI13
aa(lp1437
I9
aI9
aa(lp1438
I9
aI13
aa(lp1439
I12
aI9
aa(lp1440
I12
aI13
aaI12
aa(lp1441
I1
a(lp1442
I3
aI10
aa(lp1443
I3
aI14
aa(lp1444
I6
aI10
aa(lp1445
I6
aI14
aa(lp1446
I9
aI10
aa(lp1447
I9
aI14
aa(lp1448
I12
aI10
aa(lp1449
I12
aI14
aaI12
aa(lp1450
I1
a(lp1451
I1
aI7
aa(lp1452
I1
aI11
aa(lp1453
I5
aI7
aa(lp1454
I5
aI11
aa(lp1455
I9
aI7
aa(lp1456
I9
aI11
aa(lp1457
I13
aI7
aa(lp1458
I13
aI11
aaI16
aa(lp1459
I1
a(lp1460
I1
aI8
aa(lp1461
I1
aI12
aa(lp1462
I5
aI8
aa(lp1463
I5
aI12
aa(lp1464
I9
aI8
aa(lp1465
I9
aI12
aa(lp1466
I13
aI8
aa(lp1467
I13
aI12
aaI16
aa(lp1468
I1
a(lp1469
I1
aI9
aa(lp1470
I1
aI13
aa(lp1471
I5
aI9
aa(lp1472
I5
aI13
aa(lp1473
I9
aI9
aa(lp1474
I9
aI13
aa(lp1475
I13
aI9
aa(lp1476
I13
aI13
aaI16
aa(lp1477
I1
a(lp1478
I1
aI10
aa(lp1479
I1
aI14
aa(lp1480
I5
aI10
aa(lp1481
I5
aI14
aa(lp1482
I9
aI10
aa(lp1483
I9
aI14
aa(lp1484
I13
aI10
aa(lp1485
I13
aI14
aaI16
aa(lp1486
I1
a(lp1487
I1
aI11
aa(lp1488
I1
aI15
aa(lp1489
I5
aI11
aa(lp1490
I5
aI15
aa(lp1491
I9
aI11
aa(lp1492
I9
aI15
aa(lp1493
I13
aI11
aa(lp1494
I13
aI15
aaI16
aa(lp1495
I1
a(lp1496
I1
aI12
aa(lp1497
I1
aI16
aa(lp1498
I5
aI12
aa(lp1499
I5
aI16
aa(lp1500
I9
aI12
aa(lp1501
I9
aI16
aa(lp1502
I13
aI12
aa(lp1503
I13
aI16
aaI16
aa(lp1504
I1
a(lp1505
I2
aI2
aa(lp1506
I2
aI6
aa(lp1507
I6
aI2
aa(lp1508
I6
aI6
aa(lp1509
I10
aI2
aa(lp1510
I10
aI6
aa(lp1511
I14
aI2
aa(lp1512
I14
aI6
aaI16
aa(lp1513
I1
a(lp1514
I2
aI7
aa(lp1515
I2
aI11
aa(lp1516
I6
aI7
aa(lp1517
I6
aI11
aa(lp1518
I10
aI7
aa(lp1519
I10
aI11
aa(lp1520
I14
aI7
aa(lp1521
I14
aI11
aaI16
aa(lp1522
I1
a(lp1523
I2
aI8
aa(lp1524
I2
aI12
aa(lp1525
I6
aI8
aa(lp1526
I6
aI12
aa(lp1527
I10
aI8
aa(lp1528
I10
aI12
aa(lp1529
I14
aI8
aa(lp1530
I14
aI12
aaI16
aa(lp1531
I1
a(lp1532
I2
aI9
aa(lp1533
I2
aI13
aa(lp1534
I6
aI9
aa(lp1535
I6
aI13
aa(lp1536
I10
aI9
aa(lp1537
I10
aI13
aa(lp1538
I14
aI9
aa(lp1539
I14
aI13
aaI16
aa(lp1540
I1
a(lp1541
I2
aI10
aa(lp1542
I2
aI14
aa(lp1543
I6
aI10
aa(lp1544
I6
aI14
aa(lp1545
I10
aI10
aa(lp1546
I10
aI14
aa(lp1547
I14
aI10
aa(lp1548
I14
aI14
aaI16
aa(lp1549
I1
a(lp1550
I2
aI11
aa(lp1551
I2
aI15
aa(lp1552
I6
aI11
aa(lp1553
I6
aI15
aa(lp1554
I10
aI11
aa(lp1555
I10
aI15
aa(lp1556
I14
aI11
aa(lp1557
I14
aI15
aaI16
aa(lp1558
I1
a(lp1559
I2
aI12
aa(lp1560
I2
aI16
aa(lp1561
I6
aI12
aa(lp1562
I6
aI16
aa(lp1563
I10
aI12
aa(lp1564
I10
aI16
aa(lp1565
I14
aI12
aa(lp1566
I14
aI16
aaI16
aa(lp1567
I1
a(lp1568
I2
aI13
aa(lp1569
I2
aI17
aa(lp1570
I6
aI13
aa(lp1571
I6
aI17
aa(lp1572
I10
aI13
aa(lp1573
I10
aI17
aa(lp1574
I14
aI13
aa(lp1575
I14
aI17
aaI16
aa(lp1576
I1
a(lp1577
I-1
aI7
aa(lp1578
I-1
aI11
aa(lp1579
I4
aI7
aa(lp1580
I4
aI11
aa(lp1581
I9
aI7
aa(lp1582
I9
aI11
aa(lp1583
I14
aI7
aa(lp1584
I14
aI11
aaI20
aa(lp1585
I1
a(lp1586
I-1
aI8
aa(lp1587
I-1
aI12
aa(lp1588
I4
aI8
aa(lp1589
I4
aI12
aa(lp1590
I9
aI8
aa(lp1591
I9
aI12
aa(lp1592
I14
aI8
aa(lp1593
I14
aI12
aaI20
aa(lp1594
I1
a(lp1595
I0
aI7
aa(lp1596
I0
aI11
aa(lp1597
I5
aI7
aa(lp1598
I5
aI11
aa(lp1599
I10
aI7
aa(lp1600
I10
aI11
aa(lp1601
I15
aI7
aa(lp1602
I15
aI11
aaI20
aa(lp1603
I1
a(lp1604
I0
aI8
aa(lp1605
I0
aI12
aa(lp1606
I5
aI8
aa(lp1607
I5
aI12
aa(lp1608
I10
aI8
aa(lp1609
I10
aI12
aa(lp1610
I15
aI8
aa(lp1611
I15
aI12
aaI20
aa(lp1612
I1
a(lp1613
I0
aI9
aa(lp1614
I0
aI13
aa(lp1615
I5
aI9
aa(lp1616
I5
aI13
aa(lp1617
I10
aI9
aa(lp1618
I10
aI13
aa(lp1619
I15
aI9
aa(lp1620
I15
aI13
aaI20
aa(lp1621
I1
a(lp1622
I0
aI10
aa(lp1623
I0
aI14
aa(lp1624
I5
aI10
aa(lp1625
I5
aI14
aa(lp1626
I10
aI10
aa(lp1627
I10
aI14
aa(lp1628
I15
aI10
aa(lp1629
I15
aI14
aaI20
aa(lp1630
I1
a(lp1631
I0
aI11
aa(lp1632
I0
aI15
aa(lp1633
I5
aI11
aa(lp1634
I5
aI15
aa(lp1635
I10
aI11
aa(lp1636
I10
aI15
aa(lp1637
I15
aI11
aa(lp1638
I15
aI15
aaI20
aa(lp1639
I1
a(lp1640
I0
aI12
aa(lp1641
I0
aI16
aa(lp1642
I5
aI12
aa(lp1643
I5
aI16
aa(lp1644
I10
aI12
aa(lp1645
I10
aI16
aa(lp1646
I15
aI12
aa(lp1647
I15
aI16
aaI20
aa(lp1648
I1
a(lp1649
I0
aI13
aa(lp1650
I0
aI17
aa(lp1651
I5
aI13
aa(lp1652
I5
aI17
aa(lp1653
I10
aI13
aa(lp1654
I10
aI17
aa(lp1655
I15
aI13
aa(lp1656
I15
aI17
aaI20
aa(lp1657
I1
a(lp1658
I0
aI14
aa(lp1659
I0
aI18
aa(lp1660
I5
aI14
aa(lp1661
I5
aI18
aa(lp1662
I10
aI14
aa(lp1663
I10
aI18
aa(lp1664
I15
aI14
aa(lp1665
I15
aI18
aaI20
aa(lp1666
I1
a(lp1667
I1
aI10
aa(lp1668
I1
aI14
aa(lp1669
I6
aI10
aa(lp1670
I6
aI14
aa(lp1671
I11
aI10
aa(lp1672
I11
aI14
aa(lp1673
I16
aI10
aa(lp1674
I16
aI14
aaI20
aa(lp1675
I1
a(lp1676
I1
aI11
aa(lp1677
I1
aI15
aa(lp1678
I6
aI11
aa(lp1679
I6
aI15
aa(lp1680
I11
aI11
aa(lp1681
I11
aI15
aa(lp1682
I16
aI11
aa(lp1683
I16
aI15
aaI20
aa(lp1684
I1
a(lp1685
I-1
aI11
aa(lp1686
I-1
aI15
aa(lp1687
I5
aI11
aa(lp1688
I5
aI15
aa(lp1689
I11
aI11
aa(lp1690
I11
aI15
aa(lp1691
I17
aI11
aa(lp1692
I17
aI15
aaI24
aa(lp1693
I1
a(lp1694
I-1
aI12
aa(lp1695
I-1
aI16
aa(lp1696
I5
aI12
aa(lp1697
I5
aI16
aa(lp1698
I11
aI12
aa(lp1699
I11
aI16
aa(lp1700
I17
aI12
aa(lp1701
I17
aI16
aaI24
aa(lp1702
I1
a(lp1703
I-1
aI13
aa(lp1704
I-1
aI17
aa(lp1705
I5
aI13
aa(lp1706
I5
aI17
aa(lp1707
I11
aI13
aa(lp1708
I11
aI17
aa(lp1709
I17
aI13
aa(lp1710
I17
aI17
aaI24
aa(lp1711
I1
a(lp1712
I-1
aI14
aa(lp1713
I-1
aI18
aa(lp1714
I5
aI14
aa(lp1715
I5
aI18
aa(lp1716
I11
aI14
aa(lp1717
I11
aI18
aa(lp1718
I17
aI14
aa(lp1719
I17
aI18
aaI24
aa(lp1720
I1
a(lp1721
I3
aI7
aa(lp1722
I3
aI12
aa(lp1723
I6
aI7
aa(lp1724
I6
aI12
aa(lp1725
I9
aI7
aa(lp1726
I9
aI12
aa(lp1727
I12
aI7
aa(lp1728
I12
aI12
aaI15
aa(lp1729
I1
a(lp1730
I3
aI8
aa(lp1731
I3
aI13
aa(lp1732
I6
aI8
aa(lp1733
I6
aI13
aa(lp1734
I9
aI8
aa(lp1735
I9
aI13
aa(lp1736
I12
aI8
aa(lp1737
I12
aI13
aaI15
aa(lp1738
I1
a(lp1739
I3
aI9
aa(lp1740
I3
aI14
aa(lp1741
I6
aI9
aa(lp1742
I6
aI14
aa(lp1743
I9
aI9
aa(lp1744
I9
aI14
aa(lp1745
I12
aI9
aa(lp1746
I12
aI14
aaI15
aa(lp1747
I1
a(lp1748
I1
aI7
aa(lp1749
I1
aI12
aa(lp1750
I5
aI7
aa(lp1751
I5
aI12
aa(lp1752
I9
aI7
aa(lp1753
I9
aI12
aa(lp1754
I13
aI7
aa(lp1755
I13
aI12
aaI20
aa(lp1756
I1
a(lp1757
I1
aI8
aa(lp1758
I1
aI13
aa(lp1759
I5
aI8
aa(lp1760
I5
aI13
aa(lp1761
I9
aI8
aa(lp1762
I9
aI13
aa(lp1763
I13
aI8
aa(lp1764
I13
aI13
aaI20
aa(lp1765
I1
a(lp1766
I1
aI9
aa(lp1767
I1
aI14
aa(lp1768
I5
aI9
aa(lp1769
I5
aI14
aa(lp1770
I9
aI9
aa(lp1771
I9
aI14
aa(lp1772
I13
aI9
aa(lp1773
I13
aI14
aaI20
aa(lp1774
I1
a(lp1775
I1
aI10
aa(lp1776
I1
aI15
aa(lp1777
I5
aI10
aa(lp1778
I5
aI15
aa(lp1779
I9
aI10
aa(lp1780
I9
aI15
aa(lp1781
I13
aI10
aa(lp1782
I13
aI15
aaI20
aa(lp1783
I1
a(lp1784
I1
aI11
aa(lp1785
I1
aI16
aa(lp1786
I5
aI11
aa(lp1787
I5
aI16
aa(lp1788
I9
aI11
aa(lp1789
I9
aI16
aa(lp1790
I13
aI11
aa(lp1791
I13
aI16
aaI20
aa(lp1792
I1
a(lp1793
I2
aI7
aa(lp1794
I2
aI12
aa(lp1795
I6
aI7
aa(lp1796
I6
aI12
aa(lp1797
I10
aI7
aa(lp1798
I10
aI12
aa(lp1799
I14
aI7
aa(lp1800
I14
aI12
aaI20
aa(lp1801
I1
a(lp1802
I2
aI8
aa(lp1803
I2
aI13
aa(lp1804
I6
aI8
aa(lp1805
I6
aI13
aa(lp1806
I10
aI8
aa(lp1807
I10
aI13
aa(lp1808
I14
aI8
aa(lp1809
I14
aI13
aaI20
aa(lp1810
I1
a(lp1811
I2
aI9
aa(lp1812
I2
aI14
aa(lp1813
I6
aI9
aa(lp1814
I6
aI14
aa(lp1815
I10
aI9
aa(lp1816
I10
aI14
aa(lp1817
I14
aI9
aa(lp1818
I14
aI14
aaI20
aa(lp1819
I1
a(lp1820
I2
aI10
aa(lp1821
I2
aI15
aa(lp1822
I6
aI10
aa(lp1823
I6
aI15
aa(lp1824
I10
aI10
aa(lp1825
I10
aI15
aa(lp1826
I14
aI10
aa(lp1827
I14
aI15
aaI20
aa(lp1828
I1
a(lp1829
I2
aI11
aa(lp1830
I2
aI16
aa(lp1831
I6
aI11
aa(lp1832
I6
aI16
aa(lp1833
I10
aI11
aa(lp1834
I10
aI16
aa(lp1835
I14
aI11
aa(lp1836
I14
aI16
aaI20
aa(lp1837
I1
a(lp1838
I2
aI12
aa(lp1839
I2
aI17
aa(lp1840
I6
aI12
aa(lp1841
I6
aI17
aa(lp1842
I10
aI12
aa(lp1843
I10
aI17
aa(lp1844
I14
aI12
aa(lp1845
I14
aI17
aaI20
aa(lp1846
I1
a(lp1847
I-1
aI8
aa(lp1848
I-1
aI13
aa(lp1849
I4
aI8
aa(lp1850
I4
aI13
aa(lp1851
I9
aI8
aa(lp1852
I9
aI13
aa(lp1853
I14
aI8
aa(lp1854
I14
aI13
aaI25
aa(lp1855
I1
a(lp1856
I0
aI7
aa(lp1857
I0
aI12
aa(lp1858
I5
aI7
aa(lp1859
I5
aI12
aa(lp1860
I10
aI7
aa(lp1861
I10
aI12
aa(lp1862
I15
aI7
aa(lp1863
I15
aI12
aaI25
aa(lp1864
I1
a(lp1865
I0
aI8
aa(lp1866
I0
aI13
aa(lp1867
I5
aI8
aa(lp1868
I5
aI13
aa(lp1869
I10
aI8
aa(lp1870
I10
aI13
aa(lp1871
I15
aI8
aa(lp1872
I15
aI13
aaI25
aa(lp1873
I1
a(lp1874
I0
aI9
aa(lp1875
I0
aI14
aa(lp1876
I5
aI9
aa(lp1877
I5
aI14
aa(lp1878
I10
aI9
aa(lp1879
I10
aI14
aa(lp1880
I15
aI9
aa(lp1881
I15
aI14
aaI25
aa(lp1882
I1
a(lp1883
I0
aI10
aa(lp1884
I0
aI15
aa(lp1885
I5
aI10
aa(lp1886
I5
aI15
aa(lp1887
I10
aI10
aa(lp1888
I10
aI15
aa(lp1889
I15
aI10
aa(lp1890
I15
aI15
aaI25
aa(lp1891
I1
a(lp1892
I0
aI11
aa(lp1893
I0
aI16
aa(lp1894
I5
aI11
aa(lp1895
I5
aI16
aa(lp1896
I10
aI11
aa(lp1897
I10
aI16
aa(lp1898
I15
aI11
aa(lp1899
I15
aI16
aaI25
aa(lp1900
I1
a(lp1901
I0
aI12
aa(lp1902
I0
aI17
aa(lp1903
I5
aI12
aa(lp1904
I5
aI17
aa(lp1905
I10
aI12
aa(lp1906
I10
aI17
aa(lp1907
I15
aI12
aa(lp1908
I15
aI17
aaI25
aa(lp1909
I1
a(lp1910
I0
aI13
aa(lp1911
I0
aI18
aa(lp1912
I5
aI13
aa(lp1913
I5
aI18
aa(lp1914
I10
aI13
aa(lp1915
I10
aI18
aa(lp1916
I15
aI13
aa(lp1917
I15
aI18
aaI25
aa(lp1918
I1
a(lp1919
I1
aI9
aa(lp1920
I1
aI14
aa(lp1921
I6
aI9
aa(lp1922
I6
aI14
aa(lp1923
I11
aI9
aa(lp1924
I11
aI14
aa(lp1925
I16
aI9
aa(lp1926
I16
aI14
aaI25
aa(lp1927
I1
a(lp1928
I1
aI10
aa(lp1929
I1
aI15
aa(lp1930
I6
aI10
aa(lp1931
I6
aI15
aa(lp1932
I11
aI10
aa(lp1933
I11
aI15
aa(lp1934
I16
aI10
aa(lp1935
I16
aI15
aaI25
aa(lp1936
I1
a(lp1937
I1
aI11
aa(lp1938
I1
aI16
aa(lp1939
I6
aI11
aa(lp1940
I6
aI16
aa(lp1941
I11
aI11
aa(lp1942
I11
aI16
aa(lp1943
I16
aI11
aa(lp1944
I16
aI16
aaI25
aa(lp1945
I1
a(lp1946
I-1
aI10
aa(lp1947
I-1
aI15
aa(lp1948
I5
aI10
aa(lp1949
I5
aI15
aa(lp1950
I11
aI10
aa(lp1951
I11
aI15
aa(lp1952
I17
aI10
aa(lp1953
I17
aI15
aaI30
aa(lp1954
I1
a(lp1955
I-1
aI13
aa(lp1956
I-1
aI18
aa(lp1957
I5
aI13
aa(lp1958
I5
aI18
aa(lp1959
I11
aI13
aa(lp1960
I11
aI18
aa(lp1961
I17
aI13
aa(lp1962
I17
aI18
aaI30
aa(lp1963
I1
a(lp1964
I3
aI7
aa(lp1965
I3
aI13
aa(lp1966
I6
aI7
aa(lp1967
I6
aI13
aa(lp1968
I9
aI7
aa(lp1969
I9
aI13
aa(lp1970
I12
aI7
aa(lp1971
I12
aI13
aaI18
aa(lp1972
I1
a(lp1973
I3
aI8
aa(lp1974
I3
aI14
aa(lp1975
I6
aI8
aa(lp1976
I6
aI14
aa(lp1977
I9
aI8
aa(lp1978
I9
aI14
aa(lp1979
I12
aI8
aa(lp1980
I12
aI14
aaI18
aa(lp1981
I1
a(lp1982
I3
aI9
aa(lp1983
I3
aI15
aa(lp1984
I6
aI9
aa(lp1985
I6
aI15
aa(lp1986
I9
aI9
aa(lp1987
I9
aI15
aa(lp1988
I12
aI9
aa(lp1989
I12
aI15
aaI18
aa(lp1990
I1
a(lp1991
I1
aI7
aa(lp1992
I1
aI13
aa(lp1993
I5
aI7
aa(lp1994
I5
aI13
aa(lp1995
I9
aI7
aa(lp1996
I9
aI13
aa(lp1997
I13
aI7
aa(lp1998
I13
aI13
aaI24
aa(lp1999
I1
a(lp2000
I1
aI8
aa(lp2001
I1
aI14
aa(lp2002
I5
aI8
aa(lp2003
I5
aI14
aa(lp2004
I9
aI8
aa(lp2005
I9
aI14
aa(lp2006
I13
aI8
aa(lp2007
I13
aI14
aaI24
aa(lp2008
I1
a(lp2009
I1
aI9
aa(lp2010
I1
aI15
aa(lp2011
I5
aI9
aa(lp2012
I5
aI15
aa(lp2013
I9
aI9
aa(lp2014
I9
aI15
aa(lp2015
I13
aI9
aa(lp2016
I13
aI15
aaI24
aa(lp2017
I1
a(lp2018
I1
aI10
aa(lp2019
I1
aI16
aa(lp2020
I5
aI10
aa(lp2021
I5
aI16
aa(lp2022
I9
aI10
aa(lp2023
I9
aI16
aa(lp2024
I13
aI10
aa(lp2025
I13
aI16
aaI24
aa(lp2026
I1
a(lp2027
I2
aI7
aa(lp2028
I2
aI13
aa(lp2029
I6
aI7
aa(lp2030
I6
aI13
aa(lp2031
I10
aI7
aa(lp2032
I10
aI13
aa(lp2033
I14
aI7
aa(lp2034
I14
aI13
aaI24
aa(lp2035
I1
a(lp2036
I2
aI8
aa(lp2037
I2
aI14
aa(lp2038
I6
aI8
aa(lp2039
I6
aI14
aa(lp2040
I10
aI8
aa(lp2041
I10
aI14
aa(lp2042
I14
aI8
aa(lp2043
I14
aI14
aaI24
aa(lp2044
I1
a(lp2045
I2
aI9
aa(lp2046
I2
aI15
aa(lp2047
I6
aI9
aa(lp2048
I6
aI15
aa(lp2049
I10
aI9
aa(lp2050
I10
aI15
aa(lp2051
I14
aI9
aa(lp2052
I14
aI15
aaI24
aa(lp2053
I1
a(lp2054
I2
aI10
aa(lp2055
I2
aI16
aa(lp2056
I6
aI10
aa(lp2057
I6
aI16
aa(lp2058
I10
aI10
aa(lp2059
I10
aI16
aa(lp2060
I14
aI10
aa(lp2061
I14
aI16
aaI24
aa(lp2062
I1
a(lp2063
I2
aI11
aa(lp2064
I2
aI17
aa(lp2065
I6
aI11
aa(lp2066
I6
aI17
aa(lp2067
I10
aI11
aa(lp2068
I10
aI17
aa(lp2069
I14
aI11
aa(lp2070
I14
aI17
aaI24
aa(lp2071
I1
a(lp2072
I2
aI12
aa(lp2073
I2
aI18
aa(lp2074
I6
aI12
aa(lp2075
I6
aI18
aa(lp2076
I10
aI12
aa(lp2077
I10
aI18
aa(lp2078
I14
aI12
aa(lp2079
I14
aI18
aaI24
aa(lp2080
I1
a(lp2081
I0
aI7
aa(lp2082
I0
aI13
aa(lp2083
I5
aI7
aa(lp2084
I5
aI13
aa(lp2085
I10
aI7
aa(lp2086
I10
aI13
aa(lp2087
I15
aI7
aa(lp2088
I15
aI13
aaI30
aa(lp2089
I1
a(lp2090
I0
aI8
aa(lp2091
I0
aI14
aa(lp2092
I5
aI8
aa(lp2093
I5
aI14
aa(lp2094
I10
aI8
aa(lp2095
I10
aI14
aa(lp2096
I15
aI8
aa(lp2097
I15
aI14
aaI30
aa(lp2098
I1
a(lp2099
I0
aI9
aa(lp2100
I0
aI15
aa(lp2101
I5
aI9
aa(lp2102
I5
aI15
aa(lp2103
I10
aI9
aa(lp2104
I10
aI15
aa(lp2105
I15
aI9
aa(lp2106
I15
aI15
aaI30
aa(lp2107
I1
a(lp2108
I0
aI10
aa(lp2109
I0
aI16
aa(lp2110
I5
aI10
aa(lp2111
I5
aI16
aa(lp2112
I10
aI10
aa(lp2113
I10
aI16
aa(lp2114
I15
aI10
aa(lp2115
I15
aI16
aaI30
aa(lp2116
I1
a(lp2117
I0
aI11
aa(lp2118
I0
aI17
aa(lp2119
I5
aI11
aa(lp2120
I5
aI17
aa(lp2121
I10
aI11
aa(lp2122
I10
aI17
aa(lp2123
I15
aI11
aa(lp2124
I15
aI17
aaI30
aa(lp2125
I1
a(lp2126
I0
aI12
aa(lp2127
I0
aI18
aa(lp2128
I5
aI12
aa(lp2129
I5
aI18
aa(lp2130
I10
aI12
aa(lp2131
I10
aI18
aa(lp2132
I15
aI12
aa(lp2133
I15
aI18
aaI30
aa(lp2134
I1
a(lp2135
I1
aI8
aa(lp2136
I1
aI14
aa(lp2137
I6
aI8
aa(lp2138
I6
aI14
aa(lp2139
I11
aI8
aa(lp2140
I11
aI14
aa(lp2141
I16
aI8
aa(lp2142
I16
aI14
aaI30
aa(lp2143
I1
a(lp2144
I1
aI9
aa(lp2145
I1
aI15
aa(lp2146
I6
aI9
aa(lp2147
I6
aI15
aa(lp2148
I11
aI9
aa(lp2149
I11
aI15
aa(lp2150
I16
aI9
aa(lp2151
I16
aI15
aaI30
aa(lp2152
I1
a(lp2153
I1
aI10
aa(lp2154
I1
aI16
aa(lp2155
I6
aI10
aa(lp2156
I6
aI16
aa(lp2157
I11
aI10
aa(lp2158
I11
aI16
aa(lp2159
I16
aI10
aa(lp2160
I16
aI16
aaI30
aa(lp2161
I1
a(lp2162
I-1
aI9
aa(lp2163
I-1
aI15
aa(lp2164
I5
aI9
aa(lp2165
I5
aI15
aa(lp2166
I11
aI9
aa(lp2167
I11
aI15
aa(lp2168
I17
aI9
aa(lp2169
I17
aI15
aaI36
aa(lp2170
I1
a(lp2171
I-1
aI10
aa(lp2172
I-1
aI16
aa(lp2173
I5
aI10
aa(lp2174
I5
aI16
aa(lp2175
I11
aI10
aa(lp2176
I11
aI16
aa(lp2177
I17
aI10
aa(lp2178
I17
aI16
aaI36
aa(lp2179
I1
a(lp2180
I-1
aI12
aa(lp2181
I-1
aI18
aa(lp2182
I5
aI12
aa(lp2183
I5
aI18
aa(lp2184
I11
aI12
aa(lp2185
I11
aI18
aa(lp2186
I17
aI12
aa(lp2187
I17
aI18
aaI36
aa(lp2188
I1
a(lp2189
I3
aI7
aa(lp2190
I3
aI14
aa(lp2191
I6
aI7
aa(lp2192
I6
aI14
aa(lp2193
I9
aI7
aa(lp2194
I9
aI14
aa(lp2195
I12
aI7
aa(lp2196
I12
aI14
aaI21
aa(lp2197
I1
a(lp2198
I3
aI8
aa(lp2199
I3
aI15
aa(lp2200
I6
aI8
aa(lp2201
I6
aI15
aa(lp2202
I9
aI8
aa(lp2203
I9
aI15
aa(lp2204
I12
aI8
aa(lp2205
I12
aI15
aaI21
aa(lp2206
I1
a(lp2207
I3
aI9
aa(lp2208
I3
aI16
aa(lp2209
I6
aI9
aa(lp2210
I6
aI16
aa(lp2211
I9
aI9
aa(lp2212
I9
aI16
aa(lp2213
I12
aI9
aa(lp2214
I12
aI16
aaI21
aa(lp2215
I1
a(lp2216
I1
aI6
aa(lp2217
I1
aI13
aa(lp2218
I5
aI6
aa(lp2219
I5
aI13
aa(lp2220
I9
aI6
aa(lp2221
I9
aI13
aa(lp2222
I13
aI6
aa(lp2223
I13
aI13
aaI28
aa(lp2224
I1
a(lp2225
I1
aI7
aa(lp2226
I1
aI14
aa(lp2227
I5
aI7
aa(lp2228
I5
aI14
aa(lp2229
I9
aI7
aa(lp2230
I9
aI14
aa(lp2231
I13
aI7
aa(lp2232
I13
aI14
aaI28
aa(lp2233
I1
a(lp2234
I1
aI8
aa(lp2235
I1
aI15
aa(lp2236
I5
aI8
aa(lp2237
I5
aI15
aa(lp2238
I9
aI8
aa(lp2239
I9
aI15
aa(lp2240
I13
aI8
aa(lp2241
I13
aI15
aaI28
aa(lp2242
I1
a(lp2243
I1
aI9
aa(lp2244
I1
aI16
aa(lp2245
I5
aI9
aa(lp2246
I5
aI16
aa(lp2247
I9
aI9
aa(lp2248
I9
aI16
aa(lp2249
I13
aI9
aa(lp2250
I13
aI16
aaI28
aa(lp2251
I1
a(lp2252
I1
aI10
aa(lp2253
I1
aI17
aa(lp2254
I5
aI10
aa(lp2255
I5
aI17
aa(lp2256
I9
aI10
aa(lp2257
I9
aI17
aa(lp2258
I13
aI10
aa(lp2259
I13
aI17
aaI28
aa(lp2260
I1
a(lp2261
I2
aI7
aa(lp2262
I2
aI14
aa(lp2263
I6
aI7
aa(lp2264
I6
aI14
aa(lp2265
I10
aI7
aa(lp2266
I10
aI14
aa(lp2267
I14
aI7
aa(lp2268
I14
aI14
aaI28
aa(lp2269
I1
a(lp2270
I2
aI8
aa(lp2271
I2
aI15
aa(lp2272
I6
aI8
aa(lp2273
I6
aI15
aa(lp2274
I10
aI8
aa(lp2275
I10
aI15
aa(lp2276
I14
aI8
aa(lp2277
I14
aI15
aaI28
aa(lp2278
I1
a(lp2279
I2
aI9
aa(lp2280
I2
aI16
aa(lp2281
I6
aI9
aa(lp2282
I6
aI16
aa(lp2283
I10
aI9
aa(lp2284
I10
aI16
aa(lp2285
I14
aI9
aa(lp2286
I14
aI16
aaI28
aa(lp2287
I1
a(lp2288
I2
aI10
aa(lp2289
I2
aI17
aa(lp2290
I6
aI10
aa(lp2291
I6
aI17
aa(lp2292
I10
aI10
aa(lp2293
I10
aI17
aa(lp2294
I14
aI10
aa(lp2295
I14
aI17
aaI28
aa(lp2296
I1
a(lp2297
I2
aI11
aa(lp2298
I2
aI18
aa(lp2299
I6
aI11
aa(lp2300
I6
aI18
aa(lp2301
I10
aI11
aa(lp2302
I10
aI18
aa(lp2303
I14
aI11
aa(lp2304
I14
aI18
aaI28
aa(lp2305
I1
a(lp2306
I0
aI6
aa(lp2307
I0
aI13
aa(lp2308
I5
aI6
aa(lp2309
I5
aI13
aa(lp2310
I10
aI6
aa(lp2311
I10
aI13
aa(lp2312
I15
aI6
aa(lp2313
I15
aI13
aaI35
aa(lp2314
I1
a(lp2315
I0
aI7
aa(lp2316
I0
aI14
aa(lp2317
I5
aI7
aa(lp2318
I5
aI14
aa(lp2319
I10
aI7
aa(lp2320
I10
aI14
aa(lp2321
I15
aI7
aa(lp2322
I15
aI14
aaI35
aa(lp2323
I1
a(lp2324
I0
aI8
aa(lp2325
I0
aI15
aa(lp2326
I5
aI8
aa(lp2327
I5
aI15
aa(lp2328
I10
aI8
aa(lp2329
I10
aI15
aa(lp2330
I15
aI8
aa(lp2331
I15
aI15
aaI35
aa(lp2332
I1
a(lp2333
I0
aI9
aa(lp2334
I0
aI16
aa(lp2335
I5
aI9
aa(lp2336
I5
aI16
aa(lp2337
I10
aI9
aa(lp2338
I10
aI16
aa(lp2339
I15
aI9
aa(lp2340
I15
aI16
aaI35
aa(lp2341
I1
a(lp2342
I0
aI10
aa(lp2343
I0
aI17
aa(lp2344
I5
aI10
aa(lp2345
I5
aI17
aa(lp2346
I10
aI10
aa(lp2347
I10
aI17
aa(lp2348
I15
aI10
aa(lp2349
I15
aI17
aaI35
aa(lp2350
I1
a(lp2351
I0
aI11
aa(lp2352
I0
aI18
aa(lp2353
I5
aI11
aa(lp2354
I5
aI18
aa(lp2355
I10
aI11
aa(lp2356
I10
aI18
aa(lp2357
I15
aI11
aa(lp2358
I15
aI18
aaI35
aa(lp2359
I1
a(lp2360
I1
aI8
aa(lp2361
I1
aI15
aa(lp2362
I6
aI8
aa(lp2363
I6
aI15
aa(lp2364
I11
aI8
aa(lp2365
I11
aI15
aa(lp2366
I16
aI8
aa(lp2367
I16
aI15
aaI35
aa(lp2368
I1
a(lp2369
I1
aI9
aa(lp2370
I1
aI16
aa(lp2371
I6
aI9
aa(lp2372
I6
aI16
aa(lp2373
I11
aI9
aa(lp2374
I11
aI16
aa(lp2375
I16
aI9
aa(lp2376
I16
aI16
aaI35
aa(lp2377
I1
a(lp2378
I-1
aI8
aa(lp2379
I-1
aI15
aa(lp2380
I5
aI8
aa(lp2381
I5
aI15
aa(lp2382
I11
aI8
aa(lp2383
I11
aI15
aa(lp2384
I17
aI8
aa(lp2385
I17
aI15
aaI42
aa(lp2386
I1
a(lp2387
I-1
aI9
aa(lp2388
I-1
aI16
aa(lp2389
I5
aI9
aa(lp2390
I5
aI16
aa(lp2391
I11
aI9
aa(lp2392
I11
aI16
aa(lp2393
I17
aI9
aa(lp2394
I17
aI16
aaI42
aa(lp2395
I1
a(lp2396
I1
aI6
aa(lp2397
I1
aI14
aa(lp2398
I5
aI6
aa(lp2399
I5
aI14
aa(lp2400
I9
aI6
aa(lp2401
I9
aI14
aa(lp2402
I13
aI6
aa(lp2403
I13
aI14
aaI32
aa(lp2404
I1
a(lp2405
I1
aI7
aa(lp2406
I1
aI15
aa(lp2407
I5
aI7
aa(lp2408
I5
aI15
aa(lp2409
I9
aI7
aa(lp2410
I9
aI15
aa(lp2411
I13
aI7
aa(lp2412
I13
aI15
aaI32
aa(lp2413
I1
a(lp2414
I1
aI8
aa(lp2415
I1
aI16
aa(lp2416
I5
aI8
aa(lp2417
I5
aI16
aa(lp2418
I9
aI8
aa(lp2419
I9
aI16
aa(lp2420
I13
aI8
aa(lp2421
I13
aI16
aaI32
aa(lp2422
I1
a(lp2423
I1
aI9
aa(lp2424
I1
aI17
aa(lp2425
I5
aI9
aa(lp2426
I5
aI17
aa(lp2427
I9
aI9
aa(lp2428
I9
aI17
aa(lp2429
I13
aI9
aa(lp2430
I13
aI17
aaI32
aa(lp2431
I1
a(lp2432
I1
aI10
aa(lp2433
I1
aI18
aa(lp2434
I5
aI10
aa(lp2435
I5
aI18
aa(lp2436
I9
aI10
aa(lp2437
I9
aI18
aa(lp2438
I13
aI10
aa(lp2439
I13
aI18
aaI32
aa(lp2440
I1
a(lp2441
I2
aI7
aa(lp2442
I2
aI15
aa(lp2443
I6
aI7
aa(lp2444
I6
aI15
aa(lp2445
I10
aI7
aa(lp2446
I10
aI15
aa(lp2447
I14
aI7
aa(lp2448
I14
aI15
aaI32
aa(lp2449
I1
a(lp2450
I2
aI8
aa(lp2451
I2
aI16
aa(lp2452
I6
aI8
aa(lp2453
I6
aI16
aa(lp2454
I10
aI8
aa(lp2455
I10
aI16
aa(lp2456
I14
aI8
aa(lp2457
I14
aI16
aaI32
aa(lp2458
I1
a(lp2459
I2
aI9
aa(lp2460
I2
aI17
aa(lp2461
I6
aI9
aa(lp2462
I6
aI17
aa(lp2463
I10
aI9
aa(lp2464
I10
aI17
aa(lp2465
I14
aI9
aa(lp2466
I14
aI17
aaI32
aa(lp2467
I1
a(lp2468
I2
aI10
aa(lp2469
I2
aI18
aa(lp2470
I6
aI10
aa(lp2471
I6
aI18
aa(lp2472
I10
aI10
aa(lp2473
I10
aI18
aa(lp2474
I14
aI10
aa(lp2475
I14
aI18
aaI32
aa(lp2476
I1
a(lp2477
I0
aI6
aa(lp2478
I0
aI14
aa(lp2479
I5
aI6
aa(lp2480
I5
aI14
aa(lp2481
I10
aI6
aa(lp2482
I10
aI14
aa(lp2483
I15
aI6
aa(lp2484
I15
aI14
aaI40
aa(lp2485
I1
a(lp2486
I0
aI7
aa(lp2487
I0
aI15
aa(lp2488
I5
aI7
aa(lp2489
I5
aI15
aa(lp2490
I10
aI7
aa(lp2491
I10
aI15
aa(lp2492
I15
aI7
aa(lp2493
I15
aI15
aaI40
aa(lp2494
I1
a(lp2495
I0
aI8
aa(lp2496
I0
aI16
aa(lp2497
I5
aI8
aa(lp2498
I5
aI16
aa(lp2499
I10
aI8
aa(lp2500
I10
aI16
aa(lp2501
I15
aI8
aa(lp2502
I15
aI16
aaI40
aa(lp2503
I1
a(lp2504
I0
aI9
aa(lp2505
I0
aI17
aa(lp2506
I5
aI9
aa(lp2507
I5
aI17
aa(lp2508
I10
aI9
aa(lp2509
I10
aI17
aa(lp2510
I15
aI9
aa(lp2511
I15
aI17
aaI40
aa(lp2512
I1
a(lp2513
I0
aI10
aa(lp2514
I0
aI18
aa(lp2515
I5
aI10
aa(lp2516
I5
aI18
aa(lp2517
I10
aI10
aa(lp2518
I10
aI18
aa(lp2519
I15
aI10
aa(lp2520
I15
aI18
aaI40
aa(lp2521
I1
a(lp2522
I-1
aI8
aa(lp2523
I-1
aI16
aa(lp2524
I5
aI8
aa(lp2525
I5
aI16
aa(lp2526
I11
aI8
aa(lp2527
I11
aI16
aa(lp2528
I17
aI8
aa(lp2529
I17
aI16
aaI48
aa(lp2530
I1
a(lp2531
I-1
aI9
aa(lp2532
I-1
aI17
aa(lp2533
I5
aI9
aa(lp2534
I5
aI17
aa(lp2535
I11
aI9
aa(lp2536
I11
aI17
aa(lp2537
I17
aI9
aa(lp2538
I17
aI17
aaI48
aa(lp2539
I1
a(lp2540
I1
aI6
aa(lp2541
I1
aI15
aa(lp2542
I5
aI6
aa(lp2543
I5
aI15
aa(lp2544
I9
aI6
aa(lp2545
I9
aI15
aa(lp2546
I13
aI6
aa(lp2547
I13
aI15
aaI36
aa(lp2548
I1
a(lp2549
I1
aI7
aa(lp2550
I1
aI16
aa(lp2551
I5
aI7
aa(lp2552
I5
aI16
aa(lp2553
I9
aI7
aa(lp2554
I9
aI16
aa(lp2555
I13
aI7
aa(lp2556
I13
aI16
aaI36
aa(lp2557
I1
a(lp2558
I1
aI8
aa(lp2559
I1
aI17
aa(lp2560
I5
aI8
aa(lp2561
I5
aI17
aa(lp2562
I9
aI8
aa(lp2563
I9
aI17
aa(lp2564
I13
aI8
aa(lp2565
I13
aI17
aaI36
aa(lp2566
I1
a(lp2567
I1
aI9
aa(lp2568
I1
aI18
aa(lp2569
I5
aI9
aa(lp2570
I5
aI18
aa(lp2571
I9
aI9
aa(lp2572
I9
aI18
aa(lp2573
I13
aI9
aa(lp2574
I13
aI18
aaI36
aa(lp2575
I1
a(lp2576
I2
aI6
aa(lp2577
I2
aI15
aa(lp2578
I6
aI6
aa(lp2579
I6
aI15
aa(lp2580
I10
aI6
aa(lp2581
I10
aI15
aa(lp2582
I14
aI6
aa(lp2583
I14
aI15
aaI36
aa(lp2584
I1
a(lp2585
I2
aI7
aa(lp2586
I2
aI16
aa(lp2587
I6
aI7
aa(lp2588
I6
aI16
aa(lp2589
I10
aI7
aa(lp2590
I10
aI16
aa(lp2591
I14
aI7
aa(lp2592
I14
aI16
aaI36
aa(lp2593
I1
a(lp2594
I2
aI8
aa(lp2595
I2
aI17
aa(lp2596
I6
aI8
aa(lp2597
I6
aI17
aa(lp2598
I10
aI8
aa(lp2599
I10
aI17
aa(lp2600
I14
aI8
aa(lp2601
I14
aI17
aaI36
aa(lp2602
I1
a(lp2603
I2
aI9
aa(lp2604
I2
aI18
aa(lp2605
I6
aI9
aa(lp2606
I6
aI18
aa(lp2607
I10
aI9
aa(lp2608
I10
aI18
aa(lp2609
I14
aI9
aa(lp2610
I14
aI18
aaI36
aa(lp2611
I1
a(lp2612
I0
aI5
aa(lp2613
I0
aI14
aa(lp2614
I5
aI5
aa(lp2615
I5
aI14
aa(lp2616
I10
aI5
aa(lp2617
I10
aI14
aa(lp2618
I15
aI5
aa(lp2619
I15
aI14
aaI45
aa(lp2620
I1
a(lp2621
I0
aI6
aa(lp2622
I0
aI15
aa(lp2623
I5
aI6
aa(lp2624
I5
aI15
aa(lp2625
I10
aI6
aa(lp2626
I10
aI15
aa(lp2627
I15
aI6
aa(lp2628
I15
aI15
aaI45
aa(lp2629
I1
a(lp2630
I0
aI7
aa(lp2631
I0
aI16
aa(lp2632
I5
aI7
aa(lp2633
I5
aI16
aa(lp2634
I10
aI7
aa(lp2635
I10
aI16
aa(lp2636
I15
aI7
aa(lp2637
I15
aI16
aaI45
aa(lp2638
I1
a(lp2639
I0
aI8
aa(lp2640
I0
aI17
aa(lp2641
I5
aI8
aa(lp2642
I5
aI17
aa(lp2643
I10
aI8
aa(lp2644
I10
aI17
aa(lp2645
I15
aI8
aa(lp2646
I15
aI17
aaI45
aa(lp2647
I1
a(lp2648
I0
aI9
aa(lp2649
I0
aI18
aa(lp2650
I5
aI9
aa(lp2651
I5
aI18
aa(lp2652
I10
aI9
aa(lp2653
I10
aI18
aa(lp2654
I15
aI9
aa(lp2655
I15
aI18
aaI45
aa(lp2656
I1
a(lp2657
I-1
aI8
aa(lp2658
I-1
aI17
aa(lp2659
I5
aI8
aa(lp2660
I5
aI17
aa(lp2661
I11
aI8
aa(lp2662
I11
aI17
aa(lp2663
I17
aI8
aa(lp2664
I17
aI17
aaI54
aa(lp2665
I1
a(lp2666
I-1
aI9
aa(lp2667
I-1
aI18
aa(lp2668
I5
aI9
aa(lp2669
I5
aI18
aa(lp2670
I11
aI9
aa(lp2671
I11
aI18
aa(lp2672
I17
aI9
aa(lp2673
I17
aI18
aaI54
aa(lp2674
I1
a(lp2675
I1
aI7
aa(lp2676
I1
aI17
aa(lp2677
I5
aI7
aa(lp2678
I5
aI17
aa(lp2679
I9
aI7
aa(lp2680
I9
aI17
aa(lp2681
I13
aI7
aa(lp2682
I13
aI17
aaI40
aa(lp2683
I1
a(lp2684
I1
aI8
aa(lp2685
I1
aI18
aa(lp2686
I5
aI8
aa(lp2687
I5
aI18
aa(lp2688
I9
aI8
aa(lp2689
I9
aI18
aa(lp2690
I13
aI8
aa(lp2691
I13
aI18
aaI40
aa(lp2692
I1
a(lp2693
I2
aI7
aa(lp2694
I2
aI17
aa(lp2695
I6
aI7
aa(lp2696
I6
aI17
aa(lp2697
I10
aI7
aa(lp2698
I10
aI17
aa(lp2699
I14
aI7
aa(lp2700
I14
aI17
aaI40
aa(lp2701
I1
a(lp2702
I2
aI8
aa(lp2703
I2
aI18
aa(lp2704
I6
aI8
aa(lp2705
I6
aI18
aa(lp2706
I10
aI8
aa(lp2707
I10
aI18
aa(lp2708
I14
aI8
aa(lp2709
I14
aI18
aaI40
aa(lp2710
I1
a(lp2711
I0
aI3
aa(lp2712
I0
aI13
aa(lp2713
I5
aI3
aa(lp2714
I5
aI13
aa(lp2715
I10
aI3
aa(lp2716
I10
aI13
aa(lp2717
I15
aI3
aa(lp2718
I15
aI13
aaI50
aa(lp2719
I1
a(lp2720
I0
aI4
aa(lp2721
I0
aI14
aa(lp2722
I5
aI4
aa(lp2723
I5
aI14
aa(lp2724
I10
aI4
aa(lp2725
I10
aI14
aa(lp2726
I15
aI4
aa(lp2727
I15
aI14
aaI50
aa(lp2728
I1
a(lp2729
I0
aI5
aa(lp2730
I0
aI15
aa(lp2731
I5
aI5
aa(lp2732
I5
aI15
aa(lp2733
I10
aI5
aa(lp2734
I10
aI15
aa(lp2735
I15
aI5
aa(lp2736
I15
aI15
aaI50
aa(lp2737
I1
a(lp2738
I0
aI6
aa(lp2739
I0
aI16
aa(lp2740
I5
aI6
aa(lp2741
I5
aI16
aa(lp2742
I10
aI6
aa(lp2743
I10
aI16
aa(lp2744
I15
aI6
aa(lp2745
I15
aI16
aaI50
aa(lp2746
I1
a(lp2747
I0
aI7
aa(lp2748
I0
aI17
aa(lp2749
I5
aI7
aa(lp2750
I5
aI17
aa(lp2751
I10
aI7
aa(lp2752
I10
aI17
aa(lp2753
I15
aI7
aa(lp2754
I15
aI17
aaI50
aa(lp2755
I1
a(lp2756
I0
aI8
aa(lp2757
I0
aI18
aa(lp2758
I5
aI8
aa(lp2759
I5
aI18
aa(lp2760
I10
aI8
aa(lp2761
I10
aI18
aa(lp2762
I15
aI8
aa(lp2763
I15
aI18
aaI50
aa(lp2764
I1
a(lp2765
I-1
aI8
aa(lp2766
I-1
aI18
aa(lp2767
I5
aI8
aa(lp2768
I5
aI18
aa(lp2769
I11
aI8
aa(lp2770
I11
aI18
aa(lp2771
I17
aI8
aa(lp2772
I17
aI18
aaI60
aa(lp2773
I1
a(lp2774
I1
aI7
aa(lp2775
I1
aI18
aa(lp2776
I5
aI7
aa(lp2777
I5
aI18
aa(lp2778
I9
aI7
aa(lp2779
I9
aI18
aa(lp2780
I13
aI7
aa(lp2781
I13
aI18
aaI44
aa(lp2782
I1
a(lp2783
I2
aI7
aa(lp2784
I2
aI18
aa(lp2785
I6
aI7
aa(lp2786
I6
aI18
aa(lp2787
I10
aI7
aa(lp2788
I10
aI18
aa(lp2789
I14
aI7
aa(lp2790
I14
aI18
aaI44
aa(lp2791
I1
a(lp2792
I0
aI3
aa(lp2793
I0
aI14
aa(lp2794
I5
aI3
aa(lp2795
I5
aI14
aa(lp2796
I10
aI3
aa(lp2797
I10
aI14
aa(lp2798
I15
aI3
aa(lp2799
I15
aI14
aaI55
aa(lp2800
I1
a(lp2801
I0
aI4
aa(lp2802
I0
aI15
aa(lp2803
I5
aI4
aa(lp2804
I5
aI15
aa(lp2805
I10
aI4
aa(lp2806
I10
aI15
aa(lp2807
I15
aI4
aa(lp2808
I15
aI15
aaI55
aa(lp2809
I1
a(lp2810
I0
aI5
aa(lp2811
I0
aI16
aa(lp2812
I5
aI5
aa(lp2813
I5
aI16
aa(lp2814
I10
aI5
aa(lp2815
I10
aI16
aa(lp2816
I15
aI5
aa(lp2817
I15
aI16
aaI55
aa(lp2818
I1
a(lp2819
I0
aI6
aa(lp2820
I0
aI17
aa(lp2821
I5
aI6
aa(lp2822
I5
aI17
aa(lp2823
I10
aI6
aa(lp2824
I10
aI17
aa(lp2825
I15
aI6
aa(lp2826
I15
aI17
aaI55
aa(lp2827
I1
a(lp2828
I0
aI7
aa(lp2829
I0
aI18
aa(lp2830
I5
aI7
aa(lp2831
I5
aI18
aa(lp2832
I10
aI7
aa(lp2833
I10
aI18
aa(lp2834
I15
aI7
aa(lp2835
I15
aI18
aaI55
aa(lp2836
I1
a(lp2837
I0
aI3
aa(lp2838
I0
aI15
aa(lp2839
I5
aI3
aa(lp2840
I5
aI15
aa(lp2841
I10
aI3
aa(lp2842
I10
aI15
aa(lp2843
I15
aI3
aa(lp2844
I15
aI15
aaI60
aa(lp2845
I1
a(lp2846
I0
aI5
aa(lp2847
I0
aI17
aa(lp2848
I5
aI5
aa(lp2849
I5
aI17
aa(lp2850
I10
aI5
aa(lp2851
I10
aI17
aa(lp2852
I15
aI5
aa(lp2853
I15
aI17
aaI60
aa(lp2854
I1
a(lp2855
I0
aI6
aa(lp2856
I0
aI18
aa(lp2857
I5
aI6
aa(lp2858
I5
aI18
aa(lp2859
I10
aI6
aa(lp2860
I10
aI18
aa(lp2861
I15
aI6
aa(lp2862
I15
aI18
aaI60
aa(lp2863
I-1
a(lp2864
I7
aI8
aa(lp2865
I7
aI9
aa(lp2866
I10
aI8
aa(lp2867
I10
aI9
aa(lp2868
I13
aI8
aa(lp2869
I13
aI9
aa(lp2870
I16
aI8
aa(lp2871
I16
aI9
aaI3
aa(lp2872
I-1
a(lp2873
I7
aI9
aa(lp2874
I7
aI10
aa(lp2875
I10
aI9
aa(lp2876
I10
aI10
aa(lp2877
I13
aI9
aa(lp2878
I13
aI10
aa(lp2879
I16
aI9
aa(lp2880
I16
aI10
aaI3
aa(lp2881
I-1
a(lp2882
I8
aI8
aa(lp2883
I8
aI9
aa(lp2884
I11
aI8
aa(lp2885
I11
aI9
aa(lp2886
I14
aI8
aa(lp2887
I14
aI9
aa(lp2888
I17
aI8
aa(lp2889
I17
aI9
aaI3
aa(lp2890
I-1
a(lp2891
I8
aI9
aa(lp2892
I8
aI10
aa(lp2893
I11
aI9
aa(lp2894
I11
aI10
aa(lp2895
I14
aI9
aa(lp2896
I14
aI10
aa(lp2897
I17
aI9
aa(lp2898
I17
aI10
aaI3
aa(lp2899
I-1
a(lp2900
I9
aI4
aa(lp2901
I9
aI5
aa(lp2902
I12
aI4
aa(lp2903
I12
aI5
aa(lp2904
I15
aI4
aa(lp2905
I15
aI5
aa(lp2906
I18
aI4
aa(lp2907
I18
aI5
aaI3
aa(lp2908
I-1
a(lp2909
I9
aI5
aa(lp2910
I9
aI6
aa(lp2911
I12
aI5
aa(lp2912
I12
aI6
aa(lp2913
I15
aI5
aa(lp2914
I15
aI6
aa(lp2915
I18
aI5
aa(lp2916
I18
aI6
aaI3
aa(lp2917
I-1
a(lp2918
I5
aI8
aa(lp2919
I5
aI9
aa(lp2920
I9
aI8
aa(lp2921
I9
aI9
aa(lp2922
I13
aI8
aa(lp2923
I13
aI9
aa(lp2924
I17
aI8
aa(lp2925
I17
aI9
aaI4
aa(lp2926
I-1
a(lp2927
I5
aI9
aa(lp2928
I5
aI10
aa(lp2929
I9
aI9
aa(lp2930
I9
aI10
aa(lp2931
I13
aI9
aa(lp2932
I13
aI10
aa(lp2933
I17
aI9
aa(lp2934
I17
aI10
aaI4
aa(lp2935
I-1
a(lp2936
I6
aI7
aa(lp2937
I6
aI8
aa(lp2938
I10
aI7
aa(lp2939
I10
aI8
aa(lp2940
I14
aI7
aa(lp2941
I14
aI8
aa(lp2942
I18
aI7
aa(lp2943
I18
aI8
aaI4
aa(lp2944
I-1
a(lp2945
I6
aI8
aa(lp2946
I6
aI9
aa(lp2947
I10
aI8
aa(lp2948
I10
aI9
aa(lp2949
I14
aI8
aa(lp2950
I14
aI9
aa(lp2951
I18
aI8
aa(lp2952
I18
aI9
aaI4
aa(lp2953
I-1
a(lp2954
I6
aI9
aa(lp2955
I6
aI10
aa(lp2956
I10
aI9
aa(lp2957
I10
aI10
aa(lp2958
I14
aI9
aa(lp2959
I14
aI10
aa(lp2960
I18
aI9
aa(lp2961
I18
aI10
aaI4
aa(lp2962
I-1
a(lp2963
I6
aI10
aa(lp2964
I6
aI11
aa(lp2965
I10
aI10
aa(lp2966
I10
aI11
aa(lp2967
I14
aI10
aa(lp2968
I14
aI11
aa(lp2969
I18
aI10
aa(lp2970
I18
aI11
aaI4
aa(lp2971
I-1
a(lp2972
I-1
aI3
aa(lp2973
I-1
aI5
aa(lp2974
I2
aI3
aa(lp2975
I2
aI5
aa(lp2976
I5
aI3
aa(lp2977
I5
aI5
aa(lp2978
I8
aI3
aa(lp2979
I8
aI5
aaI6
aa(lp2980
I-1
a(lp2981
I7
aI8
aa(lp2982
I7
aI10
aa(lp2983
I10
aI8
aa(lp2984
I10
aI10
aa(lp2985
I13
aI8
aa(lp2986
I13
aI10
aa(lp2987
I16
aI8
aa(lp2988
I16
aI10
aaI6
aa(lp2989
I-1
a(lp2990
I8
aI7
aa(lp2991
I8
aI9
aa(lp2992
I11
aI7
aa(lp2993
I11
aI9
aa(lp2994
I14
aI7
aa(lp2995
I14
aI9
aa(lp2996
I17
aI7
aa(lp2997
I17
aI9
aaI6
aa(lp2998
I-1
a(lp2999
I8
aI8
aa(lp3000
I8
aI10
aa(lp3001
I11
aI8
aa(lp3002
I11
aI10
aa(lp3003
I14
aI8
aa(lp3004
I14
aI10
aa(lp3005
I17
aI8
aa(lp3006
I17
aI10
aaI6
aa(lp3007
I-1
a(lp3008
I8
aI9
aa(lp3009
I8
aI11
aa(lp3010
I11
aI9
aa(lp3011
I11
aI11
aa(lp3012
I14
aI9
aa(lp3013
I14
aI11
aa(lp3014
I17
aI9
aa(lp3015
I17
aI11
aaI6
aa(lp3016
I-1
a(lp3017
I9
aI3
aa(lp3018
I9
aI5
aa(lp3019
I12
aI3
aa(lp3020
I12
aI5
aa(lp3021
I15
aI3
aa(lp3022
I15
aI5
aa(lp3023
I18
aI3
aa(lp3024
I18
aI5
aaI6
aa(lp3025
I-1
a(lp3026
I9
aI4
aa(lp3027
I9
aI6
aa(lp3028
I12
aI4
aa(lp3029
I12
aI6
aa(lp3030
I15
aI4
aa(lp3031
I15
aI6
aa(lp3032
I18
aI4
aa(lp3033
I18
aI6
aaI6
aa(lp3034
I-1
a(lp3035
I9
aI12
aa(lp3036
I9
aI14
aa(lp3037
I12
aI12
aa(lp3038
I12
aI14
aa(lp3039
I15
aI12
aa(lp3040
I15
aI14
aa(lp3041
I18
aI12
aa(lp3042
I18
aI14
aaI6
aa(lp3043
I-1
a(lp3044
I5
aI8
aa(lp3045
I5
aI10
aa(lp3046
I9
aI8
aa(lp3047
I9
aI10
aa(lp3048
I13
aI8
aa(lp3049
I13
aI10
aa(lp3050
I17
aI8
aa(lp3051
I17
aI10
aaI8
aa(lp3052
I-1
a(lp3053
I6
aI6
aa(lp3054
I6
aI8
aa(lp3055
I10
aI6
aa(lp3056
I10
aI8
aa(lp3057
I14
aI6
aa(lp3058
I14
aI8
aa(lp3059
I18
aI6
aa(lp3060
I18
aI8
aaI8
aa(lp3061
I-1
a(lp3062
I6
aI7
aa(lp3063
I6
aI9
aa(lp3064
I10
aI7
aa(lp3065
I10
aI9
aa(lp3066
I14
aI7
aa(lp3067
I14
aI9
aa(lp3068
I18
aI7
aa(lp3069
I18
aI9
aaI8
aa(lp3070
I-1
a(lp3071
I6
aI8
aa(lp3072
I6
aI10
aa(lp3073
I10
aI8
aa(lp3074
I10
aI10
aa(lp3075
I14
aI8
aa(lp3076
I14
aI10
aa(lp3077
I18
aI8
aa(lp3078
I18
aI10
aaI8
aa(lp3079
I-1
a(lp3080
I6
aI9
aa(lp3081
I6
aI11
aa(lp3082
I10
aI9
aa(lp3083
I10
aI11
aa(lp3084
I14
aI9
aa(lp3085
I14
aI11
aa(lp3086
I18
aI9
aa(lp3087
I18
aI11
aaI8
aa(lp3088
I-1
a(lp3089
I6
aI10
aa(lp3090
I6
aI12
aa(lp3091
I10
aI10
aa(lp3092
I10
aI12
aa(lp3093
I14
aI10
aa(lp3094
I14
aI12
aa(lp3095
I18
aI10
aa(lp3096
I18
aI12
aaI8
aa(lp3097
I-1
a(lp3098
I8
aI7
aa(lp3099
I8
aI10
aa(lp3100
I11
aI7
aa(lp3101
I11
aI10
aa(lp3102
I14
aI7
aa(lp3103
I14
aI10
aa(lp3104
I17
aI7
aa(lp3105
I17
aI10
aaI9
aa(lp3106
I-1
a(lp3107
I8
aI8
aa(lp3108
I8
aI11
aa(lp3109
I11
aI8
aa(lp3110
I11
aI11
aa(lp3111
I14
aI8
aa(lp3112
I14
aI11
aa(lp3113
I17
aI8
aa(lp3114
I17
aI11
aaI9
aa(lp3115
I-1
a(lp3116
I9
aI3
aa(lp3117
I9
aI6
aa(lp3118
I12
aI3
aa(lp3119
I12
aI6
aa(lp3120
I15
aI3
aa(lp3121
I15
aI6
aa(lp3122
I18
aI3
aa(lp3123
I18
aI6
aaI9
aa(lp3124
I-1
a(lp3125
I9
aI4
aa(lp3126
I9
aI7
aa(lp3127
I12
aI4
aa(lp3128
I12
aI7
aa(lp3129
I15
aI4
aa(lp3130
I15
aI7
aa(lp3131
I18
aI4
aa(lp3132
I18
aI7
aaI9
aa(lp3133
I-1
a(lp3134
I9
aI11
aa(lp3135
I9
aI14
aa(lp3136
I12
aI11
aa(lp3137
I12
aI14
aa(lp3138
I15
aI11
aa(lp3139
I15
aI14
aa(lp3140
I18
aI11
aa(lp3141
I18
aI14
aaI9
aa(lp3142
I-1
a(lp3143
I6
aI6
aa(lp3144
I6
aI9
aa(lp3145
I10
aI6
aa(lp3146
I10
aI9
aa(lp3147
I14
aI6
aa(lp3148
I14
aI9
aa(lp3149
I18
aI6
aa(lp3150
I18
aI9
aaI12
aa(lp3151
I-1
a(lp3152
I6
aI7
aa(lp3153
I6
aI10
aa(lp3154
I10
aI7
aa(lp3155
I10
aI10
aa(lp3156
I14
aI7
aa(lp3157
I14
aI10
aa(lp3158
I18
aI7
aa(lp3159
I18
aI10
aaI12
aa(lp3160
I-1
a(lp3161
I6
aI8
aa(lp3162
I6
aI11
aa(lp3163
I10
aI8
aa(lp3164
I10
aI11
aa(lp3165
I14
aI8
aa(lp3166
I14
aI11
aa(lp3167
I18
aI8
aa(lp3168
I18
aI11
aaI12
aa(lp3169
I-1
a(lp3170
I6
aI9
aa(lp3171
I6
aI12
aa(lp3172
I10
aI9
aa(lp3173
I10
aI12
aa(lp3174
I14
aI9
aa(lp3175
I14
aI12
aa(lp3176
I18
aI9
aa(lp3177
I18
aI12
aaI12
aa(lp3178
I-1
a(lp3179
I8
aI8
aa(lp3180
I8
aI12
aa(lp3181
I11
aI8
aa(lp3182
I11
aI12
aa(lp3183
I14
aI8
aa(lp3184
I14
aI12
aa(lp3185
I17
aI8
aa(lp3186
I17
aI12
aaI12
aa(lp3187
I-1
a(lp3188
I9
aI2
aa(lp3189
I9
aI6
aa(lp3190
I12
aI2
aa(lp3191
I12
aI6
aa(lp3192
I15
aI2
aa(lp3193
I15
aI6
aa(lp3194
I18
aI2
aa(lp3195
I18
aI6
aaI12
aa(lp3196
I-1
a(lp3197
I9
aI3
aa(lp3198
I9
aI7
aa(lp3199
I12
aI3
aa(lp3200
I12
aI7
aa(lp3201
I15
aI3
aa(lp3202
I15
aI7
aa(lp3203
I18
aI3
aa(lp3204
I18
aI7
aaI12
aa(lp3205
I-1
a(lp3206
I9
aI4
aa(lp3207
I9
aI8
aa(lp3208
I12
aI4
aa(lp3209
I12
aI8
aa(lp3210
I15
aI4
aa(lp3211
I15
aI8
aa(lp3212
I18
aI4
aa(lp3213
I18
aI8
aaI12
aa(lp3214
I-1
a(lp3215
I9
aI10
aa(lp3216
I9
aI14
aa(lp3217
I12
aI10
aa(lp3218
I12
aI14
aa(lp3219
I15
aI10
aa(lp3220
I15
aI14
aa(lp3221
I18
aI10
aa(lp3222
I18
aI14
aaI12
aa(lp3223
I-1
a(lp3224
I6
aI5
aa(lp3225
I6
aI9
aa(lp3226
I10
aI5
aa(lp3227
I10
aI9
aa(lp3228
I14
aI5
aa(lp3229
I14
aI9
aa(lp3230
I18
aI5
aa(lp3231
I18
aI9
aaI16
aa(lp3232
I-1
a(lp3233
I6
aI6
aa(lp3234
I6
aI10
aa(lp3235
I10
aI6
aa(lp3236
I10
aI10
aa(lp3237
I14
aI6
aa(lp3238
I14
aI10
aa(lp3239
I18
aI6
aa(lp3240
I18
aI10
aaI16
aa(lp3241
I-1
a(lp3242
I6
aI7
aa(lp3243
I6
aI11
aa(lp3244
I10
aI7
aa(lp3245
I10
aI11
aa(lp3246
I14
aI7
aa(lp3247
I14
aI11
aa(lp3248
I18
aI7
aa(lp3249
I18
aI11
aaI16
aa(lp3250
I-1
a(lp3251
I6
aI8
aa(lp3252
I6
aI12
aa(lp3253
I10
aI8
aa(lp3254
I10
aI12
aa(lp3255
I14
aI8
aa(lp3256
I14
aI12
aa(lp3257
I18
aI8
aa(lp3258
I18
aI12
aaI16
aa(lp3259
I-1
a(lp3260
I6
aI9
aa(lp3261
I6
aI13
aa(lp3262
I10
aI9
aa(lp3263
I10
aI13
aa(lp3264
I14
aI9
aa(lp3265
I14
aI13
aa(lp3266
I18
aI9
aa(lp3267
I18
aI13
aaI16
aa(lp3268
I-1
a(lp3269
I9
aI2
aa(lp3270
I9
aI7
aa(lp3271
I12
aI2
aa(lp3272
I12
aI7
aa(lp3273
I15
aI2
aa(lp3274
I15
aI7
aa(lp3275
I18
aI2
aa(lp3276
I18
aI7
aaI15
aa(lp3277
I-1
a(lp3278
I9
aI3
aa(lp3279
I9
aI8
aa(lp3280
I12
aI3
aa(lp3281
I12
aI8
aa(lp3282
I15
aI3
aa(lp3283
I15
aI8
aa(lp3284
I18
aI3
aa(lp3285
I18
aI8
aaI15
aa(lp3286
I-1
a(lp3287
I6
aI4
aa(lp3288
I6
aI9
aa(lp3289
I10
aI4
aa(lp3290
I10
aI9
aa(lp3291
I14
aI4
aa(lp3292
I14
aI9
aa(lp3293
I18
aI4
aa(lp3294
I18
aI9
aaI20
aa(lp3295
I-1
a(lp3296
I6
aI5
aa(lp3297
I6
aI10
aa(lp3298
I10
aI5
aa(lp3299
I10
aI10
aa(lp3300
I14
aI5
aa(lp3301
I14
aI10
aa(lp3302
I18
aI5
aa(lp3303
I18
aI10
aaI20
aa(lp3304
I-1
a(lp3305
I6
aI6
aa(lp3306
I6
aI11
aa(lp3307
I10
aI6
aa(lp3308
I10
aI11
aa(lp3309
I14
aI6
aa(lp3310
I14
aI11
aa(lp3311
I18
aI6
aa(lp3312
I18
aI11
aaI20
aa(lp3313
I-1
a(lp3314
I6
aI7
aa(lp3315
I6
aI12
aa(lp3316
I10
aI7
aa(lp3317
I10
aI12
aa(lp3318
I14
aI7
aa(lp3319
I14
aI12
aa(lp3320
I18
aI7
aa(lp3321
I18
aI12
aaI20
aa(lp3322
I-1
a(lp3323
I6
aI8
aa(lp3324
I6
aI13
aa(lp3325
I10
aI8
aa(lp3326
I10
aI13
aa(lp3327
I14
aI8
aa(lp3328
I14
aI13
aa(lp3329
I18
aI8
aa(lp3330
I18
aI13
aaI20
aa(lp3331
I-1
a(lp3332
I6
aI9
aa(lp3333
I6
aI14
aa(lp3334
I10
aI9
aa(lp3335
I10
aI14
aa(lp3336
I14
aI9
aa(lp3337
I14
aI14
aa(lp3338
I18
aI9
aa(lp3339
I18
aI14
aaI20
aa(lp3340
I-1
a(lp3341
I6
aI3
aa(lp3342
I6
aI9
aa(lp3343
I10
aI3
aa(lp3344
I10
aI9
aa(lp3345
I14
aI3
aa(lp3346
I14
aI9
aa(lp3347
I18
aI3
aa(lp3348
I18
aI9
aaI24
aa(lp3349
I-1
a(lp3350
I6
aI4
aa(lp3351
I6
aI10
aa(lp3352
I10
aI4
aa(lp3353
I10
aI10
aa(lp3354
I14
aI4
aa(lp3355
I14
aI10
aa(lp3356
I18
aI4
aa(lp3357
I18
aI10
aaI24
aa(lp3358
I-1
a(lp3359
I6
aI5
aa(lp3360
I6
aI11
aa(lp3361
I10
aI5
aa(lp3362
I10
aI11
aa(lp3363
I14
aI5
aa(lp3364
I14
aI11
aa(lp3365
I18
aI5
aa(lp3366
I18
aI11
aaI24
aa(lp3367
I-1
a(lp3368
I6
aI6
aa(lp3369
I6
aI12
aa(lp3370
I10
aI6
aa(lp3371
I10
aI12
aa(lp3372
I14
aI6
aa(lp3373
I14
aI12
aa(lp3374
I18
aI6
aa(lp3375
I18
aI12
aaI24
aa(lp3376
I-1
a(lp3377
I6
aI7
aa(lp3378
I6
aI13
aa(lp3379
I10
aI7
aa(lp3380
I10
aI13
aa(lp3381
I14
aI7
aa(lp3382
I14
aI13
aa(lp3383
I18
aI7
aa(lp3384
I18
aI13
aaI24
aa(lp3385
I-1
a(lp3386
I6
aI8
aa(lp3387
I6
aI14
aa(lp3388
I10
aI8
aa(lp3389
I10
aI14
aa(lp3390
I14
aI8
aa(lp3391
I14
aI14
aa(lp3392
I18
aI8
aa(lp3393
I18
aI14
aaI24
aa(lp3394
I-1
a(lp3395
I6
aI2
aa(lp3396
I6
aI9
aa(lp3397
I10
aI2
aa(lp3398
I10
aI9
aa(lp3399
I14
aI2
aa(lp3400
I14
aI9
aa(lp3401
I18
aI2
aa(lp3402
I18
aI9
aaI28
aa(lp3403
I-1
a(lp3404
I6
aI3
aa(lp3405
I6
aI10
aa(lp3406
I10
aI3
aa(lp3407
I10
aI10
aa(lp3408
I14
aI3
aa(lp3409
I14
aI10
aa(lp3410
I18
aI3
aa(lp3411
I18
aI10
aaI28
aa(lp3412
I-1
a(lp3413
I6
aI4
aa(lp3414
I6
aI11
aa(lp3415
I10
aI4
aa(lp3416
I10
aI11
aa(lp3417
I14
aI4
aa(lp3418
I14
aI11
aa(lp3419
I18
aI4
aa(lp3420
I18
aI11
aaI28
aa(lp3421
I-1
a(lp3422
I6
aI5
aa(lp3423
I6
aI12
aa(lp3424
I10
aI5
aa(lp3425
I10
aI12
aa(lp3426
I14
aI5
aa(lp3427
I14
aI12
aa(lp3428
I18
aI5
aa(lp3429
I18
aI12
aaI28
aa(lp3430
I-1
a(lp3431
I6
aI6
aa(lp3432
I6
aI13
aa(lp3433
I10
aI6
aa(lp3434
I10
aI13
aa(lp3435
I14
aI6
aa(lp3436
I14
aI13
aa(lp3437
I18
aI6
aa(lp3438
I18
aI13
aaI28
aa(lp3439
I-1
a(lp3440
I6
aI7
aa(lp3441
I6
aI14
aa(lp3442
I10
aI7
aa(lp3443
I10
aI14
aa(lp3444
I14
aI7
aa(lp3445
I14
aI14
aa(lp3446
I18
aI7
aa(lp3447
I18
aI14
aaI28
aa(lp3448
I-1
a(lp3449
I6
aI8
aa(lp3450
I6
aI15
aa(lp3451
I10
aI8
aa(lp3452
I10
aI15
aa(lp3453
I14
aI8
aa(lp3454
I14
aI15
aa(lp3455
I18
aI8
aa(lp3456
I18
aI15
aaI28
aa(lp3457
I-1
a(lp3458
I6
aI2
aa(lp3459
I6
aI10
aa(lp3460
I10
aI2
aa(lp3461
I10
aI10
aa(lp3462
I14
aI2
aa(lp3463
I14
aI10
aa(lp3464
I18
aI2
aa(lp3465
I18
aI10
aaI32
aa(lp3466
I-1
a(lp3467
I6
aI3
aa(lp3468
I6
aI11
aa(lp3469
I10
aI3
aa(lp3470
I10
aI11
aa(lp3471
I14
aI3
aa(lp3472
I14
aI11
aa(lp3473
I18
aI3
aa(lp3474
I18
aI11
aaI32
aa(lp3475
I-1
a(lp3476
I6
aI4
aa(lp3477
I6
aI12
aa(lp3478
I10
aI4
aa(lp3479
I10
aI12
aa(lp3480
I14
aI4
aa(lp3481
I14
aI12
aa(lp3482
I18
aI4
aa(lp3483
I18
aI12
aaI32
aa(lp3484
I-1
a(lp3485
I6
aI5
aa(lp3486
I6
aI13
aa(lp3487
I10
aI5
aa(lp3488
I10
aI13
aa(lp3489
I14
aI5
aa(lp3490
I14
aI13
aa(lp3491
I18
aI5
aa(lp3492
I18
aI13
aaI32
aa(lp3493
I-1
a(lp3494
I6
aI6
aa(lp3495
I6
aI14
aa(lp3496
I10
aI6
aa(lp3497
I10
aI14
aa(lp3498
I14
aI6
aa(lp3499
I14
aI14
aa(lp3500
I18
aI6
aa(lp3501
I18
aI14
aaI32
aa(lp3502
I-1
a(lp3503
I6
aI7
aa(lp3504
I6
aI15
aa(lp3505
I10
aI7
aa(lp3506
I10
aI15
aa(lp3507
I14
aI7
aa(lp3508
I14
aI15
aa(lp3509
I18
aI7
aa(lp3510
I18
aI15
aaI32
aa(lp3511
I-1
a(lp3512
I6
aI1
aa(lp3513
I6
aI10
aa(lp3514
I10
aI1
aa(lp3515
I10
aI10
aa(lp3516
I14
aI1
aa(lp3517
I14
aI10
aa(lp3518
I18
aI1
aa(lp3519
I18
aI10
aaI36
aa(lp3520
I-1
a(lp3521
I6
aI2
aa(lp3522
I6
aI11
aa(lp3523
I10
aI2
aa(lp3524
I10
aI11
aa(lp3525
I14
aI2
aa(lp3526
I14
aI11
aa(lp3527
I18
aI2
aa(lp3528
I18
aI11
aaI36
aa(lp3529
I-1
a(lp3530
I6
aI3
aa(lp3531
I6
aI12
aa(lp3532
I10
aI3
aa(lp3533
I10
aI12
aa(lp3534
I14
aI3
aa(lp3535
I14
aI12
aa(lp3536
I18
aI3
aa(lp3537
I18
aI12
aaI36
aa(lp3538
I-1
a(lp3539
I6
aI4
aa(lp3540
I6
aI13
aa(lp3541
I10
aI4
aa(lp3542
I10
aI13
aa(lp3543
I14
aI4
aa(lp3544
I14
aI13
aa(lp3545
I18
aI4
aa(lp3546
I18
aI13
aaI36
aa(lp3547
I-1
a(lp3548
I6
aI5
aa(lp3549
I6
aI14
aa(lp3550
I10
aI5
aa(lp3551
I10
aI14
aa(lp3552
I14
aI5
aa(lp3553
I14
aI14
aa(lp3554
I18
aI5
aa(lp3555
I18
aI14
aaI36
aa(lp3556
I-1
a(lp3557
I6
aI6
aa(lp3558
I6
aI15
aa(lp3559
I10
aI6
aa(lp3560
I10
aI15
aa(lp3561
I14
aI6
aa(lp3562
I14
aI15
aa(lp3563
I18
aI6
aa(lp3564
I18
aI15
aaI36
aa(lp3565
I-1
a(lp3566
I6
aI7
aa(lp3567
I6
aI16
aa(lp3568
I10
aI7
aa(lp3569
I10
aI16
aa(lp3570
I14
aI7
aa(lp3571
I14
aI16
aa(lp3572
I18
aI7
aa(lp3573
I18
aI16
aaI36
aa(lp3574
I-1
a(lp3575
I6
aI1
aa(lp3576
I6
aI11
aa(lp3577
I10
aI1
aa(lp3578
I10
aI11
aa(lp3579
I14
aI1
aa(lp3580
I14
aI11
aa(lp3581
I18
aI1
aa(lp3582
I18
aI11
aaI40
aa(lp3583
I-1
a(lp3584
I6
aI2
aa(lp3585
I6
aI12
aa(lp3586
I10
aI2
aa(lp3587
I10
aI12
aa(lp3588
I14
aI2
aa(lp3589
I14
aI12
aa(lp3590
I18
aI2
aa(lp3591
I18
aI12
aaI40
aa(lp3592
I-1
a(lp3593
I6
aI3
aa(lp3594
I6
aI13
aa(lp3595
I10
aI3
aa(lp3596
I10
aI13
aa(lp3597
I14
aI3
aa(lp3598
I14
aI13
aa(lp3599
I18
aI3
aa(lp3600
I18
aI13
aaI40
aa(lp3601
I-1
a(lp3602
I6
aI4
aa(lp3603
I6
aI14
aa(lp3604
I10
aI4
aa(lp3605
I10
aI14
aa(lp3606
I14
aI4
aa(lp3607
I14
aI14
aa(lp3608
I18
aI4
aa(lp3609
I18
aI14
aaI40
aa(lp3610
I-1
a(lp3611
I6
aI5
aa(lp3612
I6
aI15
aa(lp3613
I10
aI5
aa(lp3614
I10
aI15
aa(lp3615
I14
aI5
aa(lp3616
I14
aI15
aa(lp3617
I18
aI5
aa(lp3618
I18
aI15
aaI40
aa(lp3619
I-1
a(lp3620
I6
aI1
aa(lp3621
I6
aI12
aa(lp3622
I10
aI1
aa(lp3623
I10
aI12
aa(lp3624
I14
aI1
aa(lp3625
I14
aI12
aa(lp3626
I18
aI1
aa(lp3627
I18
aI12
aaI44
aa(lp3628
I-1
a(lp3629
I6
aI2
aa(lp3630
I6
aI13
aa(lp3631
I10
aI2
aa(lp3632
I10
aI13
aa(lp3633
I14
aI2
aa(lp3634
I14
aI13
aa(lp3635
I18
aI2
aa(lp3636
I18
aI13
aaI44
aa(lp3637
I-1
a(lp3638
I6
aI3
aa(lp3639
I6
aI14
aa(lp3640
I10
aI3
aa(lp3641
I10
aI14
aa(lp3642
I14
aI3
aa(lp3643
I14
aI14
aa(lp3644
I18
aI3
aa(lp3645
I18
aI14
aaI44
aa(lp3646
I-1
a(lp3647
I6
aI4
aa(lp3648
I6
aI15
aa(lp3649
I10
aI4
aa(lp3650
I10
aI15
aa(lp3651
I14
aI4
aa(lp3652
I14
aI15
aa(lp3653
I18
aI4
aa(lp3654
I18
aI15
aaI44
aa(lp3655
I-1
a(lp3656
I6
aI2
aa(lp3657
I6
aI14
aa(lp3658
I10
aI2
aa(lp3659
I10
aI14
aa(lp3660
I14
aI2
aa(lp3661
I14
aI14
aa(lp3662
I18
aI2
aa(lp3663
I18
aI14
aaI48
aa(lp3664
I-1
a(lp3665
I6
aI3
aa(lp3666
I6
aI15
aa(lp3667
I10
aI3
aa(lp3668
I10
aI15
aa(lp3669
I14
aI3
aa(lp3670
I14
aI15
aa(lp3671
I18
aI3
aa(lp3672
I18
aI15
aaI48
aa.