(lp0
(lp1
I1
a(lp2
I3
aI9
aa(lp3
I3
aI10
aa(lp4
I6
aI9
aa(lp5
I6
aI10
aa(lp6
I9
aI9
aa(lp7
I9
aI10
aa(lp8
I12
aI9
aa(lp9
I12
aI10
aaI3
aa(lp10
I1
a(lp11
I1
aI9
aa(lp12
I1
aI10
aa(lp13
I5
aI9
aa(lp14
I5
aI10
aa(lp15
I9
aI9
aa(lp16
I9
aI10
aa(lp17
I13
aI9
aa(lp18
I13
aI10
aaI4
aa(lp19
I1
a(lp20
I2
aI3
aa(lp21
I2
aI4
aa(lp22
I6
aI3
aa(lp23
I6
aI4
aa(lp24
I10
aI3
aa(lp25
I10
aI4
aa(lp26
I14
aI3
aa(lp27
I14
aI4
aaI4
aa(lp28
I1
a(lp29
I2
aI4
aa(lp30
I2
aI5
aa(lp31
I6
aI4
aa(lp32
I6
aI5
aa(lp33
I10
aI4
aa(lp34
I10
aI5
aa(lp35
I14
aI4
aa(lp36
I14
aI5
aaI4
aa(lp37
I1
a(lp38
I2
aI9
aa(lp39
I2
aI10
aa(lp40
I6
aI9
aa(lp41
I6
aI10
aa(lp42
I10
aI9
aa(lp43
I10
aI10
aa(lp44
I14
aI9
aa(lp45
I14
aI10
aaI4
aa(lp46
I1
a(lp47
I2
aI13
aa(lp48
I2
aI14
aa(lp49
I6
aI13
aa(lp50
I6
aI14
aa(lp51
I10
aI13
aa(lp52
I10
aI14
aa(lp53
I14
aI13
aa(lp54
I14
aI14
aaI4
aa(lp55
I1
a(lp56
I-1
aI8
aa(lp57
I-1
aI9
aa(lp58
I4
aI8
aa(lp59
I4
aI9
aa(lp60
I9
aI8
aa(lp61
I9
aI9
aa(lp62
I14
aI8
aa(lp63
I14
aI9
aaI5
aa(lp64
I1
a(lp65
I0
aI8
aa(lp66
I0
aI9
aa(lp67
I5
aI8
aa(lp68
I5
aI9
aa(lp69
I10
aI8
aa(lp70
I10
aI9
aa(lp71
I15
aI8
aa(lp72
I15
aI9
aaI5
aa(lp73
I1
a(lp74
I0
aI9
aa(lp75
I0
aI10
aa(lp76
I5
aI9
aa(lp77
I5
aI10
aa(lp78
I10
aI9
aa(lp79
I10
aI10
aa(lp80
I15
aI9
aa(lp81
I15
aI10
aaI5
aa(lp82
I1
a(lp83
I0
aI13
aa(lp84
I0
aI14
aa(lp85
I5
aI13
aa(lp86
I5
aI14
aa(lp87
I10
aI13
aa(lp88
I10
aI14
aa(lp89
I15
aI13
aa(lp90
I15
aI14
aaI5
aa(lp91
I1
a(lp92
I1
aI8
aa(lp93
I1
aI10
aa(lp94
I5
aI8
aa(lp95
I5
aI10
aa(lp96
I9
aI8
aa(lp97
I9
aI10
aa(lp98
I13
aI8
aa(lp99
I13
aI10
aaI8
aa(lp100
I1
a(lp101
I1
aI9
aa(lp102
I1
aI11
aa(lp103
I5
aI9
aa(lp104
I5
aI11
aa(lp105
I9
aI9
aa(lp106
I9
aI11
aa(lp107
I13
aI9
aa(lp108
I13
aI11
aaI8
aa(lp109
I1
a(lp110
I2
aI3
aa(lp111
I2
aI5
aa(lp112
I6
aI3
aa(lp113
I6
aI5
aa(lp114
I10
aI3
aa(lp115
I10
aI5
aa(lp116
I14
aI3
aa(lp117
I14
aI5
aaI8
aa(lp118
I1
a(lp119
I2
aI12
aa(lp120
I2
aI14
aa(lp121
I6
aI12
aa(lp122
I6
aI14
aa(lp123
I10
aI12
aa(lp124
I10
aI14
aa(lp125
I14
aI12
aa(lp126
I14
aI14
aaI8
aa(lp127
I1
a(lp128
I2
aI13
aa(lp129
I2
aI15
aa(lp130
I6
aI13
aa(lp131
I6
aI15
aa(lp132
I10
aI13
aa(lp133
I10
aI15
aa(lp134
I14
aI13
aa(lp135
I14
aI15
aaI8
aa(lp136
I1
a(lp137
I-1
aI8
aa(lp138
I-1
aI10
aa(lp139
I4
aI8
aa(lp140
I4
aI10
aa(lp141
I9
aI8
aa(lp142
I9
aI10
aa(lp143
I14
aI8
aa(lp144
I14
aI10
aaI10
aa(lp145
I1
a(lp146
I0
aI8
aa(lp147
I0
aI10
aa(lp148
I5
aI8
aa(lp149
I5
aI10
aa(lp150
I10
aI8
aa(lp151
I10
aI10
aa(lp152
I15
aI8
aa(lp153
I15
aI10
aaI10
aa(lp154
I1
a(lp155
I0
aI12
aa(lp156
I0
aI14
aa(lp157
I5
aI12
aa(lp158
I5
aI14
aa(lp159
I10
aI12
aa(lp160
I10
aI14
aa(lp161
I15
aI12
aa(lp162
I15
aI14
aaI10
aa(lp163
I1
a(lp164
I1
aI8
aa(lp165
I1
aI11
aa(lp166
I5
aI8
aa(lp167
I5
aI11
aa(lp168
I9
aI8
aa(lp169
I9
aI11
aa(lp170
I13
aI8
aa(lp171
I13
aI11
aaI12
aa(lp172
I1
a(lp173
I0
aI9
aa(lp174
I0
aI14
aa(lp175
I5
aI9
aa(lp176
I5
aI14
aa(lp177
I10
aI9
aa(lp178
I10
aI14
aa(lp179
I15
aI9
aa(lp180
I15
aI14
aaI25
aa(lp181
I1
a(lp182
I0
aI8
aa(lp183
I0
aI14
aa(lp184
I5
aI8
aa(lp185
I5
aI14
aa(lp186
I10
aI8
aa(lp187
I10
aI14
aa(lp188
I15
aI8
aa(lp189
I15
aI14
aaI30
aa(lp190
I1
a(lp191
I0
aI9
aa(lp192
I0
aI15
aa(lp193
I5
aI9
aa(lp194
I5
aI15
aa(lp195
I10
aI9
aa(lp196
I10
aI15
aa(lp197
I15
aI9
aa(lp198
I15
aI15
aaI30
aa(lp199
I-1
a(lp200
I6
aI8
aa(lp201
I6
aI9
aa(lp202
I10
aI8
aa(lp203
I10
aI9
aa(lp204
I14
aI8
aa(lp205
I14
aI9
aa(lp206
I18
aI8
aa(lp207
I18
aI9
aaI4
aa(lp208
I-1
a(lp209
I6
aI9
aa(lp210
I6
aI10
aa(lp211
I10
aI9
aa(lp212
I10
aI10
aa(lp213
I14
aI9
aa(lp214
I14
aI10
aa(lp215
I18
aI9
aa(lp216
I18
aI10
aaI4
aa(lp217
I-1
a(lp218
I6
aI7
aa(lp219
I6
aI9
aa(lp220
I10
aI7
aa(lp221
I10
aI9
aa(lp222
I14
aI7
aa(lp223
I14
aI9
aa(lp224
I18
aI7
aa(lp225
I18
aI9
aaI8
aa(lp226
I-1
a(lp227
I6
aI8
aa(lp228
I6
aI10
aa(lp229
I10
aI8
aa(lp230
I10
aI10
aa(lp231
I14
aI8
aa(lp232
I14
aI10
aa(lp233
I18
aI8
aa(lp234
I18
aI10
aaI8
aa(lp235
I-1
a(lp236
I6
aI9
aa(lp237
I6
aI11
aa(lp238
I10
aI9
aa(lp239
I10
aI11
aa(lp240
I14
aI9
aa(lp241
I14
aI11
aa(lp242
I18
aI9
aa(lp243
I18
aI11
aaI8
aa(lp244
I-1
a(lp245
I6
aI7
aa(lp246
I6
aI10
aa(lp247
I10
aI7
aa(lp248
I10
aI10
aa(lp249
I14
aI7
aa(lp250
I14
aI10
aa(lp251
I18
aI7
aa(lp252
I18
aI10
aaI12
aa(lp253
I-1
a(lp254
I6
aI8
aa(lp255
I6
aI11
aa(lp256
I10
aI8
aa(lp257
I10
aI11
aa(lp258
I14
aI8
aa(lp259
I14
aI11
aa(lp260
I18
aI8
aa(lp261
I18
aI11
aaI12
aa(lp262
I-1
a(lp263
I6
aI6
aa(lp264
I6
aI10
aa(lp265
I10
aI6
aa(lp266
I10
aI10
aa(lp267
I14
aI6
aa(lp268
I14
aI10
aa(lp269
I18
aI6
aa(lp270
I18
aI10
aaI16
aa(lp271
I-1
a(lp272
I6
aI7
aa(lp273
I6
aI11
aa(lp274
I10
aI7
aa(lp275
I10
aI11
aa(lp276
I14
aI7
aa(lp277
I14
aI11
aa(lp278
I18
aI7
aa(lp279
I18
aI11
aaI16
aa(lp280
I-1
a(lp281
I6
aI8
aa(lp282
I6
aI12
aa(lp283
I10
aI8
aa(lp284
I10
aI12
aa(lp285
I14
aI8
aa(lp286
I14
aI12
aa(lp287
I18
aI8
aa(lp288
I18
aI12
aaI16
aa(lp289
I-1
a(lp290
I6
aI6
aa(lp291
I6
aI11
aa(lp292
I10
aI6
aa(lp293
I10
aI11
aa(lp294
I14
aI6
aa(lp295
I14
aI11
aa(lp296
I18
aI6
aa(lp297
I18
aI11
aaI20
aa(lp298
I-1
a(lp299
I6
aI7
aa(lp300
I6
aI12
aa(lp301
I10
aI7
aa(lp302
I10
aI12
aa(lp303
I14
aI7
aa(lp304
I14
aI12
aa(lp305
I18
aI7
aa(lp306
I18
aI12
aaI20
aa.