(lp0
(lp1
I-1
a(lp2
I7
aI8
aa(lp3
I7
aI9
aa(lp4
I10
aI8
aa(lp5
I10
aI9
aa(lp6
I13
aI8
aa(lp7
I13
aI9
aaI3
aa(lp8
I-1
a(lp9
I5
aI8
aa(lp10
I5
aI9
aa(lp11
I9
aI8
aa(lp12
I9
aI9
aa(lp13
I13
aI8
aa(lp14
I13
aI9
aaI4
aa(lp15
I-1
a(lp16
I5
aI9
aa(lp17
I5
aI10
aa(lp18
I9
aI9
aa(lp19
I9
aI10
aa(lp20
I13
aI9
aa(lp21
I13
aI10
aaI4
aa(lp22
I-1
a(lp23
I6
aI8
aa(lp24
I6
aI9
aa(lp25
I10
aI8
aa(lp26
I10
aI9
aa(lp27
I14
aI8
aa(lp28
I14
aI9
aaI4
aa(lp29
I-1
a(lp30
I6
aI9
aa(lp31
I6
aI10
aa(lp32
I10
aI9
aa(lp33
I10
aI10
aa(lp34
I14
aI9
aa(lp35
I14
aI10
aaI4
aa(lp36
I-1
a(lp37
I4
aI8
aa(lp38
I4
aI9
aa(lp39
I9
aI8
aa(lp40
I9
aI9
aa(lp41
I14
aI8
aa(lp42
I14
aI9
aaI5
aa(lp43
I-1
a(lp44
I4
aI9
aa(lp45
I4
aI10
aa(lp46
I9
aI9
aa(lp47
I9
aI10
aa(lp48
I14
aI9
aa(lp49
I14
aI10
aaI5
aa(lp50
I-1
a(lp51
I5
aI8
aa(lp52
I5
aI9
aa(lp53
I10
aI8
aa(lp54
I10
aI9
aa(lp55
I15
aI8
aa(lp56
I15
aI9
aaI5
aa(lp57
I-1
a(lp58
I5
aI9
aa(lp59
I5
aI10
aa(lp60
I10
aI9
aa(lp61
I10
aI10
aa(lp62
I15
aI9
aa(lp63
I15
aI10
aaI5
aa(lp64
I-1
a(lp65
I2
aI8
aa(lp66
I2
aI9
aa(lp67
I8
aI8
aa(lp68
I8
aI9
aa(lp69
I14
aI8
aa(lp70
I14
aI9
aaI6
aa(lp71
I-1
a(lp72
I3
aI8
aa(lp73
I3
aI9
aa(lp74
I9
aI8
aa(lp75
I9
aI9
aa(lp76
I15
aI8
aa(lp77
I15
aI9
aaI6
aa(lp78
I-1
a(lp79
I3
aI9
aa(lp80
I3
aI10
aa(lp81
I9
aI9
aa(lp82
I9
aI10
aa(lp83
I15
aI9
aa(lp84
I15
aI10
aaI6
aa(lp85
I-1
a(lp86
I4
aI8
aa(lp87
I4
aI9
aa(lp88
I10
aI8
aa(lp89
I10
aI9
aa(lp90
I16
aI8
aa(lp91
I16
aI9
aaI6
aa(lp92
I-1
a(lp93
I1
aI8
aa(lp94
I1
aI9
aa(lp95
I8
aI8
aa(lp96
I8
aI9
aa(lp97
I15
aI8
aa(lp98
I15
aI9
aaI7
aa(lp99
I-1
a(lp100
I2
aI8
aa(lp101
I2
aI9
aa(lp102
I9
aI8
aa(lp103
I9
aI9
aa(lp104
I16
aI8
aa(lp105
I16
aI9
aaI7
aa(lp106
I-1
a(lp107
I3
aI8
aa(lp108
I3
aI9
aa(lp109
I10
aI8
aa(lp110
I10
aI9
aa(lp111
I17
aI8
aa(lp112
I17
aI9
aaI7
aa(lp113
I-1
a(lp114
I0
aI8
aa(lp115
I0
aI9
aa(lp116
I8
aI8
aa(lp117
I8
aI9
aa(lp118
I16
aI8
aa(lp119
I16
aI9
aaI8
aa(lp120
I-1
a(lp121
I1
aI8
aa(lp122
I1
aI9
aa(lp123
I9
aI8
aa(lp124
I9
aI9
aa(lp125
I17
aI8
aa(lp126
I17
aI9
aaI8
aa(lp127
I-1
a(lp128
I2
aI8
aa(lp129
I2
aI9
aa(lp130
I10
aI8
aa(lp131
I10
aI9
aa(lp132
I18
aI8
aa(lp133
I18
aI9
aaI8
aa(lp134
I-1
a(lp135
I0
aI8
aa(lp136
I0
aI9
aa(lp137
I9
aI8
aa(lp138
I9
aI9
aa(lp139
I18
aI8
aa(lp140
I18
aI9
aaI9
aa(lp141
I-1
a(lp142
I5
aI8
aa(lp143
I5
aI10
aa(lp144
I9
aI8
aa(lp145
I9
aI10
aa(lp146
I13
aI8
aa(lp147
I13
aI10
aaI8
aa(lp148
I-1
a(lp149
I6
aI8
aa(lp150
I6
aI10
aa(lp151
I10
aI8
aa(lp152
I10
aI10
aa(lp153
I14
aI8
aa(lp154
I14
aI10
aaI8
aa(lp155
I-1
a(lp156
I4
aI8
aa(lp157
I4
aI10
aa(lp158
I9
aI8
aa(lp159
I9
aI10
aa(lp160
I14
aI8
aa(lp161
I14
aI10
aaI10
aa(lp162
I-1
a(lp163
I5
aI8
aa(lp164
I5
aI10
aa(lp165
I10
aI8
aa(lp166
I10
aI10
aa(lp167
I15
aI8
aa(lp168
I15
aI10
aaI10
aa(lp169
I-1
a(lp170
I3
aI8
aa(lp171
I3
aI10
aa(lp172
I9
aI8
aa(lp173
I9
aI10
aa(lp174
I15
aI8
aa(lp175
I15
aI10
aaI12
aa(lp176
I-1
a(lp177
I4
aI8
aa(lp178
I4
aI10
aa(lp179
I10
aI8
aa(lp180
I10
aI10
aa(lp181
I16
aI8
aa(lp182
I16
aI10
aaI12
aa(lp183
I-1
a(lp184
I2
aI8
aa(lp185
I2
aI10
aa(lp186
I9
aI8
aa(lp187
I9
aI10
aa(lp188
I16
aI8
aa(lp189
I16
aI10
aaI14
aa(lp190
I-1
a(lp191
I6
aI8
aa(lp192
I6
aI11
aa(lp193
I10
aI8
aa(lp194
I10
aI11
aa(lp195
I14
aI8
aa(lp196
I14
aI11
aaI12
aa(lp197
I-1
a(lp198
I5
aI8
aa(lp199
I5
aI11
aa(lp200
I10
aI8
aa(lp201
I10
aI11
aa(lp202
I15
aI8
aa(lp203
I15
aI11
aaI15
aa(lp204
I-1
a(lp205
I3
aI7
aa(lp206
I3
aI10
aa(lp207
I9
aI7
aa(lp208
I9
aI10
aa(lp209
I15
aI7
aa(lp210
I15
aI10
aaI18
aa(lp211
I-1
a(lp212
I5
aI8
aa(lp213
I5
aI12
aa(lp214
I10
aI8
aa(lp215
I10
aI12
aa(lp216
I15
aI8
aa(lp217
I15
aI12
aaI20
aa(lp218
I-1
a(lp219
I5
aI8
aa(lp220
I5
aI13
aa(lp221
I10
aI8
aa(lp222
I10
aI13
aa(lp223
I15
aI8
aa(lp224
I15
aI13
aaI25
aa(lp225
I-1
a(lp226
I5
aI8
aa(lp227
I5
aI14
aa(lp228
I10
aI8
aa(lp229
I10
aI14
aa(lp230
I15
aI8
aa(lp231
I15
aI14
aaI30
aa.