(lp0
(lp1
I-1
a(lp2
I4
aI8
aa(lp3
I4
aI9
aa(lp4
I9
aI8
aa(lp5
I9
aI9
aa(lp6
I14
aI8
aa(lp7
I14
aI9
aaI5
aa(lp8
I-1
a(lp9
I5
aI8
aa(lp10
I5
aI9
aa(lp11
I10
aI8
aa(lp12
I10
aI9
aa(lp13
I15
aI8
aa(lp14
I15
aI9
aaI5
aa(lp15
I-1
a(lp16
I3
aI8
aa(lp17
I3
aI9
aa(lp18
I9
aI8
aa(lp19
I9
aI9
aa(lp20
I15
aI8
aa(lp21
I15
aI9
aaI6
aa(lp22
I-1
a(lp23
I5
aI8
aa(lp24
I5
aI10
aa(lp25
I10
aI8
aa(lp26
I10
aI10
aa(lp27
I15
aI8
aa(lp28
I15
aI10
aaI10
aa.