(lp0
(lp1
I1
a(lp2
I2
aI10
aa(lp3
I2
aI14
aa(lp4
I5
aI10
aa(lp5
I5
aI14
aa(lp6
I8
aI10
aa(lp7
I8
aI14
aaI12
aa(lp8
I1
a(lp9
I1
aI9
aa(lp10
I1
aI13
aa(lp11
I5
aI9
aa(lp12
I5
aI13
aa(lp13
I9
aI9
aa(lp14
I9
aI13
aaI16
aa(lp15
I1
a(lp16
I1
aI10
aa(lp17
I1
aI14
aa(lp18
I5
aI10
aa(lp19
I5
aI14
aa(lp20
I9
aI10
aa(lp21
I9
aI14
aaI16
aa(lp22
I1
a(lp23
I2
aI9
aa(lp24
I2
aI14
aa(lp25
I5
aI9
aa(lp26
I5
aI14
aa(lp27
I8
aI9
aa(lp28
I8
aI14
aaI15
aa(lp29
I1
a(lp30
I1
aI9
aa(lp31
I1
aI14
aa(lp32
I5
aI9
aa(lp33
I5
aI14
aa(lp34
I9
aI9
aa(lp35
I9
aI14
aaI20
aa(lp36
I1
a(lp37
I1
aI9
aa(lp38
I1
aI15
aa(lp39
I5
aI9
aa(lp40
I5
aI15
aa(lp41
I9
aI9
aa(lp42
I9
aI15
aaI24
aa(lp43
I-1
a(lp44
I6
aI8
aa(lp45
I6
aI9
aa(lp46
I9
aI8
aa(lp47
I9
aI9
aa(lp48
I12
aI8
aa(lp49
I12
aI9
aaI3
aa(lp50
I-1
a(lp51
I6
aI9
aa(lp52
I6
aI10
aa(lp53
I9
aI9
aa(lp54
I9
aI10
aa(lp55
I12
aI9
aa(lp56
I12
aI10
aaI3
aa(lp57
I-1
a(lp58
I7
aI8
aa(lp59
I7
aI9
aa(lp60
I10
aI8
aa(lp61
I10
aI9
aa(lp62
I13
aI8
aa(lp63
I13
aI9
aaI3
aa(lp64
I-1
a(lp65
I7
aI9
aa(lp66
I7
aI10
aa(lp67
I10
aI9
aa(lp68
I10
aI10
aa(lp69
I13
aI9
aa(lp70
I13
aI10
aaI3
aa(lp71
I-1
a(lp72
I5
aI8
aa(lp73
I5
aI9
aa(lp74
I9
aI8
aa(lp75
I9
aI9
aa(lp76
I13
aI8
aa(lp77
I13
aI9
aaI4
aa(lp78
I-1
a(lp79
I5
aI9
aa(lp80
I5
aI10
aa(lp81
I9
aI9
aa(lp82
I9
aI10
aa(lp83
I13
aI9
aa(lp84
I13
aI10
aaI4
aa(lp85
I-1
a(lp86
I6
aI8
aa(lp87
I6
aI9
aa(lp88
I10
aI8
aa(lp89
I10
aI9
aa(lp90
I14
aI8
aa(lp91
I14
aI9
aaI4
aa(lp92
I-1
a(lp93
I6
aI9
aa(lp94
I6
aI10
aa(lp95
I10
aI9
aa(lp96
I10
aI10
aa(lp97
I14
aI9
aa(lp98
I14
aI10
aaI4
aa(lp99
I-1
a(lp100
I7
aI3
aa(lp101
I7
aI4
aa(lp102
I11
aI3
aa(lp103
I11
aI4
aa(lp104
I15
aI3
aa(lp105
I15
aI4
aaI4
aa(lp106
I-1
a(lp107
I7
aI4
aa(lp108
I7
aI5
aa(lp109
I11
aI4
aa(lp110
I11
aI5
aa(lp111
I15
aI4
aa(lp112
I15
aI5
aaI4
aa(lp113
I-1
a(lp114
I7
aI13
aa(lp115
I7
aI14
aa(lp116
I11
aI13
aa(lp117
I11
aI14
aa(lp118
I15
aI13
aa(lp119
I15
aI14
aaI4
aa(lp120
I-1
a(lp121
I7
aI14
aa(lp122
I7
aI15
aa(lp123
I11
aI14
aa(lp124
I11
aI15
aa(lp125
I15
aI14
aa(lp126
I15
aI15
aaI4
aa(lp127
I-1
a(lp128
I4
aI8
aa(lp129
I4
aI9
aa(lp130
I9
aI8
aa(lp131
I9
aI9
aa(lp132
I14
aI8
aa(lp133
I14
aI9
aaI5
aa(lp134
I-1
a(lp135
I4
aI9
aa(lp136
I4
aI10
aa(lp137
I9
aI9
aa(lp138
I9
aI10
aa(lp139
I14
aI9
aa(lp140
I14
aI10
aaI5
aa(lp141
I-1
a(lp142
I5
aI8
aa(lp143
I5
aI9
aa(lp144
I10
aI8
aa(lp145
I10
aI9
aa(lp146
I15
aI8
aa(lp147
I15
aI9
aaI5
aa(lp148
I-1
a(lp149
I5
aI9
aa(lp150
I5
aI10
aa(lp151
I10
aI9
aa(lp152
I10
aI10
aa(lp153
I15
aI9
aa(lp154
I15
aI10
aaI5
aa(lp155
I-1
a(lp156
I6
aI4
aa(lp157
I6
aI5
aa(lp158
I11
aI4
aa(lp159
I11
aI5
aa(lp160
I16
aI4
aa(lp161
I16
aI5
aaI5
aa(lp162
I-1
a(lp163
I6
aI14
aa(lp164
I6
aI15
aa(lp165
I11
aI14
aa(lp166
I11
aI15
aa(lp167
I16
aI14
aa(lp168
I16
aI15
aaI5
aa(lp169
I-1
a(lp170
I2
aI8
aa(lp171
I2
aI9
aa(lp172
I8
aI8
aa(lp173
I8
aI9
aa(lp174
I14
aI8
aa(lp175
I14
aI9
aaI6
aa(lp176
I-1
a(lp177
I3
aI8
aa(lp178
I3
aI9
aa(lp179
I9
aI8
aa(lp180
I9
aI9
aa(lp181
I15
aI8
aa(lp182
I15
aI9
aaI6
aa(lp183
I-1
a(lp184
I3
aI9
aa(lp185
I3
aI10
aa(lp186
I9
aI9
aa(lp187
I9
aI10
aa(lp188
I15
aI9
aa(lp189
I15
aI10
aaI6
aa(lp190
I-1
a(lp191
I4
aI8
aa(lp192
I4
aI9
aa(lp193
I10
aI8
aa(lp194
I10
aI9
aa(lp195
I16
aI8
aa(lp196
I16
aI9
aaI6
aa(lp197
I-1
a(lp198
I4
aI9
aa(lp199
I4
aI10
aa(lp200
I10
aI9
aa(lp201
I10
aI10
aa(lp202
I16
aI9
aa(lp203
I16
aI10
aaI6
aa(lp204
I-1
a(lp205
I1
aI8
aa(lp206
I1
aI9
aa(lp207
I8
aI8
aa(lp208
I8
aI9
aa(lp209
I15
aI8
aa(lp210
I15
aI9
aaI7
aa(lp211
I-1
a(lp212
I2
aI8
aa(lp213
I2
aI9
aa(lp214
I9
aI8
aa(lp215
I9
aI9
aa(lp216
I16
aI8
aa(lp217
I16
aI9
aaI7
aa(lp218
I-1
a(lp219
I3
aI8
aa(lp220
I3
aI9
aa(lp221
I10
aI8
aa(lp222
I10
aI9
aa(lp223
I17
aI8
aa(lp224
I17
aI9
aaI7
aa(lp225
I-1
a(lp226
I-1
aI8
aa(lp227
I-1
aI9
aa(lp228
I7
aI8
aa(lp229
I7
aI9
aa(lp230
I15
aI8
aa(lp231
I15
aI9
aaI8
aa(lp232
I-1
a(lp233
I0
aI8
aa(lp234
I0
aI9
aa(lp235
I8
aI8
aa(lp236
I8
aI9
aa(lp237
I16
aI8
aa(lp238
I16
aI9
aaI8
aa(lp239
I-1
a(lp240
I1
aI8
aa(lp241
I1
aI9
aa(lp242
I9
aI8
aa(lp243
I9
aI9
aa(lp244
I17
aI8
aa(lp245
I17
aI9
aaI8
aa(lp246
I-1
a(lp247
I2
aI8
aa(lp248
I2
aI9
aa(lp249
I10
aI8
aa(lp250
I10
aI9
aa(lp251
I18
aI8
aa(lp252
I18
aI9
aaI8
aa(lp253
I-1
a(lp254
I-1
aI8
aa(lp255
I-1
aI9
aa(lp256
I8
aI8
aa(lp257
I8
aI9
aa(lp258
I17
aI8
aa(lp259
I17
aI9
aaI9
aa(lp260
I-1
a(lp261
I0
aI8
aa(lp262
I0
aI9
aa(lp263
I9
aI8
aa(lp264
I9
aI9
aa(lp265
I18
aI8
aa(lp266
I18
aI9
aaI9
aa(lp267
I-1
a(lp268
I7
aI8
aa(lp269
I7
aI10
aa(lp270
I10
aI8
aa(lp271
I10
aI10
aa(lp272
I13
aI8
aa(lp273
I13
aI10
aaI6
aa(lp274
I-1
a(lp275
I5
aI8
aa(lp276
I5
aI10
aa(lp277
I9
aI8
aa(lp278
I9
aI10
aa(lp279
I13
aI8
aa(lp280
I13
aI10
aaI8
aa(lp281
I-1
a(lp282
I6
aI7
aa(lp283
I6
aI9
aa(lp284
I10
aI7
aa(lp285
I10
aI9
aa(lp286
I14
aI7
aa(lp287
I14
aI9
aaI8
aa(lp288
I-1
a(lp289
I6
aI8
aa(lp290
I6
aI10
aa(lp291
I10
aI8
aa(lp292
I10
aI10
aa(lp293
I14
aI8
aa(lp294
I14
aI10
aaI8
aa(lp295
I-1
a(lp296
I6
aI9
aa(lp297
I6
aI11
aa(lp298
I10
aI9
aa(lp299
I10
aI11
aa(lp300
I14
aI9
aa(lp301
I14
aI11
aaI8
aa(lp302
I-1
a(lp303
I7
aI2
aa(lp304
I7
aI4
aa(lp305
I11
aI2
aa(lp306
I11
aI4
aa(lp307
I15
aI2
aa(lp308
I15
aI4
aaI8
aa(lp309
I-1
a(lp310
I7
aI3
aa(lp311
I7
aI5
aa(lp312
I11
aI3
aa(lp313
I11
aI5
aa(lp314
I15
aI3
aa(lp315
I15
aI5
aaI8
aa(lp316
I-1
a(lp317
I7
aI13
aa(lp318
I7
aI15
aa(lp319
I11
aI13
aa(lp320
I11
aI15
aa(lp321
I15
aI13
aa(lp322
I15
aI15
aaI8
aa(lp323
I-1
a(lp324
I4
aI7
aa(lp325
I4
aI9
aa(lp326
I9
aI7
aa(lp327
I9
aI9
aa(lp328
I14
aI7
aa(lp329
I14
aI9
aaI10
aa(lp330
I-1
a(lp331
I4
aI8
aa(lp332
I4
aI10
aa(lp333
I9
aI8
aa(lp334
I9
aI10
aa(lp335
I14
aI8
aa(lp336
I14
aI10
aaI10
aa(lp337
I-1
a(lp338
I5
aI7
aa(lp339
I5
aI9
aa(lp340
I10
aI7
aa(lp341
I10
aI9
aa(lp342
I15
aI7
aa(lp343
I15
aI9
aaI10
aa(lp344
I-1
a(lp345
I5
aI8
aa(lp346
I5
aI10
aa(lp347
I10
aI8
aa(lp348
I10
aI10
aa(lp349
I15
aI8
aa(lp350
I15
aI10
aaI10
aa(lp351
I-1
a(lp352
I5
aI9
aa(lp353
I5
aI11
aa(lp354
I10
aI9
aa(lp355
I10
aI11
aa(lp356
I15
aI9
aa(lp357
I15
aI11
aaI10
aa(lp358
I-1
a(lp359
I6
aI13
aa(lp360
I6
aI15
aa(lp361
I11
aI13
aa(lp362
I11
aI15
aa(lp363
I16
aI13
aa(lp364
I16
aI15
aaI10
aa(lp365
I-1
a(lp366
I3
aI7
aa(lp367
I3
aI9
aa(lp368
I9
aI7
aa(lp369
I9
aI9
aa(lp370
I15
aI7
aa(lp371
I15
aI9
aaI12
aa(lp372
I-1
a(lp373
I3
aI8
aa(lp374
I3
aI10
aa(lp375
I9
aI8
aa(lp376
I9
aI10
aa(lp377
I15
aI8
aa(lp378
I15
aI10
aaI12
aa(lp379
I-1
a(lp380
I4
aI8
aa(lp381
I4
aI10
aa(lp382
I10
aI8
aa(lp383
I10
aI10
aa(lp384
I16
aI8
aa(lp385
I16
aI10
aaI12
aa(lp386
I-1
a(lp387
I1
aI8
aa(lp388
I1
aI10
aa(lp389
I8
aI8
aa(lp390
I8
aI10
aa(lp391
I15
aI8
aa(lp392
I15
aI10
aaI14
aa(lp393
I-1
a(lp394
I2
aI8
aa(lp395
I2
aI10
aa(lp396
I9
aI8
aa(lp397
I9
aI10
aa(lp398
I16
aI8
aa(lp399
I16
aI10
aaI14
aa(lp400
I-1
a(lp401
I3
aI8
aa(lp402
I3
aI10
aa(lp403
I10
aI8
aa(lp404
I10
aI10
aa(lp405
I17
aI8
aa(lp406
I17
aI10
aaI14
aa(lp407
I-1
a(lp408
I0
aI8
aa(lp409
I0
aI10
aa(lp410
I8
aI8
aa(lp411
I8
aI10
aa(lp412
I16
aI8
aa(lp413
I16
aI10
aaI16
aa(lp414
I-1
a(lp415
I1
aI8
aa(lp416
I1
aI10
aa(lp417
I9
aI8
aa(lp418
I9
aI10
aa(lp419
I17
aI8
aa(lp420
I17
aI10
aaI16
aa(lp421
I-1
a(lp422
I2
aI8
aa(lp423
I2
aI10
aa(lp424
I10
aI8
aa(lp425
I10
aI10
aa(lp426
I18
aI8
aa(lp427
I18
aI10
aaI16
aa(lp428
I-1
a(lp429
I0
aI8
aa(lp430
I0
aI10
aa(lp431
I9
aI8
aa(lp432
I9
aI10
aa(lp433
I18
aI8
aa(lp434
I18
aI10
aaI18
aa(lp435
I-1
a(lp436
I5
aI7
aa(lp437
I5
aI10
aa(lp438
I9
aI7
aa(lp439
I9
aI10
aa(lp440
I13
aI7
aa(lp441
I13
aI10
aaI12
aa(lp442
I-1
a(lp443
I5
aI8
aa(lp444
I5
aI11
aa(lp445
I9
aI8
aa(lp446
I9
aI11
aa(lp447
I13
aI8
aa(lp448
I13
aI11
aaI12
aa(lp449
I-1
a(lp450
I6
aI7
aa(lp451
I6
aI10
aa(lp452
I10
aI7
aa(lp453
I10
aI10
aa(lp454
I14
aI7
aa(lp455
I14
aI10
aaI12
aa(lp456
I-1
a(lp457
I6
aI8
aa(lp458
I6
aI11
aa(lp459
I10
aI8
aa(lp460
I10
aI11
aa(lp461
I14
aI8
aa(lp462
I14
aI11
aaI12
aa(lp463
I-1
a(lp464
I6
aI9
aa(lp465
I6
aI12
aa(lp466
I10
aI9
aa(lp467
I10
aI12
aa(lp468
I14
aI9
aa(lp469
I14
aI12
aaI12
aa(lp470
I-1
a(lp471
I7
aI2
aa(lp472
I7
aI5
aa(lp473
I11
aI2
aa(lp474
I11
aI5
aa(lp475
I15
aI2
aa(lp476
I15
aI5
aaI12
aa(lp477
I-1
a(lp478
I7
aI3
aa(lp479
I7
aI6
aa(lp480
I11
aI3
aa(lp481
I11
aI6
aa(lp482
I15
aI3
aa(lp483
I15
aI6
aaI12
aa(lp484
I-1
a(lp485
I4
aI7
aa(lp486
I4
aI10
aa(lp487
I9
aI7
aa(lp488
I9
aI10
aa(lp489
I14
aI7
aa(lp490
I14
aI10
aaI15
aa(lp491
I-1
a(lp492
I4
aI8
aa(lp493
I4
aI11
aa(lp494
I9
aI8
aa(lp495
I9
aI11
aa(lp496
I14
aI8
aa(lp497
I14
aI11
aaI15
aa(lp498
I-1
a(lp499
I5
aI7
aa(lp500
I5
aI10
aa(lp501
I10
aI7
aa(lp502
I10
aI10
aa(lp503
I15
aI7
aa(lp504
I15
aI10
aaI15
aa(lp505
I-1
a(lp506
I5
aI8
aa(lp507
I5
aI11
aa(lp508
I10
aI8
aa(lp509
I10
aI11
aa(lp510
I15
aI8
aa(lp511
I15
aI11
aaI15
aa(lp512
I-1
a(lp513
I5
aI9
aa(lp514
I5
aI12
aa(lp515
I10
aI9
aa(lp516
I10
aI12
aa(lp517
I15
aI9
aa(lp518
I15
aI12
aaI15
aa(lp519
I-1
a(lp520
I6
aI13
aa(lp521
I6
aI16
aa(lp522
I11
aI13
aa(lp523
I11
aI16
aa(lp524
I16
aI13
aa(lp525
I16
aI16
aaI15
aa(lp526
I-1
a(lp527
I3
aI7
aa(lp528
I3
aI10
aa(lp529
I9
aI7
aa(lp530
I9
aI10
aa(lp531
I15
aI7
aa(lp532
I15
aI10
aaI18
aa(lp533
I-1
a(lp534
I3
aI8
aa(lp535
I3
aI11
aa(lp536
I9
aI8
aa(lp537
I9
aI11
aa(lp538
I15
aI8
aa(lp539
I15
aI11
aaI18
aa(lp540
I-1
a(lp541
I4
aI7
aa(lp542
I4
aI10
aa(lp543
I10
aI7
aa(lp544
I10
aI10
aa(lp545
I16
aI7
aa(lp546
I16
aI10
aaI18
aa(lp547
I-1
a(lp548
I4
aI8
aa(lp549
I4
aI11
aa(lp550
I10
aI8
aa(lp551
I10
aI11
aa(lp552
I16
aI8
aa(lp553
I16
aI11
aaI18
aa(lp554
I-1
a(lp555
I2
aI7
aa(lp556
I2
aI10
aa(lp557
I9
aI7
aa(lp558
I9
aI10
aa(lp559
I16
aI7
aa(lp560
I16
aI10
aaI21
aa(lp561
I-1
a(lp562
I6
aI8
aa(lp563
I6
aI12
aa(lp564
I10
aI8
aa(lp565
I10
aI12
aa(lp566
I14
aI8
aa(lp567
I14
aI12
aaI16
aa(lp568
I-1
a(lp569
I4
aI7
aa(lp570
I4
aI11
aa(lp571
I9
aI7
aa(lp572
I9
aI11
aa(lp573
I14
aI7
aa(lp574
I14
aI11
aaI20
aa(lp575
I-1
a(lp576
I4
aI8
aa(lp577
I4
aI12
aa(lp578
I9
aI8
aa(lp579
I9
aI12
aa(lp580
I14
aI8
aa(lp581
I14
aI12
aaI20
aa(lp582
I-1
a(lp583
I5
aI7
aa(lp584
I5
aI11
aa(lp585
I10
aI7
aa(lp586
I10
aI11
aa(lp587
I15
aI7
aa(lp588
I15
aI11
aaI20
aa(lp589
I-1
a(lp590
I5
aI8
aa(lp591
I5
aI12
aa(lp592
I10
aI8
aa(lp593
I10
aI12
aa(lp594
I15
aI8
aa(lp595
I15
aI12
aaI20
aa(lp596
I-1
a(lp597
I5
aI9
aa(lp598
I5
aI13
aa(lp599
I10
aI9
aa(lp600
I10
aI13
aa(lp601
I15
aI9
aa(lp602
I15
aI13
aaI20
aa(lp603
I-1
a(lp604
I6
aI13
aa(lp605
I6
aI17
aa(lp606
I11
aI13
aa(lp607
I11
aI17
aa(lp608
I16
aI13
aa(lp609
I16
aI17
aaI20
aa(lp610
I-1
a(lp611
I6
aI8
aa(lp612
I6
aI13
aa(lp613
I10
aI8
aa(lp614
I10
aI13
aa(lp615
I14
aI8
aa(lp616
I14
aI13
aaI20
aa(lp617
I-1
a(lp618
I5
aI4
aa(lp619
I5
aI9
aa(lp620
I10
aI4
aa(lp621
I10
aI9
aa(lp622
I15
aI4
aa(lp623
I15
aI9
aaI25
aa(lp624
I-1
a(lp625
I5
aI5
aa(lp626
I5
aI10
aa(lp627
I10
aI5
aa(lp628
I10
aI10
aa(lp629
I15
aI5
aa(lp630
I15
aI10
aaI25
aa(lp631
I-1
a(lp632
I5
aI7
aa(lp633
I5
aI12
aa(lp634
I10
aI7
aa(lp635
I10
aI12
aa(lp636
I15
aI7
aa(lp637
I15
aI12
aaI25
aa(lp638
I-1
a(lp639
I5
aI8
aa(lp640
I5
aI13
aa(lp641
I10
aI8
aa(lp642
I10
aI13
aa(lp643
I15
aI8
aa(lp644
I15
aI13
aaI25
aa(lp645
I-1
a(lp646
I5
aI9
aa(lp647
I5
aI14
aa(lp648
I10
aI9
aa(lp649
I10
aI14
aa(lp650
I15
aI9
aa(lp651
I15
aI14
aaI25
aa(lp652
I-1
a(lp653
I6
aI8
aa(lp654
I6
aI14
aa(lp655
I10
aI8
aa(lp656
I10
aI14
aa(lp657
I14
aI8
aa(lp658
I14
aI14
aaI24
aa(lp659
I-1
a(lp660
I5
aI4
aa(lp661
I5
aI10
aa(lp662
I10
aI4
aa(lp663
I10
aI10
aa(lp664
I15
aI4
aa(lp665
I15
aI10
aaI30
aa(lp666
I-1
a(lp667
I5
aI7
aa(lp668
I5
aI13
aa(lp669
I10
aI7
aa(lp670
I10
aI13
aa(lp671
I15
aI7
aa(lp672
I15
aI13
aaI30
aa(lp673
I-1
a(lp674
I5
aI8
aa(lp675
I5
aI14
aa(lp676
I10
aI8
aa(lp677
I10
aI14
aa(lp678
I15
aI8
aa(lp679
I15
aI14
aaI30
aa(lp680
I-1
a(lp681
I6
aI8
aa(lp682
I6
aI15
aa(lp683
I10
aI8
aa(lp684
I10
aI15
aa(lp685
I14
aI8
aa(lp686
I14
aI15
aaI28
aa(lp687
I-1
a(lp688
I5
aI3
aa(lp689
I5
aI10
aa(lp690
I10
aI3
aa(lp691
I10
aI10
aa(lp692
I15
aI3
aa(lp693
I15
aI10
aaI35
aa(lp694
I-1
a(lp695
I5
aI7
aa(lp696
I5
aI14
aa(lp697
I10
aI7
aa(lp698
I10
aI14
aa(lp699
I15
aI7
aa(lp700
I15
aI14
aaI35
aa(lp701
I-1
a(lp702
I5
aI8
aa(lp703
I5
aI15
aa(lp704
I10
aI8
aa(lp705
I10
aI15
aa(lp706
I15
aI8
aa(lp707
I15
aI15
aaI35
aa(lp708
I-1
a(lp709
I6
aI8
aa(lp710
I6
aI16
aa(lp711
I10
aI8
aa(lp712
I10
aI16
aa(lp713
I14
aI8
aa(lp714
I14
aI16
aaI32
aa(lp715
I-1
a(lp716
I5
aI3
aa(lp717
I5
aI11
aa(lp718
I10
aI3
aa(lp719
I10
aI11
aa(lp720
I15
aI3
aa(lp721
I15
aI11
aaI40
aa(lp722
I-1
a(lp723
I5
aI7
aa(lp724
I5
aI15
aa(lp725
I10
aI7
aa(lp726
I10
aI15
aa(lp727
I15
aI7
aa(lp728
I15
aI15
aaI40
aa(lp729
I-1
a(lp730
I5
aI8
aa(lp731
I5
aI16
aa(lp732
I10
aI8
aa(lp733
I10
aI16
aa(lp734
I15
aI8
aa(lp735
I15
aI16
aaI40
aa.