(lp0
(lp1
I-1
a(lp2
I5
aI8
aa(lp3
I5
aI9
aa(lp4
I9
aI8
aa(lp5
I9
aI9
aa(lp6
I13
aI8
aa(lp7
I13
aI9
aaI4
aa(lp8
I-1
a(lp9
I6
aI8
aa(lp10
I6
aI9
aa(lp11
I10
aI8
aa(lp12
I10
aI9
aa(lp13
I14
aI8
aa(lp14
I14
aI9
aaI4
aa(lp15
I-1
a(lp16
I6
aI9
aa(lp17
I6
aI10
aa(lp18
I10
aI9
aa(lp19
I10
aI10
aa(lp20
I14
aI9
aa(lp21
I14
aI10
aaI4
aa(lp22
I-1
a(lp23
I4
aI8
aa(lp24
I4
aI9
aa(lp25
I9
aI8
aa(lp26
I9
aI9
aa(lp27
I14
aI8
aa(lp28
I14
aI9
aaI5
aa(lp29
I-1
a(lp30
I5
aI8
aa(lp31
I5
aI9
aa(lp32
I10
aI8
aa(lp33
I10
aI9
aa(lp34
I15
aI8
aa(lp35
I15
aI9
aaI5
aa(lp36
I-1
a(lp37
I5
aI9
aa(lp38
I5
aI10
aa(lp39
I10
aI9
aa(lp40
I10
aI10
aa(lp41
I15
aI9
aa(lp42
I15
aI10
aaI5
aa(lp43
I-1
a(lp44
I3
aI8
aa(lp45
I3
aI9
aa(lp46
I9
aI8
aa(lp47
I9
aI9
aa(lp48
I15
aI8
aa(lp49
I15
aI9
aaI6
aa(lp50
I-1
a(lp51
I4
aI8
aa(lp52
I4
aI9
aa(lp53
I10
aI8
aa(lp54
I10
aI9
aa(lp55
I16
aI8
aa(lp56
I16
aI9
aaI6
aa(lp57
I-1
a(lp58
I1
aI8
aa(lp59
I1
aI9
aa(lp60
I8
aI8
aa(lp61
I8
aI9
aa(lp62
I15
aI8
aa(lp63
I15
aI9
aaI7
aa(lp64
I-1
a(lp65
I2
aI8
aa(lp66
I2
aI9
aa(lp67
I9
aI8
aa(lp68
I9
aI9
aa(lp69
I16
aI8
aa(lp70
I16
aI9
aaI7
aa(lp71
I-1
a(lp72
I1
aI8
aa(lp73
I1
aI9
aa(lp74
I9
aI8
aa(lp75
I9
aI9
aa(lp76
I17
aI8
aa(lp77
I17
aI9
aaI8
aa(lp78
I-1
a(lp79
I0
aI8
aa(lp80
I0
aI9
aa(lp81
I9
aI8
aa(lp82
I9
aI9
aa(lp83
I18
aI8
aa(lp84
I18
aI9
aaI9
aa(lp85
I-1
a(lp86
I6
aI8
aa(lp87
I6
aI10
aa(lp88
I10
aI8
aa(lp89
I10
aI10
aa(lp90
I14
aI8
aa(lp91
I14
aI10
aaI8
aa(lp92
I-1
a(lp93
I4
aI8
aa(lp94
I4
aI10
aa(lp95
I9
aI8
aa(lp96
I9
aI10
aa(lp97
I14
aI8
aa(lp98
I14
aI10
aaI10
aa(lp99
I-1
a(lp100
I5
aI8
aa(lp101
I5
aI10
aa(lp102
I10
aI8
aa(lp103
I10
aI10
aa(lp104
I15
aI8
aa(lp105
I15
aI10
aaI10
aa(lp106
I-1
a(lp107
I3
aI8
aa(lp108
I3
aI10
aa(lp109
I9
aI8
aa(lp110
I9
aI10
aa(lp111
I15
aI8
aa(lp112
I15
aI10
aaI12
aa.