(lp0
(lp1
I1
a(lp2
I13
aI10
aa(lp3
I13
aI11
aa(lp4
I15
aI10
aa(lp5
I15
aI11
aa(lp6
I17
aI10
aa(lp7
I17
aI11
aaI2
aa(lp8
I1
a(lp9
I14
aI5
aa(lp10
I14
aI6
aa(lp11
I16
aI5
aa(lp12
I16
aI6
aa(lp13
I18
aI5
aa(lp14
I18
aI6
aaI2
aa(lp15
I1
a(lp16
I2
aI11
aa(lp17
I2
aI12
aa(lp18
I5
aI11
aa(lp19
I5
aI12
aa(lp20
I8
aI11
aa(lp21
I8
aI12
aaI3
aa(lp22
I1
a(lp23
I1
aI11
aa(lp24
I1
aI12
aa(lp25
I5
aI11
aa(lp26
I5
aI12
aa(lp27
I9
aI11
aa(lp28
I9
aI12
aaI4
aa(lp29
I1
a(lp30
I1
aI12
aa(lp31
I1
aI13
aa(lp32
I5
aI12
aa(lp33
I5
aI13
aa(lp34
I9
aI12
aa(lp35
I9
aI13
aaI4
aa(lp36
I1
a(lp37
I1
aI12
aa(lp38
I1
aI13
aa(lp39
I6
aI12
aa(lp40
I6
aI13
aa(lp41
I11
aI12
aa(lp42
I11
aI13
aaI5
aa(lp43
I1
a(lp44
I0
aI12
aa(lp45
I0
aI13
aa(lp46
I6
aI12
aa(lp47
I6
aI13
aa(lp48
I12
aI12
aa(lp49
I12
aI13
aaI6
aa(lp50
I1
a(lp51
I13
aI4
aa(lp52
I13
aI6
aa(lp53
I15
aI4
aa(lp54
I15
aI6
aa(lp55
I17
aI4
aa(lp56
I17
aI6
aaI4
aa(lp57
I1
a(lp58
I2
aI10
aa(lp59
I2
aI12
aa(lp60
I5
aI10
aa(lp61
I5
aI12
aa(lp62
I8
aI10
aa(lp63
I8
aI12
aaI6
aa(lp64
I1
a(lp65
I2
aI11
aa(lp66
I2
aI13
aa(lp67
I5
aI11
aa(lp68
I5
aI13
aa(lp69
I8
aI11
aa(lp70
I8
aI13
aaI6
aa(lp71
I1
a(lp72
I12
aI4
aa(lp73
I12
aI6
aa(lp74
I15
aI4
aa(lp75
I15
aI6
aa(lp76
I18
aI4
aa(lp77
I18
aI6
aaI6
aa(lp78
I1
a(lp79
I1
aI10
aa(lp80
I1
aI12
aa(lp81
I5
aI10
aa(lp82
I5
aI12
aa(lp83
I9
aI10
aa(lp84
I9
aI12
aaI8
aa(lp85
I1
a(lp86
I1
aI11
aa(lp87
I1
aI13
aa(lp88
I5
aI11
aa(lp89
I5
aI13
aa(lp90
I9
aI11
aa(lp91
I9
aI13
aaI8
aa(lp92
I1
a(lp93
I1
aI12
aa(lp94
I1
aI14
aa(lp95
I5
aI12
aa(lp96
I5
aI14
aa(lp97
I9
aI12
aa(lp98
I9
aI14
aaI8
aa(lp99
I1
a(lp100
I0
aI12
aa(lp101
I0
aI14
aa(lp102
I5
aI12
aa(lp103
I5
aI14
aa(lp104
I10
aI12
aa(lp105
I10
aI14
aaI10
aa(lp106
I1
a(lp107
I1
aI12
aa(lp108
I1
aI14
aa(lp109
I6
aI12
aa(lp110
I6
aI14
aa(lp111
I11
aI12
aa(lp112
I11
aI14
aaI10
aa(lp113
I1
a(lp114
I0
aI12
aa(lp115
I0
aI14
aa(lp116
I6
aI12
aa(lp117
I6
aI14
aa(lp118
I12
aI12
aa(lp119
I12
aI14
aaI12
aa(lp120
I1
a(lp121
I13
aI4
aa(lp122
I13
aI7
aa(lp123
I15
aI4
aa(lp124
I15
aI7
aa(lp125
I17
aI4
aa(lp126
I17
aI7
aaI6
aa(lp127
I1
a(lp128
I2
aI9
aa(lp129
I2
aI12
aa(lp130
I5
aI9
aa(lp131
I5
aI12
aa(lp132
I8
aI9
aa(lp133
I8
aI12
aaI9
aa(lp134
I1
a(lp135
I2
aI10
aa(lp136
I2
aI13
aa(lp137
I5
aI10
aa(lp138
I5
aI13
aa(lp139
I8
aI10
aa(lp140
I8
aI13
aaI9
aa(lp141
I1
a(lp142
I2
aI11
aa(lp143
I2
aI14
aa(lp144
I5
aI11
aa(lp145
I5
aI14
aa(lp146
I8
aI11
aa(lp147
I8
aI14
aaI9
aa(lp148
I1
a(lp149
I12
aI4
aa(lp150
I12
aI7
aa(lp151
I15
aI4
aa(lp152
I15
aI7
aa(lp153
I18
aI4
aa(lp154
I18
aI7
aaI9
aa(lp155
I1
a(lp156
I12
aI9
aa(lp157
I12
aI12
aa(lp158
I15
aI9
aa(lp159
I15
aI12
aa(lp160
I18
aI9
aa(lp161
I18
aI12
aaI9
aa(lp162
I1
a(lp163
I1
aI9
aa(lp164
I1
aI12
aa(lp165
I5
aI9
aa(lp166
I5
aI12
aa(lp167
I9
aI9
aa(lp168
I9
aI12
aaI12
aa(lp169
I1
a(lp170
I1
aI10
aa(lp171
I1
aI13
aa(lp172
I5
aI10
aa(lp173
I5
aI13
aa(lp174
I9
aI10
aa(lp175
I9
aI13
aaI12
aa(lp176
I1
a(lp177
I1
aI11
aa(lp178
I1
aI14
aa(lp179
I5
aI11
aa(lp180
I5
aI14
aa(lp181
I9
aI11
aa(lp182
I9
aI14
aaI12
aa(lp183
I1
a(lp184
I0
aI11
aa(lp185
I0
aI14
aa(lp186
I5
aI11
aa(lp187
I5
aI14
aa(lp188
I10
aI11
aa(lp189
I10
aI14
aaI15
aa(lp190
I1
a(lp191
I1
aI11
aa(lp192
I1
aI14
aa(lp193
I6
aI11
aa(lp194
I6
aI14
aa(lp195
I11
aI11
aa(lp196
I11
aI14
aaI15
aa(lp197
I1
a(lp198
I0
aI11
aa(lp199
I0
aI14
aa(lp200
I6
aI11
aa(lp201
I6
aI14
aa(lp202
I12
aI11
aa(lp203
I12
aI14
aaI18
aa(lp204
I1
a(lp205
I13
aI4
aa(lp206
I13
aI8
aa(lp207
I15
aI4
aa(lp208
I15
aI8
aa(lp209
I17
aI4
aa(lp210
I17
aI8
aaI8
aa(lp211
I1
a(lp212
I13
aI9
aa(lp213
I13
aI13
aa(lp214
I15
aI9
aa(lp215
I15
aI13
aa(lp216
I17
aI9
aa(lp217
I17
aI13
aaI8
aa(lp218
I1
a(lp219
I2
aI9
aa(lp220
I2
aI13
aa(lp221
I5
aI9
aa(lp222
I5
aI13
aa(lp223
I8
aI9
aa(lp224
I8
aI13
aaI12
aa(lp225
I1
a(lp226
I2
aI10
aa(lp227
I2
aI14
aa(lp228
I5
aI10
aa(lp229
I5
aI14
aa(lp230
I8
aI10
aa(lp231
I8
aI14
aaI12
aa(lp232
I1
a(lp233
I12
aI4
aa(lp234
I12
aI8
aa(lp235
I15
aI4
aa(lp236
I15
aI8
aa(lp237
I18
aI4
aa(lp238
I18
aI8
aaI12
aa(lp239
I1
a(lp240
I12
aI8
aa(lp241
I12
aI12
aa(lp242
I15
aI8
aa(lp243
I15
aI12
aa(lp244
I18
aI8
aa(lp245
I18
aI12
aaI12
aa(lp246
I1
a(lp247
I12
aI9
aa(lp248
I12
aI13
aa(lp249
I15
aI9
aa(lp250
I15
aI13
aa(lp251
I18
aI9
aa(lp252
I18
aI13
aaI12
aa(lp253
I1
a(lp254
I1
aI9
aa(lp255
I1
aI13
aa(lp256
I5
aI9
aa(lp257
I5
aI13
aa(lp258
I9
aI9
aa(lp259
I9
aI13
aaI16
aa(lp260
I1
a(lp261
I1
aI10
aa(lp262
I1
aI14
aa(lp263
I5
aI10
aa(lp264
I5
aI14
aa(lp265
I9
aI10
aa(lp266
I9
aI14
aaI16
aa(lp267
I1
a(lp268
I2
aI10
aa(lp269
I2
aI14
aa(lp270
I6
aI10
aa(lp271
I6
aI14
aa(lp272
I10
aI10
aa(lp273
I10
aI14
aaI16
aa(lp274
I1
a(lp275
I0
aI10
aa(lp276
I0
aI14
aa(lp277
I5
aI10
aa(lp278
I5
aI14
aa(lp279
I10
aI10
aa(lp280
I10
aI14
aaI20
aa(lp281
I1
a(lp282
I1
aI10
aa(lp283
I1
aI14
aa(lp284
I6
aI10
aa(lp285
I6
aI14
aa(lp286
I11
aI10
aa(lp287
I11
aI14
aaI20
aa(lp288
I1
a(lp289
I2
aI9
aa(lp290
I2
aI14
aa(lp291
I5
aI9
aa(lp292
I5
aI14
aa(lp293
I8
aI9
aa(lp294
I8
aI14
aaI15
aa(lp295
I1
a(lp296
I2
aI10
aa(lp297
I2
aI15
aa(lp298
I5
aI10
aa(lp299
I5
aI15
aa(lp300
I8
aI10
aa(lp301
I8
aI15
aaI15
aa(lp302
I1
a(lp303
I12
aI4
aa(lp304
I12
aI9
aa(lp305
I15
aI4
aa(lp306
I15
aI9
aa(lp307
I18
aI4
aa(lp308
I18
aI9
aaI15
aa(lp309
I1
a(lp310
I12
aI5
aa(lp311
I12
aI10
aa(lp312
I15
aI5
aa(lp313
I15
aI10
aa(lp314
I18
aI5
aa(lp315
I18
aI10
aaI15
aa(lp316
I1
a(lp317
I12
aI8
aa(lp318
I12
aI13
aa(lp319
I15
aI8
aa(lp320
I15
aI13
aa(lp321
I18
aI8
aa(lp322
I18
aI13
aaI15
aa(lp323
I1
a(lp324
I1
aI8
aa(lp325
I1
aI13
aa(lp326
I5
aI8
aa(lp327
I5
aI13
aa(lp328
I9
aI8
aa(lp329
I9
aI13
aaI20
aa(lp330
I1
a(lp331
I1
aI9
aa(lp332
I1
aI14
aa(lp333
I5
aI9
aa(lp334
I5
aI14
aa(lp335
I9
aI9
aa(lp336
I9
aI14
aaI20
aa(lp337
I1
a(lp338
I1
aI10
aa(lp339
I1
aI15
aa(lp340
I5
aI10
aa(lp341
I5
aI15
aa(lp342
I9
aI10
aa(lp343
I9
aI15
aaI20
aa(lp344
I1
a(lp345
I2
aI9
aa(lp346
I2
aI14
aa(lp347
I6
aI9
aa(lp348
I6
aI14
aa(lp349
I10
aI9
aa(lp350
I10
aI14
aaI20
aa(lp351
I1
a(lp352
I2
aI10
aa(lp353
I2
aI15
aa(lp354
I6
aI10
aa(lp355
I6
aI15
aa(lp356
I10
aI10
aa(lp357
I10
aI15
aaI20
aa(lp358
I1
a(lp359
I0
aI9
aa(lp360
I0
aI14
aa(lp361
I5
aI9
aa(lp362
I5
aI14
aa(lp363
I10
aI9
aa(lp364
I10
aI14
aaI25
aa(lp365
I1
a(lp366
I0
aI10
aa(lp367
I0
aI15
aa(lp368
I5
aI10
aa(lp369
I5
aI15
aa(lp370
I10
aI10
aa(lp371
I10
aI15
aaI25
aa(lp372
I1
a(lp373
I1
aI9
aa(lp374
I1
aI14
aa(lp375
I6
aI9
aa(lp376
I6
aI14
aa(lp377
I11
aI9
aa(lp378
I11
aI14
aaI25
aa(lp379
I1
a(lp380
I1
aI10
aa(lp381
I1
aI15
aa(lp382
I6
aI10
aa(lp383
I6
aI15
aa(lp384
I11
aI10
aa(lp385
I11
aI15
aaI25
aa(lp386
I1
a(lp387
I0
aI10
aa(lp388
I0
aI15
aa(lp389
I6
aI10
aa(lp390
I6
aI15
aa(lp391
I12
aI10
aa(lp392
I12
aI15
aaI30
aa(lp393
I1
a(lp394
I2
aI8
aa(lp395
I2
aI14
aa(lp396
I5
aI8
aa(lp397
I5
aI14
aa(lp398
I8
aI8
aa(lp399
I8
aI14
aaI18
aa(lp400
I1
a(lp401
I2
aI9
aa(lp402
I2
aI15
aa(lp403
I5
aI9
aa(lp404
I5
aI15
aa(lp405
I8
aI9
aa(lp406
I8
aI15
aaI18
aa(lp407
I1
a(lp408
I12
aI3
aa(lp409
I12
aI9
aa(lp410
I15
aI3
aa(lp411
I15
aI9
aa(lp412
I18
aI3
aa(lp413
I18
aI9
aaI18
aa(lp414
I1
a(lp415
I12
aI4
aa(lp416
I12
aI10
aa(lp417
I15
aI4
aa(lp418
I15
aI10
aa(lp419
I18
aI4
aa(lp420
I18
aI10
aaI18
aa(lp421
I1
a(lp422
I12
aI5
aa(lp423
I12
aI11
aa(lp424
I15
aI5
aa(lp425
I15
aI11
aa(lp426
I18
aI5
aa(lp427
I18
aI11
aaI18
aa(lp428
I1
a(lp429
I12
aI6
aa(lp430
I12
aI12
aa(lp431
I15
aI6
aa(lp432
I15
aI12
aa(lp433
I18
aI6
aa(lp434
I18
aI12
aaI18
aa(lp435
I1
a(lp436
I12
aI7
aa(lp437
I12
aI13
aa(lp438
I15
aI7
aa(lp439
I15
aI13
aa(lp440
I18
aI7
aa(lp441
I18
aI13
aaI18
aa(lp442
I1
a(lp443
I1
aI8
aa(lp444
I1
aI14
aa(lp445
I5
aI8
aa(lp446
I5
aI14
aa(lp447
I9
aI8
aa(lp448
I9
aI14
aaI24
aa(lp449
I1
a(lp450
I1
aI9
aa(lp451
I1
aI15
aa(lp452
I5
aI9
aa(lp453
I5
aI15
aa(lp454
I9
aI9
aa(lp455
I9
aI15
aaI24
aa(lp456
I1
a(lp457
I2
aI9
aa(lp458
I2
aI15
aa(lp459
I6
aI9
aa(lp460
I6
aI15
aa(lp461
I10
aI9
aa(lp462
I10
aI15
aaI24
aa(lp463
I1
a(lp464
I0
aI8
aa(lp465
I0
aI14
aa(lp466
I5
aI8
aa(lp467
I5
aI14
aa(lp468
I10
aI8
aa(lp469
I10
aI14
aaI30
aa(lp470
I1
a(lp471
I0
aI9
aa(lp472
I0
aI15
aa(lp473
I5
aI9
aa(lp474
I5
aI15
aa(lp475
I10
aI9
aa(lp476
I10
aI15
aaI30
aa(lp477
I1
a(lp478
I1
aI9
aa(lp479
I1
aI15
aa(lp480
I6
aI9
aa(lp481
I6
aI15
aa(lp482
I11
aI9
aa(lp483
I11
aI15
aaI30
aa(lp484
I1
a(lp485
I13
aI5
aa(lp486
I13
aI12
aa(lp487
I15
aI5
aa(lp488
I15
aI12
aa(lp489
I17
aI5
aa(lp490
I17
aI12
aaI14
aa(lp491
I1
a(lp492
I13
aI6
aa(lp493
I13
aI13
aa(lp494
I15
aI6
aa(lp495
I15
aI13
aa(lp496
I17
aI6
aa(lp497
I17
aI13
aaI14
aa(lp498
I1
a(lp499
I2
aI8
aa(lp500
I2
aI15
aa(lp501
I5
aI8
aa(lp502
I5
aI15
aa(lp503
I8
aI8
aa(lp504
I8
aI15
aaI21
aa(lp505
I1
a(lp506
I12
aI3
aa(lp507
I12
aI10
aa(lp508
I15
aI3
aa(lp509
I15
aI10
aa(lp510
I18
aI3
aa(lp511
I18
aI10
aaI21
aa(lp512
I1
a(lp513
I12
aI4
aa(lp514
I12
aI11
aa(lp515
I15
aI4
aa(lp516
I15
aI11
aa(lp517
I18
aI4
aa(lp518
I18
aI11
aaI21
aa(lp519
I1
a(lp520
I12
aI6
aa(lp521
I12
aI13
aa(lp522
I15
aI6
aa(lp523
I15
aI13
aa(lp524
I18
aI6
aa(lp525
I18
aI13
aaI21
aa(lp526
I1
a(lp527
I1
aI8
aa(lp528
I1
aI15
aa(lp529
I5
aI8
aa(lp530
I5
aI15
aa(lp531
I9
aI8
aa(lp532
I9
aI15
aaI28
aa(lp533
I1
a(lp534
I1
aI9
aa(lp535
I1
aI16
aa(lp536
I5
aI9
aa(lp537
I5
aI16
aa(lp538
I9
aI9
aa(lp539
I9
aI16
aaI28
aa(lp540
I1
a(lp541
I0
aI8
aa(lp542
I0
aI15
aa(lp543
I5
aI8
aa(lp544
I5
aI15
aa(lp545
I10
aI8
aa(lp546
I10
aI15
aaI35
aa(lp547
I1
a(lp548
I0
aI9
aa(lp549
I0
aI16
aa(lp550
I5
aI9
aa(lp551
I5
aI16
aa(lp552
I10
aI9
aa(lp553
I10
aI16
aaI35
aa(lp554
I1
a(lp555
I13
aI4
aa(lp556
I13
aI12
aa(lp557
I15
aI4
aa(lp558
I15
aI12
aa(lp559
I17
aI4
aa(lp560
I17
aI12
aaI16
aa(lp561
I1
a(lp562
I13
aI5
aa(lp563
I13
aI13
aa(lp564
I15
aI5
aa(lp565
I15
aI13
aa(lp566
I17
aI5
aa(lp567
I17
aI13
aaI16
aa(lp568
I1
a(lp569
I13
aI6
aa(lp570
I13
aI14
aa(lp571
I15
aI6
aa(lp572
I15
aI14
aa(lp573
I17
aI6
aa(lp574
I17
aI14
aaI16
aa(lp575
I1
a(lp576
I12
aI3
aa(lp577
I12
aI11
aa(lp578
I15
aI3
aa(lp579
I15
aI11
aa(lp580
I18
aI3
aa(lp581
I18
aI11
aaI24
aa(lp582
I1
a(lp583
I12
aI4
aa(lp584
I12
aI12
aa(lp585
I15
aI4
aa(lp586
I15
aI12
aa(lp587
I18
aI4
aa(lp588
I18
aI12
aaI24
aa(lp589
I1
a(lp590
I12
aI5
aa(lp591
I12
aI13
aa(lp592
I15
aI5
aa(lp593
I15
aI13
aa(lp594
I18
aI5
aa(lp595
I18
aI13
aaI24
aa(lp596
I1
a(lp597
I1
aI7
aa(lp598
I1
aI15
aa(lp599
I5
aI7
aa(lp600
I5
aI15
aa(lp601
I9
aI7
aa(lp602
I9
aI15
aaI32
aa(lp603
I1
a(lp604
I1
aI8
aa(lp605
I1
aI16
aa(lp606
I5
aI8
aa(lp607
I5
aI16
aa(lp608
I9
aI8
aa(lp609
I9
aI16
aaI32
aa(lp610
I1
a(lp611
I0
aI8
aa(lp612
I0
aI16
aa(lp613
I5
aI8
aa(lp614
I5
aI16
aa(lp615
I10
aI8
aa(lp616
I10
aI16
aaI40
aa(lp617
I1
a(lp618
I0
aI9
aa(lp619
I0
aI17
aa(lp620
I5
aI9
aa(lp621
I5
aI17
aa(lp622
I10
aI9
aa(lp623
I10
aI17
aaI40
aa(lp624
I1
a(lp625
I13
aI4
aa(lp626
I13
aI13
aa(lp627
I15
aI4
aa(lp628
I15
aI13
aa(lp629
I17
aI4
aa(lp630
I17
aI13
aaI18
aa(lp631
I1
a(lp632
I13
aI5
aa(lp633
I13
aI14
aa(lp634
I15
aI5
aa(lp635
I15
aI14
aa(lp636
I17
aI5
aa(lp637
I17
aI14
aaI18
aa(lp638
I1
a(lp639
I12
aI3
aa(lp640
I12
aI12
aa(lp641
I15
aI3
aa(lp642
I15
aI12
aa(lp643
I18
aI3
aa(lp644
I18
aI12
aaI27
aa(lp645
I1
a(lp646
I12
aI4
aa(lp647
I12
aI13
aa(lp648
I15
aI4
aa(lp649
I15
aI13
aa(lp650
I18
aI4
aa(lp651
I18
aI13
aaI27
aa(lp652
I1
a(lp653
I0
aI8
aa(lp654
I0
aI17
aa(lp655
I5
aI8
aa(lp656
I5
aI17
aa(lp657
I10
aI8
aa(lp658
I10
aI17
aaI45
aa(lp659
I1
a(lp660
I13
aI3
aa(lp661
I13
aI13
aa(lp662
I15
aI3
aa(lp663
I15
aI13
aa(lp664
I17
aI3
aa(lp665
I17
aI13
aaI20
aa(lp666
I1
a(lp667
I13
aI4
aa(lp668
I13
aI14
aa(lp669
I15
aI4
aa(lp670
I15
aI14
aa(lp671
I17
aI4
aa(lp672
I17
aI14
aaI20
aa(lp673
I1
a(lp674
I12
aI3
aa(lp675
I12
aI13
aa(lp676
I15
aI3
aa(lp677
I15
aI13
aa(lp678
I18
aI3
aa(lp679
I18
aI13
aaI30
aa(lp680
I1
a(lp681
I12
aI4
aa(lp682
I12
aI14
aa(lp683
I15
aI4
aa(lp684
I15
aI14
aa(lp685
I18
aI4
aa(lp686
I18
aI14
aaI30
aa(lp687
I1
a(lp688
I0
aI8
aa(lp689
I0
aI18
aa(lp690
I5
aI8
aa(lp691
I5
aI18
aa(lp692
I10
aI8
aa(lp693
I10
aI18
aaI50
aa(lp694
I1
a(lp695
I12
aI3
aa(lp696
I12
aI14
aa(lp697
I15
aI3
aa(lp698
I15
aI14
aa(lp699
I18
aI3
aa(lp700
I18
aI14
aaI33
aa(lp701
I-1
a(lp702
I6
aI8
aa(lp703
I6
aI9
aa(lp704
I9
aI8
aa(lp705
I9
aI9
aa(lp706
I12
aI8
aa(lp707
I12
aI9
aaI3
aa(lp708
I-1
a(lp709
I6
aI9
aa(lp710
I6
aI10
aa(lp711
I9
aI9
aa(lp712
I9
aI10
aa(lp713
I12
aI9
aa(lp714
I12
aI10
aaI3
aa(lp715
I-1
a(lp716
I7
aI8
aa(lp717
I7
aI9
aa(lp718
I10
aI8
aa(lp719
I10
aI9
aa(lp720
I13
aI8
aa(lp721
I13
aI9
aaI3
aa(lp722
I-1
a(lp723
I7
aI9
aa(lp724
I7
aI10
aa(lp725
I10
aI9
aa(lp726
I10
aI10
aa(lp727
I13
aI9
aa(lp728
I13
aI10
aaI3
aa(lp729
I-1
a(lp730
I8
aI3
aa(lp731
I8
aI4
aa(lp732
I11
aI3
aa(lp733
I11
aI4
aa(lp734
I14
aI3
aa(lp735
I14
aI4
aaI3
aa(lp736
I-1
a(lp737
I8
aI14
aa(lp738
I8
aI15
aa(lp739
I11
aI14
aa(lp740
I11
aI15
aa(lp741
I14
aI14
aa(lp742
I14
aI15
aaI3
aa(lp743
I-1
a(lp744
I5
aI8
aa(lp745
I5
aI9
aa(lp746
I9
aI8
aa(lp747
I9
aI9
aa(lp748
I13
aI8
aa(lp749
I13
aI9
aaI4
aa(lp750
I-1
a(lp751
I5
aI9
aa(lp752
I5
aI10
aa(lp753
I9
aI9
aa(lp754
I9
aI10
aa(lp755
I13
aI9
aa(lp756
I13
aI10
aaI4
aa(lp757
I-1
a(lp758
I6
aI3
aa(lp759
I6
aI4
aa(lp760
I10
aI3
aa(lp761
I10
aI4
aa(lp762
I14
aI3
aa(lp763
I14
aI4
aaI4
aa(lp764
I-1
a(lp765
I6
aI4
aa(lp766
I6
aI5
aa(lp767
I10
aI4
aa(lp768
I10
aI5
aa(lp769
I14
aI4
aa(lp770
I14
aI5
aaI4
aa(lp771
I-1
a(lp772
I6
aI8
aa(lp773
I6
aI9
aa(lp774
I10
aI8
aa(lp775
I10
aI9
aa(lp776
I14
aI8
aa(lp777
I14
aI9
aaI4
aa(lp778
I-1
a(lp779
I6
aI9
aa(lp780
I6
aI10
aa(lp781
I10
aI9
aa(lp782
I10
aI10
aa(lp783
I14
aI9
aa(lp784
I14
aI10
aaI4
aa(lp785
I-1
a(lp786
I6
aI10
aa(lp787
I6
aI11
aa(lp788
I10
aI10
aa(lp789
I10
aI11
aa(lp790
I14
aI10
aa(lp791
I14
aI11
aaI4
aa(lp792
I-1
a(lp793
I6
aI13
aa(lp794
I6
aI14
aa(lp795
I10
aI13
aa(lp796
I10
aI14
aa(lp797
I14
aI13
aa(lp798
I14
aI14
aaI4
aa(lp799
I-1
a(lp800
I6
aI14
aa(lp801
I6
aI15
aa(lp802
I10
aI14
aa(lp803
I10
aI15
aa(lp804
I14
aI14
aa(lp805
I14
aI15
aaI4
aa(lp806
I-1
a(lp807
I7
aI2
aa(lp808
I7
aI3
aa(lp809
I11
aI2
aa(lp810
I11
aI3
aa(lp811
I15
aI2
aa(lp812
I15
aI3
aaI4
aa(lp813
I-1
a(lp814
I7
aI3
aa(lp815
I7
aI4
aa(lp816
I11
aI3
aa(lp817
I11
aI4
aa(lp818
I15
aI3
aa(lp819
I15
aI4
aaI4
aa(lp820
I-1
a(lp821
I7
aI4
aa(lp822
I7
aI5
aa(lp823
I11
aI4
aa(lp824
I11
aI5
aa(lp825
I15
aI4
aa(lp826
I15
aI5
aaI4
aa(lp827
I-1
a(lp828
I7
aI8
aa(lp829
I7
aI9
aa(lp830
I11
aI8
aa(lp831
I11
aI9
aa(lp832
I15
aI8
aa(lp833
I15
aI9
aaI4
aa(lp834
I-1
a(lp835
I7
aI13
aa(lp836
I7
aI14
aa(lp837
I11
aI13
aa(lp838
I11
aI14
aa(lp839
I15
aI13
aa(lp840
I15
aI14
aaI4
aa(lp841
I-1
a(lp842
I7
aI14
aa(lp843
I7
aI15
aa(lp844
I11
aI14
aa(lp845
I11
aI15
aa(lp846
I15
aI14
aa(lp847
I15
aI15
aaI4
aa(lp848
I-1
a(lp849
I3
aI8
aa(lp850
I3
aI9
aa(lp851
I8
aI8
aa(lp852
I8
aI9
aa(lp853
I13
aI8
aa(lp854
I13
aI9
aaI5
aa(lp855
I-1
a(lp856
I4
aI8
aa(lp857
I4
aI9
aa(lp858
I9
aI8
aa(lp859
I9
aI9
aa(lp860
I14
aI8
aa(lp861
I14
aI9
aaI5
aa(lp862
I-1
a(lp863
I4
aI9
aa(lp864
I4
aI10
aa(lp865
I9
aI9
aa(lp866
I9
aI10
aa(lp867
I14
aI9
aa(lp868
I14
aI10
aaI5
aa(lp869
I-1
a(lp870
I5
aI4
aa(lp871
I5
aI5
aa(lp872
I10
aI4
aa(lp873
I10
aI5
aa(lp874
I15
aI4
aa(lp875
I15
aI5
aaI5
aa(lp876
I-1
a(lp877
I5
aI8
aa(lp878
I5
aI9
aa(lp879
I10
aI8
aa(lp880
I10
aI9
aa(lp881
I15
aI8
aa(lp882
I15
aI9
aaI5
aa(lp883
I-1
a(lp884
I5
aI9
aa(lp885
I5
aI10
aa(lp886
I10
aI9
aa(lp887
I10
aI10
aa(lp888
I15
aI9
aa(lp889
I15
aI10
aaI5
aa(lp890
I-1
a(lp891
I5
aI13
aa(lp892
I5
aI14
aa(lp893
I10
aI13
aa(lp894
I10
aI14
aa(lp895
I15
aI13
aa(lp896
I15
aI14
aaI5
aa(lp897
I-1
a(lp898
I6
aI3
aa(lp899
I6
aI4
aa(lp900
I11
aI3
aa(lp901
I11
aI4
aa(lp902
I16
aI3
aa(lp903
I16
aI4
aaI5
aa(lp904
I-1
a(lp905
I6
aI4
aa(lp906
I6
aI5
aa(lp907
I11
aI4
aa(lp908
I11
aI5
aa(lp909
I16
aI4
aa(lp910
I16
aI5
aaI5
aa(lp911
I-1
a(lp912
I6
aI13
aa(lp913
I6
aI14
aa(lp914
I11
aI13
aa(lp915
I11
aI14
aa(lp916
I16
aI13
aa(lp917
I16
aI14
aaI5
aa(lp918
I-1
a(lp919
I6
aI14
aa(lp920
I6
aI15
aa(lp921
I11
aI14
aa(lp922
I11
aI15
aa(lp923
I16
aI14
aa(lp924
I16
aI15
aaI5
aa(lp925
I-1
a(lp926
I6
aI15
aa(lp927
I6
aI16
aa(lp928
I11
aI15
aa(lp929
I11
aI16
aa(lp930
I16
aI15
aa(lp931
I16
aI16
aaI5
aa(lp932
I-1
a(lp933
I2
aI8
aa(lp934
I2
aI9
aa(lp935
I8
aI8
aa(lp936
I8
aI9
aa(lp937
I14
aI8
aa(lp938
I14
aI9
aaI6
aa(lp939
I-1
a(lp940
I3
aI8
aa(lp941
I3
aI9
aa(lp942
I9
aI8
aa(lp943
I9
aI9
aa(lp944
I15
aI8
aa(lp945
I15
aI9
aaI6
aa(lp946
I-1
a(lp947
I3
aI9
aa(lp948
I3
aI10
aa(lp949
I9
aI9
aa(lp950
I9
aI10
aa(lp951
I15
aI9
aa(lp952
I15
aI10
aaI6
aa(lp953
I-1
a(lp954
I4
aI8
aa(lp955
I4
aI9
aa(lp956
I10
aI8
aa(lp957
I10
aI9
aa(lp958
I16
aI8
aa(lp959
I16
aI9
aaI6
aa(lp960
I-1
a(lp961
I4
aI9
aa(lp962
I4
aI10
aa(lp963
I10
aI9
aa(lp964
I10
aI10
aa(lp965
I16
aI9
aa(lp966
I16
aI10
aaI6
aa(lp967
I-1
a(lp968
I5
aI8
aa(lp969
I5
aI9
aa(lp970
I11
aI8
aa(lp971
I11
aI9
aa(lp972
I17
aI8
aa(lp973
I17
aI9
aaI6
aa(lp974
I-1
a(lp975
I5
aI14
aa(lp976
I5
aI15
aa(lp977
I11
aI14
aa(lp978
I11
aI15
aa(lp979
I17
aI14
aa(lp980
I17
aI15
aaI6
aa(lp981
I-1
a(lp982
I5
aI15
aa(lp983
I5
aI16
aa(lp984
I11
aI15
aa(lp985
I11
aI16
aa(lp986
I17
aI15
aa(lp987
I17
aI16
aaI6
aa(lp988
I-1
a(lp989
I5
aI16
aa(lp990
I5
aI17
aa(lp991
I11
aI16
aa(lp992
I11
aI17
aa(lp993
I17
aI16
aa(lp994
I17
aI17
aaI6
aa(lp995
I-1
a(lp996
I6
aI14
aa(lp997
I6
aI15
aa(lp998
I12
aI14
aa(lp999
I12
aI15
aa(lp1000
I18
aI14
aa(lp1001
I18
aI15
aaI6
aa(lp1002
I-1
a(lp1003
I6
aI15
aa(lp1004
I6
aI16
aa(lp1005
I12
aI15
aa(lp1006
I12
aI16
aa(lp1007
I18
aI15
aa(lp1008
I18
aI16
aaI6
aa(lp1009
I-1
a(lp1010
I6
aI16
aa(lp1011
I6
aI17
aa(lp1012
I12
aI16
aa(lp1013
I12
aI17
aa(lp1014
I18
aI16
aa(lp1015
I18
aI17
aaI6
aa(lp1016
I-1
a(lp1017
I6
aI17
aa(lp1018
I6
aI18
aa(lp1019
I12
aI17
aa(lp1020
I12
aI18
aa(lp1021
I18
aI17
aa(lp1022
I18
aI18
aaI6
aa(lp1023
I-1
a(lp1024
I1
aI8
aa(lp1025
I1
aI9
aa(lp1026
I8
aI8
aa(lp1027
I8
aI9
aa(lp1028
I15
aI8
aa(lp1029
I15
aI9
aaI7
aa(lp1030
I-1
a(lp1031
I2
aI8
aa(lp1032
I2
aI9
aa(lp1033
I9
aI8
aa(lp1034
I9
aI9
aa(lp1035
I16
aI8
aa(lp1036
I16
aI9
aaI7
aa(lp1037
I-1
a(lp1038
I2
aI9
aa(lp1039
I2
aI10
aa(lp1040
I9
aI9
aa(lp1041
I9
aI10
aa(lp1042
I16
aI9
aa(lp1043
I16
aI10
aaI7
aa(lp1044
I-1
a(lp1045
I3
aI8
aa(lp1046
I3
aI9
aa(lp1047
I10
aI8
aa(lp1048
I10
aI9
aa(lp1049
I17
aI8
aa(lp1050
I17
aI9
aaI7
aa(lp1051
I-1
a(lp1052
I3
aI9
aa(lp1053
I3
aI10
aa(lp1054
I10
aI9
aa(lp1055
I10
aI10
aa(lp1056
I17
aI9
aa(lp1057
I17
aI10
aaI7
aa(lp1058
I-1
a(lp1059
I4
aI8
aa(lp1060
I4
aI9
aa(lp1061
I11
aI8
aa(lp1062
I11
aI9
aa(lp1063
I18
aI8
aa(lp1064
I18
aI9
aaI7
aa(lp1065
I-1
a(lp1066
I4
aI16
aa(lp1067
I4
aI17
aa(lp1068
I11
aI16
aa(lp1069
I11
aI17
aa(lp1070
I18
aI16
aa(lp1071
I18
aI17
aaI7
aa(lp1072
I-1
a(lp1073
I4
aI17
aa(lp1074
I4
aI18
aa(lp1075
I11
aI17
aa(lp1076
I11
aI18
aa(lp1077
I18
aI17
aa(lp1078
I18
aI18
aaI7
aa(lp1079
I-1
a(lp1080
I-1
aI8
aa(lp1081
I-1
aI9
aa(lp1082
I7
aI8
aa(lp1083
I7
aI9
aa(lp1084
I15
aI8
aa(lp1085
I15
aI9
aaI8
aa(lp1086
I-1
a(lp1087
I0
aI8
aa(lp1088
I0
aI9
aa(lp1089
I8
aI8
aa(lp1090
I8
aI9
aa(lp1091
I16
aI8
aa(lp1092
I16
aI9
aaI8
aa(lp1093
I-1
a(lp1094
I1
aI8
aa(lp1095
I1
aI9
aa(lp1096
I9
aI8
aa(lp1097
I9
aI9
aa(lp1098
I17
aI8
aa(lp1099
I17
aI9
aaI8
aa(lp1100
I-1
a(lp1101
I2
aI8
aa(lp1102
I2
aI9
aa(lp1103
I10
aI8
aa(lp1104
I10
aI9
aa(lp1105
I18
aI8
aa(lp1106
I18
aI9
aaI8
aa(lp1107
I-1
a(lp1108
I-1
aI8
aa(lp1109
I-1
aI9
aa(lp1110
I8
aI8
aa(lp1111
I8
aI9
aa(lp1112
I17
aI8
aa(lp1113
I17
aI9
aaI9
aa(lp1114
I-1
a(lp1115
I0
aI8
aa(lp1116
I0
aI9
aa(lp1117
I9
aI8
aa(lp1118
I9
aI9
aa(lp1119
I18
aI8
aa(lp1120
I18
aI9
aaI9
aa(lp1121
I-1
a(lp1122
I0
aI9
aa(lp1123
I0
aI10
aa(lp1124
I9
aI9
aa(lp1125
I9
aI10
aa(lp1126
I18
aI9
aa(lp1127
I18
aI10
aaI9
aa(lp1128
I-1
a(lp1129
I6
aI8
aa(lp1130
I6
aI10
aa(lp1131
I9
aI8
aa(lp1132
I9
aI10
aa(lp1133
I12
aI8
aa(lp1134
I12
aI10
aaI6
aa(lp1135
I-1
a(lp1136
I7
aI8
aa(lp1137
I7
aI10
aa(lp1138
I10
aI8
aa(lp1139
I10
aI10
aa(lp1140
I13
aI8
aa(lp1141
I13
aI10
aaI6
aa(lp1142
I-1
a(lp1143
I7
aI9
aa(lp1144
I7
aI11
aa(lp1145
I10
aI9
aa(lp1146
I10
aI11
aa(lp1147
I13
aI9
aa(lp1148
I13
aI11
aaI6
aa(lp1149
I-1
a(lp1150
I8
aI2
aa(lp1151
I8
aI4
aa(lp1152
I11
aI2
aa(lp1153
I11
aI4
aa(lp1154
I14
aI2
aa(lp1155
I14
aI4
aaI6
aa(lp1156
I-1
a(lp1157
I8
aI3
aa(lp1158
I8
aI5
aa(lp1159
I11
aI3
aa(lp1160
I11
aI5
aa(lp1161
I14
aI3
aa(lp1162
I14
aI5
aaI6
aa(lp1163
I-1
a(lp1164
I8
aI13
aa(lp1165
I8
aI15
aa(lp1166
I11
aI13
aa(lp1167
I11
aI15
aa(lp1168
I14
aI13
aa(lp1169
I14
aI15
aaI6
aa(lp1170
I-1
a(lp1171
I5
aI7
aa(lp1172
I5
aI9
aa(lp1173
I9
aI7
aa(lp1174
I9
aI9
aa(lp1175
I13
aI7
aa(lp1176
I13
aI9
aaI8
aa(lp1177
I-1
a(lp1178
I5
aI8
aa(lp1179
I5
aI10
aa(lp1180
I9
aI8
aa(lp1181
I9
aI10
aa(lp1182
I13
aI8
aa(lp1183
I13
aI10
aaI8
aa(lp1184
I-1
a(lp1185
I5
aI9
aa(lp1186
I5
aI11
aa(lp1187
I9
aI9
aa(lp1188
I9
aI11
aa(lp1189
I13
aI9
aa(lp1190
I13
aI11
aaI8
aa(lp1191
I-1
a(lp1192
I6
aI3
aa(lp1193
I6
aI5
aa(lp1194
I10
aI3
aa(lp1195
I10
aI5
aa(lp1196
I14
aI3
aa(lp1197
I14
aI5
aaI8
aa(lp1198
I-1
a(lp1199
I6
aI7
aa(lp1200
I6
aI9
aa(lp1201
I10
aI7
aa(lp1202
I10
aI9
aa(lp1203
I14
aI7
aa(lp1204
I14
aI9
aaI8
aa(lp1205
I-1
a(lp1206
I6
aI8
aa(lp1207
I6
aI10
aa(lp1208
I10
aI8
aa(lp1209
I10
aI10
aa(lp1210
I14
aI8
aa(lp1211
I14
aI10
aaI8
aa(lp1212
I-1
a(lp1213
I6
aI9
aa(lp1214
I6
aI11
aa(lp1215
I10
aI9
aa(lp1216
I10
aI11
aa(lp1217
I14
aI9
aa(lp1218
I14
aI11
aaI8
aa(lp1219
I-1
a(lp1220
I6
aI13
aa(lp1221
I6
aI15
aa(lp1222
I10
aI13
aa(lp1223
I10
aI15
aa(lp1224
I14
aI13
aa(lp1225
I14
aI15
aaI8
aa(lp1226
I-1
a(lp1227
I7
aI2
aa(lp1228
I7
aI4
aa(lp1229
I11
aI2
aa(lp1230
I11
aI4
aa(lp1231
I15
aI2
aa(lp1232
I15
aI4
aaI8
aa(lp1233
I-1
a(lp1234
I7
aI3
aa(lp1235
I7
aI5
aa(lp1236
I11
aI3
aa(lp1237
I11
aI5
aa(lp1238
I15
aI3
aa(lp1239
I15
aI5
aaI8
aa(lp1240
I-1
a(lp1241
I7
aI4
aa(lp1242
I7
aI6
aa(lp1243
I11
aI4
aa(lp1244
I11
aI6
aa(lp1245
I15
aI4
aa(lp1246
I15
aI6
aaI8
aa(lp1247
I-1
a(lp1248
I7
aI12
aa(lp1249
I7
aI14
aa(lp1250
I11
aI12
aa(lp1251
I11
aI14
aa(lp1252
I15
aI12
aa(lp1253
I15
aI14
aaI8
aa(lp1254
I-1
a(lp1255
I7
aI13
aa(lp1256
I7
aI15
aa(lp1257
I11
aI13
aa(lp1258
I11
aI15
aa(lp1259
I15
aI13
aa(lp1260
I15
aI15
aaI8
aa(lp1261
I-1
a(lp1262
I7
aI14
aa(lp1263
I7
aI16
aa(lp1264
I11
aI14
aa(lp1265
I11
aI16
aa(lp1266
I15
aI14
aa(lp1267
I15
aI16
aaI8
aa(lp1268
I-1
a(lp1269
I4
aI7
aa(lp1270
I4
aI9
aa(lp1271
I9
aI7
aa(lp1272
I9
aI9
aa(lp1273
I14
aI7
aa(lp1274
I14
aI9
aaI10
aa(lp1275
I-1
a(lp1276
I4
aI8
aa(lp1277
I4
aI10
aa(lp1278
I9
aI8
aa(lp1279
I9
aI10
aa(lp1280
I14
aI8
aa(lp1281
I14
aI10
aaI10
aa(lp1282
I-1
a(lp1283
I4
aI9
aa(lp1284
I4
aI11
aa(lp1285
I9
aI9
aa(lp1286
I9
aI11
aa(lp1287
I14
aI9
aa(lp1288
I14
aI11
aaI10
aa(lp1289
I-1
a(lp1290
I5
aI3
aa(lp1291
I5
aI5
aa(lp1292
I10
aI3
aa(lp1293
I10
aI5
aa(lp1294
I15
aI3
aa(lp1295
I15
aI5
aaI10
aa(lp1296
I-1
a(lp1297
I5
aI4
aa(lp1298
I5
aI6
aa(lp1299
I10
aI4
aa(lp1300
I10
aI6
aa(lp1301
I15
aI4
aa(lp1302
I15
aI6
aaI10
aa(lp1303
I-1
a(lp1304
I5
aI7
aa(lp1305
I5
aI9
aa(lp1306
I10
aI7
aa(lp1307
I10
aI9
aa(lp1308
I15
aI7
aa(lp1309
I15
aI9
aaI10
aa(lp1310
I-1
a(lp1311
I5
aI8
aa(lp1312
I5
aI10
aa(lp1313
I10
aI8
aa(lp1314
I10
aI10
aa(lp1315
I15
aI8
aa(lp1316
I15
aI10
aaI10
aa(lp1317
I-1
a(lp1318
I5
aI9
aa(lp1319
I5
aI11
aa(lp1320
I10
aI9
aa(lp1321
I10
aI11
aa(lp1322
I15
aI9
aa(lp1323
I15
aI11
aaI10
aa(lp1324
I-1
a(lp1325
I6
aI2
aa(lp1326
I6
aI4
aa(lp1327
I11
aI2
aa(lp1328
I11
aI4
aa(lp1329
I16
aI2
aa(lp1330
I16
aI4
aaI10
aa(lp1331
I-1
a(lp1332
I6
aI3
aa(lp1333
I6
aI5
aa(lp1334
I11
aI3
aa(lp1335
I11
aI5
aa(lp1336
I16
aI3
aa(lp1337
I16
aI5
aaI10
aa(lp1338
I-1
a(lp1339
I6
aI4
aa(lp1340
I6
aI6
aa(lp1341
I11
aI4
aa(lp1342
I11
aI6
aa(lp1343
I16
aI4
aa(lp1344
I16
aI6
aaI10
aa(lp1345
I-1
a(lp1346
I6
aI12
aa(lp1347
I6
aI14
aa(lp1348
I11
aI12
aa(lp1349
I11
aI14
aa(lp1350
I16
aI12
aa(lp1351
I16
aI14
aaI10
aa(lp1352
I-1
a(lp1353
I6
aI13
aa(lp1354
I6
aI15
aa(lp1355
I11
aI13
aa(lp1356
I11
aI15
aa(lp1357
I16
aI13
aa(lp1358
I16
aI15
aaI10
aa(lp1359
I-1
a(lp1360
I6
aI14
aa(lp1361
I6
aI16
aa(lp1362
I11
aI14
aa(lp1363
I11
aI16
aa(lp1364
I16
aI14
aa(lp1365
I16
aI16
aaI10
aa(lp1366
I-1
a(lp1367
I6
aI15
aa(lp1368
I6
aI17
aa(lp1369
I11
aI15
aa(lp1370
I11
aI17
aa(lp1371
I16
aI15
aa(lp1372
I16
aI17
aaI10
aa(lp1373
I-1
a(lp1374
I2
aI8
aa(lp1375
I2
aI10
aa(lp1376
I8
aI8
aa(lp1377
I8
aI10
aa(lp1378
I14
aI8
aa(lp1379
I14
aI10
aaI12
aa(lp1380
I-1
a(lp1381
I3
aI7
aa(lp1382
I3
aI9
aa(lp1383
I9
aI7
aa(lp1384
I9
aI9
aa(lp1385
I15
aI7
aa(lp1386
I15
aI9
aaI12
aa(lp1387
I-1
a(lp1388
I3
aI8
aa(lp1389
I3
aI10
aa(lp1390
I9
aI8
aa(lp1391
I9
aI10
aa(lp1392
I15
aI8
aa(lp1393
I15
aI10
aaI12
aa(lp1394
I-1
a(lp1395
I4
aI7
aa(lp1396
I4
aI9
aa(lp1397
I10
aI7
aa(lp1398
I10
aI9
aa(lp1399
I16
aI7
aa(lp1400
I16
aI9
aaI12
aa(lp1401
I-1
a(lp1402
I4
aI8
aa(lp1403
I4
aI10
aa(lp1404
I10
aI8
aa(lp1405
I10
aI10
aa(lp1406
I16
aI8
aa(lp1407
I16
aI10
aaI12
aa(lp1408
I-1
a(lp1409
I5
aI13
aa(lp1410
I5
aI15
aa(lp1411
I11
aI13
aa(lp1412
I11
aI15
aa(lp1413
I17
aI13
aa(lp1414
I17
aI15
aaI12
aa(lp1415
I-1
a(lp1416
I5
aI14
aa(lp1417
I5
aI16
aa(lp1418
I11
aI14
aa(lp1419
I11
aI16
aa(lp1420
I17
aI14
aa(lp1421
I17
aI16
aaI12
aa(lp1422
I-1
a(lp1423
I5
aI15
aa(lp1424
I5
aI17
aa(lp1425
I11
aI15
aa(lp1426
I11
aI17
aa(lp1427
I17
aI15
aa(lp1428
I17
aI17
aaI12
aa(lp1429
I-1
a(lp1430
I6
aI14
aa(lp1431
I6
aI16
aa(lp1432
I12
aI14
aa(lp1433
I12
aI16
aa(lp1434
I18
aI14
aa(lp1435
I18
aI16
aaI12
aa(lp1436
I-1
a(lp1437
I6
aI15
aa(lp1438
I6
aI17
aa(lp1439
I12
aI15
aa(lp1440
I12
aI17
aa(lp1441
I18
aI15
aa(lp1442
I18
aI17
aaI12
aa(lp1443
I-1
a(lp1444
I1
aI7
aa(lp1445
I1
aI9
aa(lp1446
I8
aI7
aa(lp1447
I8
aI9
aa(lp1448
I15
aI7
aa(lp1449
I15
aI9
aaI14
aa(lp1450
I-1
a(lp1451
I1
aI8
aa(lp1452
I1
aI10
aa(lp1453
I8
aI8
aa(lp1454
I8
aI10
aa(lp1455
I15
aI8
aa(lp1456
I15
aI10
aaI14
aa(lp1457
I-1
a(lp1458
I2
aI7
aa(lp1459
I2
aI9
aa(lp1460
I9
aI7
aa(lp1461
I9
aI9
aa(lp1462
I16
aI7
aa(lp1463
I16
aI9
aaI14
aa(lp1464
I-1
a(lp1465
I2
aI8
aa(lp1466
I2
aI10
aa(lp1467
I9
aI8
aa(lp1468
I9
aI10
aa(lp1469
I16
aI8
aa(lp1470
I16
aI10
aaI14
aa(lp1471
I-1
a(lp1472
I3
aI8
aa(lp1473
I3
aI10
aa(lp1474
I10
aI8
aa(lp1475
I10
aI10
aa(lp1476
I17
aI8
aa(lp1477
I17
aI10
aaI14
aa(lp1478
I-1
a(lp1479
I4
aI16
aa(lp1480
I4
aI18
aa(lp1481
I11
aI16
aa(lp1482
I11
aI18
aa(lp1483
I18
aI16
aa(lp1484
I18
aI18
aaI14
aa(lp1485
I-1
a(lp1486
I0
aI7
aa(lp1487
I0
aI9
aa(lp1488
I8
aI7
aa(lp1489
I8
aI9
aa(lp1490
I16
aI7
aa(lp1491
I16
aI9
aaI16
aa(lp1492
I-1
a(lp1493
I0
aI8
aa(lp1494
I0
aI10
aa(lp1495
I8
aI8
aa(lp1496
I8
aI10
aa(lp1497
I16
aI8
aa(lp1498
I16
aI10
aaI16
aa(lp1499
I-1
a(lp1500
I1
aI7
aa(lp1501
I1
aI9
aa(lp1502
I9
aI7
aa(lp1503
I9
aI9
aa(lp1504
I17
aI7
aa(lp1505
I17
aI9
aaI16
aa(lp1506
I-1
a(lp1507
I1
aI8
aa(lp1508
I1
aI10
aa(lp1509
I9
aI8
aa(lp1510
I9
aI10
aa(lp1511
I17
aI8
aa(lp1512
I17
aI10
aaI16
aa(lp1513
I-1
a(lp1514
I2
aI8
aa(lp1515
I2
aI10
aa(lp1516
I10
aI8
aa(lp1517
I10
aI10
aa(lp1518
I18
aI8
aa(lp1519
I18
aI10
aaI16
aa(lp1520
I-1
a(lp1521
I-1
aI7
aa(lp1522
I-1
aI9
aa(lp1523
I8
aI7
aa(lp1524
I8
aI9
aa(lp1525
I17
aI7
aa(lp1526
I17
aI9
aaI18
aa(lp1527
I-1
a(lp1528
I-1
aI8
aa(lp1529
I-1
aI10
aa(lp1530
I8
aI8
aa(lp1531
I8
aI10
aa(lp1532
I17
aI8
aa(lp1533
I17
aI10
aaI18
aa(lp1534
I-1
a(lp1535
I0
aI7
aa(lp1536
I0
aI9
aa(lp1537
I9
aI7
aa(lp1538
I9
aI9
aa(lp1539
I18
aI7
aa(lp1540
I18
aI9
aaI18
aa(lp1541
I-1
a(lp1542
I0
aI8
aa(lp1543
I0
aI10
aa(lp1544
I9
aI8
aa(lp1545
I9
aI10
aa(lp1546
I18
aI8
aa(lp1547
I18
aI10
aaI18
aa(lp1548
I-1
a(lp1549
I7
aI7
aa(lp1550
I7
aI10
aa(lp1551
I10
aI7
aa(lp1552
I10
aI10
aa(lp1553
I13
aI7
aa(lp1554
I13
aI10
aaI9
aa(lp1555
I-1
a(lp1556
I7
aI8
aa(lp1557
I7
aI11
aa(lp1558
I10
aI8
aa(lp1559
I10
aI11
aa(lp1560
I13
aI8
aa(lp1561
I13
aI11
aaI9
aa(lp1562
I-1
a(lp1563
I8
aI1
aa(lp1564
I8
aI4
aa(lp1565
I11
aI1
aa(lp1566
I11
aI4
aa(lp1567
I14
aI1
aa(lp1568
I14
aI4
aaI9
aa(lp1569
I-1
a(lp1570
I8
aI2
aa(lp1571
I8
aI5
aa(lp1572
I11
aI2
aa(lp1573
I11
aI5
aa(lp1574
I14
aI2
aa(lp1575
I14
aI5
aaI9
aa(lp1576
I-1
a(lp1577
I5
aI7
aa(lp1578
I5
aI10
aa(lp1579
I9
aI7
aa(lp1580
I9
aI10
aa(lp1581
I13
aI7
aa(lp1582
I13
aI10
aaI12
aa(lp1583
I-1
a(lp1584
I5
aI8
aa(lp1585
I5
aI11
aa(lp1586
I9
aI8
aa(lp1587
I9
aI11
aa(lp1588
I13
aI8
aa(lp1589
I13
aI11
aaI12
aa(lp1590
I-1
a(lp1591
I6
aI2
aa(lp1592
I6
aI5
aa(lp1593
I10
aI2
aa(lp1594
I10
aI5
aa(lp1595
I14
aI2
aa(lp1596
I14
aI5
aaI12
aa(lp1597
I-1
a(lp1598
I6
aI3
aa(lp1599
I6
aI6
aa(lp1600
I10
aI3
aa(lp1601
I10
aI6
aa(lp1602
I14
aI3
aa(lp1603
I14
aI6
aaI12
aa(lp1604
I-1
a(lp1605
I6
aI7
aa(lp1606
I6
aI10
aa(lp1607
I10
aI7
aa(lp1608
I10
aI10
aa(lp1609
I14
aI7
aa(lp1610
I14
aI10
aaI12
aa(lp1611
I-1
a(lp1612
I6
aI8
aa(lp1613
I6
aI11
aa(lp1614
I10
aI8
aa(lp1615
I10
aI11
aa(lp1616
I14
aI8
aa(lp1617
I14
aI11
aaI12
aa(lp1618
I-1
a(lp1619
I6
aI9
aa(lp1620
I6
aI12
aa(lp1621
I10
aI9
aa(lp1622
I10
aI12
aa(lp1623
I14
aI9
aa(lp1624
I14
aI12
aaI12
aa(lp1625
I-1
a(lp1626
I6
aI13
aa(lp1627
I6
aI16
aa(lp1628
I10
aI13
aa(lp1629
I10
aI16
aa(lp1630
I14
aI13
aa(lp1631
I14
aI16
aaI12
aa(lp1632
I-1
a(lp1633
I7
aI1
aa(lp1634
I7
aI4
aa(lp1635
I11
aI1
aa(lp1636
I11
aI4
aa(lp1637
I15
aI1
aa(lp1638
I15
aI4
aaI12
aa(lp1639
I-1
a(lp1640
I7
aI2
aa(lp1641
I7
aI5
aa(lp1642
I11
aI2
aa(lp1643
I11
aI5
aa(lp1644
I15
aI2
aa(lp1645
I15
aI5
aaI12
aa(lp1646
I-1
a(lp1647
I7
aI3
aa(lp1648
I7
aI6
aa(lp1649
I11
aI3
aa(lp1650
I11
aI6
aa(lp1651
I15
aI3
aa(lp1652
I15
aI6
aaI12
aa(lp1653
I-1
a(lp1654
I7
aI11
aa(lp1655
I7
aI14
aa(lp1656
I11
aI11
aa(lp1657
I11
aI14
aa(lp1658
I15
aI11
aa(lp1659
I15
aI14
aaI12
aa(lp1660
I-1
a(lp1661
I7
aI12
aa(lp1662
I7
aI15
aa(lp1663
I11
aI12
aa(lp1664
I11
aI15
aa(lp1665
I15
aI12
aa(lp1666
I15
aI15
aaI12
aa(lp1667
I-1
a(lp1668
I7
aI13
aa(lp1669
I7
aI16
aa(lp1670
I11
aI13
aa(lp1671
I11
aI16
aa(lp1672
I15
aI13
aa(lp1673
I15
aI16
aaI12
aa(lp1674
I-1
a(lp1675
I7
aI14
aa(lp1676
I7
aI17
aa(lp1677
I11
aI14
aa(lp1678
I11
aI17
aa(lp1679
I15
aI14
aa(lp1680
I15
aI17
aaI12
aa(lp1681
I-1
a(lp1682
I4
aI6
aa(lp1683
I4
aI9
aa(lp1684
I9
aI6
aa(lp1685
I9
aI9
aa(lp1686
I14
aI6
aa(lp1687
I14
aI9
aaI15
aa(lp1688
I-1
a(lp1689
I4
aI7
aa(lp1690
I4
aI10
aa(lp1691
I9
aI7
aa(lp1692
I9
aI10
aa(lp1693
I14
aI7
aa(lp1694
I14
aI10
aaI15
aa(lp1695
I-1
a(lp1696
I4
aI8
aa(lp1697
I4
aI11
aa(lp1698
I9
aI8
aa(lp1699
I9
aI11
aa(lp1700
I14
aI8
aa(lp1701
I14
aI11
aaI15
aa(lp1702
I-1
a(lp1703
I5
aI3
aa(lp1704
I5
aI6
aa(lp1705
I10
aI3
aa(lp1706
I10
aI6
aa(lp1707
I15
aI3
aa(lp1708
I15
aI6
aaI15
aa(lp1709
I-1
a(lp1710
I5
aI6
aa(lp1711
I5
aI9
aa(lp1712
I10
aI6
aa(lp1713
I10
aI9
aa(lp1714
I15
aI6
aa(lp1715
I15
aI9
aaI15
aa(lp1716
I-1
a(lp1717
I5
aI7
aa(lp1718
I5
aI10
aa(lp1719
I10
aI7
aa(lp1720
I10
aI10
aa(lp1721
I15
aI7
aa(lp1722
I15
aI10
aaI15
aa(lp1723
I-1
a(lp1724
I5
aI8
aa(lp1725
I5
aI11
aa(lp1726
I10
aI8
aa(lp1727
I10
aI11
aa(lp1728
I15
aI8
aa(lp1729
I15
aI11
aaI15
aa(lp1730
I-1
a(lp1731
I5
aI9
aa(lp1732
I5
aI12
aa(lp1733
I10
aI9
aa(lp1734
I10
aI12
aa(lp1735
I15
aI9
aa(lp1736
I15
aI12
aaI15
aa(lp1737
I-1
a(lp1738
I6
aI1
aa(lp1739
I6
aI4
aa(lp1740
I11
aI1
aa(lp1741
I11
aI4
aa(lp1742
I16
aI1
aa(lp1743
I16
aI4
aaI15
aa(lp1744
I-1
a(lp1745
I6
aI2
aa(lp1746
I6
aI5
aa(lp1747
I11
aI2
aa(lp1748
I11
aI5
aa(lp1749
I16
aI2
aa(lp1750
I16
aI5
aaI15
aa(lp1751
I-1
a(lp1752
I6
aI3
aa(lp1753
I6
aI6
aa(lp1754
I11
aI3
aa(lp1755
I11
aI6
aa(lp1756
I16
aI3
aa(lp1757
I16
aI6
aaI15
aa(lp1758
I-1
a(lp1759
I6
aI12
aa(lp1760
I6
aI15
aa(lp1761
I11
aI12
aa(lp1762
I11
aI15
aa(lp1763
I16
aI12
aa(lp1764
I16
aI15
aaI15
aa(lp1765
I-1
a(lp1766
I6
aI13
aa(lp1767
I6
aI16
aa(lp1768
I11
aI13
aa(lp1769
I11
aI16
aa(lp1770
I16
aI13
aa(lp1771
I16
aI16
aaI15
aa(lp1772
I-1
a(lp1773
I6
aI14
aa(lp1774
I6
aI17
aa(lp1775
I11
aI14
aa(lp1776
I11
aI17
aa(lp1777
I16
aI14
aa(lp1778
I16
aI17
aaI15
aa(lp1779
I-1
a(lp1780
I6
aI15
aa(lp1781
I6
aI18
aa(lp1782
I11
aI15
aa(lp1783
I11
aI18
aa(lp1784
I16
aI15
aa(lp1785
I16
aI18
aaI15
aa(lp1786
I-1
a(lp1787
I3
aI7
aa(lp1788
I3
aI10
aa(lp1789
I9
aI7
aa(lp1790
I9
aI10
aa(lp1791
I15
aI7
aa(lp1792
I15
aI10
aaI18
aa(lp1793
I-1
a(lp1794
I3
aI8
aa(lp1795
I3
aI11
aa(lp1796
I9
aI8
aa(lp1797
I9
aI11
aa(lp1798
I15
aI8
aa(lp1799
I15
aI11
aaI18
aa(lp1800
I-1
a(lp1801
I4
aI7
aa(lp1802
I4
aI10
aa(lp1803
I10
aI7
aa(lp1804
I10
aI10
aa(lp1805
I16
aI7
aa(lp1806
I16
aI10
aaI18
aa(lp1807
I-1
a(lp1808
I4
aI8
aa(lp1809
I4
aI11
aa(lp1810
I10
aI8
aa(lp1811
I10
aI11
aa(lp1812
I16
aI8
aa(lp1813
I16
aI11
aaI18
aa(lp1814
I-1
a(lp1815
I5
aI13
aa(lp1816
I5
aI16
aa(lp1817
I11
aI13
aa(lp1818
I11
aI16
aa(lp1819
I17
aI13
aa(lp1820
I17
aI16
aaI18
aa(lp1821
I-1
a(lp1822
I5
aI14
aa(lp1823
I5
aI17
aa(lp1824
I11
aI14
aa(lp1825
I11
aI17
aa(lp1826
I17
aI14
aa(lp1827
I17
aI17
aaI18
aa(lp1828
I-1
a(lp1829
I5
aI15
aa(lp1830
I5
aI18
aa(lp1831
I11
aI15
aa(lp1832
I11
aI18
aa(lp1833
I17
aI15
aa(lp1834
I17
aI18
aaI18
aa(lp1835
I-1
a(lp1836
I6
aI13
aa(lp1837
I6
aI16
aa(lp1838
I12
aI13
aa(lp1839
I12
aI16
aa(lp1840
I18
aI13
aa(lp1841
I18
aI16
aaI18
aa(lp1842
I-1
a(lp1843
I6
aI14
aa(lp1844
I6
aI17
aa(lp1845
I12
aI14
aa(lp1846
I12
aI17
aa(lp1847
I18
aI14
aa(lp1848
I18
aI17
aaI18
aa(lp1849
I-1
a(lp1850
I6
aI15
aa(lp1851
I6
aI18
aa(lp1852
I12
aI15
aa(lp1853
I12
aI18
aa(lp1854
I18
aI15
aa(lp1855
I18
aI18
aaI18
aa(lp1856
I-1
a(lp1857
I1
aI7
aa(lp1858
I1
aI10
aa(lp1859
I8
aI7
aa(lp1860
I8
aI10
aa(lp1861
I15
aI7
aa(lp1862
I15
aI10
aaI21
aa(lp1863
I-1
a(lp1864
I2
aI7
aa(lp1865
I2
aI10
aa(lp1866
I9
aI7
aa(lp1867
I9
aI10
aa(lp1868
I16
aI7
aa(lp1869
I16
aI10
aaI21
aa(lp1870
I-1
a(lp1871
I2
aI8
aa(lp1872
I2
aI11
aa(lp1873
I9
aI8
aa(lp1874
I9
aI11
aa(lp1875
I16
aI8
aa(lp1876
I16
aI11
aaI21
aa(lp1877
I-1
a(lp1878
I4
aI15
aa(lp1879
I4
aI18
aa(lp1880
I11
aI15
aa(lp1881
I11
aI18
aa(lp1882
I18
aI15
aa(lp1883
I18
aI18
aaI21
aa(lp1884
I-1
a(lp1885
I0
aI7
aa(lp1886
I0
aI10
aa(lp1887
I8
aI7
aa(lp1888
I8
aI10
aa(lp1889
I16
aI7
aa(lp1890
I16
aI10
aaI24
aa(lp1891
I-1
a(lp1892
I1
aI7
aa(lp1893
I1
aI10
aa(lp1894
I9
aI7
aa(lp1895
I9
aI10
aa(lp1896
I17
aI7
aa(lp1897
I17
aI10
aaI24
aa(lp1898
I-1
a(lp1899
I-1
aI7
aa(lp1900
I-1
aI10
aa(lp1901
I8
aI7
aa(lp1902
I8
aI10
aa(lp1903
I17
aI7
aa(lp1904
I17
aI10
aaI27
aa(lp1905
I-1
a(lp1906
I0
aI7
aa(lp1907
I0
aI10
aa(lp1908
I9
aI7
aa(lp1909
I9
aI10
aa(lp1910
I18
aI7
aa(lp1911
I18
aI10
aaI27
aa(lp1912
I-1
a(lp1913
I8
aI1
aa(lp1914
I8
aI5
aa(lp1915
I11
aI1
aa(lp1916
I11
aI5
aa(lp1917
I14
aI1
aa(lp1918
I14
aI5
aaI12
aa(lp1919
I-1
a(lp1920
I5
aI7
aa(lp1921
I5
aI11
aa(lp1922
I9
aI7
aa(lp1923
I9
aI11
aa(lp1924
I13
aI7
aa(lp1925
I13
aI11
aaI16
aa(lp1926
I-1
a(lp1927
I5
aI8
aa(lp1928
I5
aI12
aa(lp1929
I9
aI8
aa(lp1930
I9
aI12
aa(lp1931
I13
aI8
aa(lp1932
I13
aI12
aaI16
aa(lp1933
I-1
a(lp1934
I6
aI6
aa(lp1935
I6
aI10
aa(lp1936
I10
aI6
aa(lp1937
I10
aI10
aa(lp1938
I14
aI6
aa(lp1939
I14
aI10
aaI16
aa(lp1940
I-1
a(lp1941
I6
aI7
aa(lp1942
I6
aI11
aa(lp1943
I10
aI7
aa(lp1944
I10
aI11
aa(lp1945
I14
aI7
aa(lp1946
I14
aI11
aaI16
aa(lp1947
I-1
a(lp1948
I6
aI8
aa(lp1949
I6
aI12
aa(lp1950
I10
aI8
aa(lp1951
I10
aI12
aa(lp1952
I14
aI8
aa(lp1953
I14
aI12
aaI16
aa(lp1954
I-1
a(lp1955
I6
aI9
aa(lp1956
I6
aI13
aa(lp1957
I10
aI9
aa(lp1958
I10
aI13
aa(lp1959
I14
aI9
aa(lp1960
I14
aI13
aaI16
aa(lp1961
I-1
a(lp1962
I6
aI12
aa(lp1963
I6
aI16
aa(lp1964
I10
aI12
aa(lp1965
I10
aI16
aa(lp1966
I14
aI12
aa(lp1967
I14
aI16
aaI16
aa(lp1968
I-1
a(lp1969
I6
aI13
aa(lp1970
I6
aI17
aa(lp1971
I10
aI13
aa(lp1972
I10
aI17
aa(lp1973
I14
aI13
aa(lp1974
I14
aI17
aaI16
aa(lp1975
I-1
a(lp1976
I7
aI0
aa(lp1977
I7
aI4
aa(lp1978
I11
aI0
aa(lp1979
I11
aI4
aa(lp1980
I15
aI0
aa(lp1981
I15
aI4
aaI16
aa(lp1982
I-1
a(lp1983
I7
aI1
aa(lp1984
I7
aI5
aa(lp1985
I11
aI1
aa(lp1986
I11
aI5
aa(lp1987
I15
aI1
aa(lp1988
I15
aI5
aaI16
aa(lp1989
I-1
a(lp1990
I7
aI2
aa(lp1991
I7
aI6
aa(lp1992
I11
aI2
aa(lp1993
I11
aI6
aa(lp1994
I15
aI2
aa(lp1995
I15
aI6
aaI16
aa(lp1996
I-1
a(lp1997
I7
aI11
aa(lp1998
I7
aI15
aa(lp1999
I11
aI11
aa(lp2000
I11
aI15
aa(lp2001
I15
aI11
aa(lp2002
I15
aI15
aaI16
aa(lp2003
I-1
a(lp2004
I7
aI12
aa(lp2005
I7
aI16
aa(lp2006
I11
aI12
aa(lp2007
I11
aI16
aa(lp2008
I15
aI12
aa(lp2009
I15
aI16
aaI16
aa(lp2010
I-1
a(lp2011
I7
aI13
aa(lp2012
I7
aI17
aa(lp2013
I11
aI13
aa(lp2014
I11
aI17
aa(lp2015
I15
aI13
aa(lp2016
I15
aI17
aaI16
aa(lp2017
I-1
a(lp2018
I4
aI6
aa(lp2019
I4
aI10
aa(lp2020
I9
aI6
aa(lp2021
I9
aI10
aa(lp2022
I14
aI6
aa(lp2023
I14
aI10
aaI20
aa(lp2024
I-1
a(lp2025
I4
aI7
aa(lp2026
I4
aI11
aa(lp2027
I9
aI7
aa(lp2028
I9
aI11
aa(lp2029
I14
aI7
aa(lp2030
I14
aI11
aaI20
aa(lp2031
I-1
a(lp2032
I4
aI8
aa(lp2033
I4
aI12
aa(lp2034
I9
aI8
aa(lp2035
I9
aI12
aa(lp2036
I14
aI8
aa(lp2037
I14
aI12
aaI20
aa(lp2038
I-1
a(lp2039
I5
aI5
aa(lp2040
I5
aI9
aa(lp2041
I10
aI5
aa(lp2042
I10
aI9
aa(lp2043
I15
aI5
aa(lp2044
I15
aI9
aaI20
aa(lp2045
I-1
a(lp2046
I5
aI6
aa(lp2047
I5
aI10
aa(lp2048
I10
aI6
aa(lp2049
I10
aI10
aa(lp2050
I15
aI6
aa(lp2051
I15
aI10
aaI20
aa(lp2052
I-1
a(lp2053
I5
aI7
aa(lp2054
I5
aI11
aa(lp2055
I10
aI7
aa(lp2056
I10
aI11
aa(lp2057
I15
aI7
aa(lp2058
I15
aI11
aaI20
aa(lp2059
I-1
a(lp2060
I5
aI8
aa(lp2061
I5
aI12
aa(lp2062
I10
aI8
aa(lp2063
I10
aI12
aa(lp2064
I15
aI8
aa(lp2065
I15
aI12
aaI20
aa(lp2066
I-1
a(lp2067
I5
aI9
aa(lp2068
I5
aI13
aa(lp2069
I10
aI9
aa(lp2070
I10
aI13
aa(lp2071
I15
aI9
aa(lp2072
I15
aI13
aaI20
aa(lp2073
I-1
a(lp2074
I6
aI1
aa(lp2075
I6
aI5
aa(lp2076
I11
aI1
aa(lp2077
I11
aI5
aa(lp2078
I16
aI1
aa(lp2079
I16
aI5
aaI20
aa(lp2080
I-1
a(lp2081
I6
aI2
aa(lp2082
I6
aI6
aa(lp2083
I11
aI2
aa(lp2084
I11
aI6
aa(lp2085
I16
aI2
aa(lp2086
I16
aI6
aaI20
aa(lp2087
I-1
a(lp2088
I6
aI11
aa(lp2089
I6
aI15
aa(lp2090
I11
aI11
aa(lp2091
I11
aI15
aa(lp2092
I16
aI11
aa(lp2093
I16
aI15
aaI20
aa(lp2094
I-1
a(lp2095
I6
aI12
aa(lp2096
I6
aI16
aa(lp2097
I11
aI12
aa(lp2098
I11
aI16
aa(lp2099
I16
aI12
aa(lp2100
I16
aI16
aaI20
aa(lp2101
I-1
a(lp2102
I6
aI13
aa(lp2103
I6
aI17
aa(lp2104
I11
aI13
aa(lp2105
I11
aI17
aa(lp2106
I16
aI13
aa(lp2107
I16
aI17
aaI20
aa(lp2108
I-1
a(lp2109
I6
aI14
aa(lp2110
I6
aI18
aa(lp2111
I11
aI14
aa(lp2112
I11
aI18
aa(lp2113
I16
aI14
aa(lp2114
I16
aI18
aaI20
aa(lp2115
I-1
a(lp2116
I3
aI6
aa(lp2117
I3
aI10
aa(lp2118
I9
aI6
aa(lp2119
I9
aI10
aa(lp2120
I15
aI6
aa(lp2121
I15
aI10
aaI24
aa(lp2122
I-1
a(lp2123
I3
aI7
aa(lp2124
I3
aI11
aa(lp2125
I9
aI7
aa(lp2126
I9
aI11
aa(lp2127
I15
aI7
aa(lp2128
I15
aI11
aaI24
aa(lp2129
I-1
a(lp2130
I3
aI8
aa(lp2131
I3
aI12
aa(lp2132
I9
aI8
aa(lp2133
I9
aI12
aa(lp2134
I15
aI8
aa(lp2135
I15
aI12
aaI24
aa(lp2136
I-1
a(lp2137
I4
aI6
aa(lp2138
I4
aI10
aa(lp2139
I10
aI6
aa(lp2140
I10
aI10
aa(lp2141
I16
aI6
aa(lp2142
I16
aI10
aaI24
aa(lp2143
I-1
a(lp2144
I4
aI7
aa(lp2145
I4
aI11
aa(lp2146
I10
aI7
aa(lp2147
I10
aI11
aa(lp2148
I16
aI7
aa(lp2149
I16
aI11
aaI24
aa(lp2150
I-1
a(lp2151
I4
aI8
aa(lp2152
I4
aI12
aa(lp2153
I10
aI8
aa(lp2154
I10
aI12
aa(lp2155
I16
aI8
aa(lp2156
I16
aI12
aaI24
aa(lp2157
I-1
a(lp2158
I5
aI12
aa(lp2159
I5
aI16
aa(lp2160
I11
aI12
aa(lp2161
I11
aI16
aa(lp2162
I17
aI12
aa(lp2163
I17
aI16
aaI24
aa(lp2164
I-1
a(lp2165
I5
aI13
aa(lp2166
I5
aI17
aa(lp2167
I11
aI13
aa(lp2168
I11
aI17
aa(lp2169
I17
aI13
aa(lp2170
I17
aI17
aaI24
aa(lp2171
I-1
a(lp2172
I5
aI14
aa(lp2173
I5
aI18
aa(lp2174
I11
aI14
aa(lp2175
I11
aI18
aa(lp2176
I17
aI14
aa(lp2177
I17
aI18
aaI24
aa(lp2178
I-1
a(lp2179
I6
aI13
aa(lp2180
I6
aI17
aa(lp2181
I12
aI13
aa(lp2182
I12
aI17
aa(lp2183
I18
aI13
aa(lp2184
I18
aI17
aaI24
aa(lp2185
I-1
a(lp2186
I6
aI14
aa(lp2187
I6
aI18
aa(lp2188
I12
aI14
aa(lp2189
I12
aI18
aa(lp2190
I18
aI14
aa(lp2191
I18
aI18
aaI24
aa(lp2192
I-1
a(lp2193
I6
aI4
aa(lp2194
I6
aI9
aa(lp2195
I10
aI4
aa(lp2196
I10
aI9
aa(lp2197
I14
aI4
aa(lp2198
I14
aI9
aaI20
aa(lp2199
I-1
a(lp2200
I6
aI5
aa(lp2201
I6
aI10
aa(lp2202
I10
aI5
aa(lp2203
I10
aI10
aa(lp2204
I14
aI5
aa(lp2205
I14
aI10
aaI20
aa(lp2206
I-1
a(lp2207
I6
aI6
aa(lp2208
I6
aI11
aa(lp2209
I10
aI6
aa(lp2210
I10
aI11
aa(lp2211
I14
aI6
aa(lp2212
I14
aI11
aaI20
aa(lp2213
I-1
a(lp2214
I6
aI7
aa(lp2215
I6
aI12
aa(lp2216
I10
aI7
aa(lp2217
I10
aI12
aa(lp2218
I14
aI7
aa(lp2219
I14
aI12
aaI20
aa(lp2220
I-1
a(lp2221
I6
aI8
aa(lp2222
I6
aI13
aa(lp2223
I10
aI8
aa(lp2224
I10
aI13
aa(lp2225
I14
aI8
aa(lp2226
I14
aI13
aaI20
aa(lp2227
I-1
a(lp2228
I6
aI9
aa(lp2229
I6
aI14
aa(lp2230
I10
aI9
aa(lp2231
I10
aI14
aa(lp2232
I14
aI9
aa(lp2233
I14
aI14
aaI20
aa(lp2234
I-1
a(lp2235
I6
aI10
aa(lp2236
I6
aI15
aa(lp2237
I10
aI10
aa(lp2238
I10
aI15
aa(lp2239
I14
aI10
aa(lp2240
I14
aI15
aaI20
aa(lp2241
I-1
a(lp2242
I6
aI12
aa(lp2243
I6
aI17
aa(lp2244
I10
aI12
aa(lp2245
I10
aI17
aa(lp2246
I14
aI12
aa(lp2247
I14
aI17
aaI20
aa(lp2248
I-1
a(lp2249
I6
aI13
aa(lp2250
I6
aI18
aa(lp2251
I10
aI13
aa(lp2252
I10
aI18
aa(lp2253
I14
aI13
aa(lp2254
I14
aI18
aaI20
aa(lp2255
I-1
a(lp2256
I7
aI0
aa(lp2257
I7
aI5
aa(lp2258
I11
aI0
aa(lp2259
I11
aI5
aa(lp2260
I15
aI0
aa(lp2261
I15
aI5
aaI20
aa(lp2262
I-1
a(lp2263
I7
aI1
aa(lp2264
I7
aI6
aa(lp2265
I11
aI1
aa(lp2266
I11
aI6
aa(lp2267
I15
aI1
aa(lp2268
I15
aI6
aaI20
aa(lp2269
I-1
a(lp2270
I7
aI11
aa(lp2271
I7
aI16
aa(lp2272
I11
aI11
aa(lp2273
I11
aI16
aa(lp2274
I15
aI11
aa(lp2275
I15
aI16
aaI20
aa(lp2276
I-1
a(lp2277
I7
aI12
aa(lp2278
I7
aI17
aa(lp2279
I11
aI12
aa(lp2280
I11
aI17
aa(lp2281
I15
aI12
aa(lp2282
I15
aI17
aaI20
aa(lp2283
I-1
a(lp2284
I7
aI13
aa(lp2285
I7
aI18
aa(lp2286
I11
aI13
aa(lp2287
I11
aI18
aa(lp2288
I15
aI13
aa(lp2289
I15
aI18
aaI20
aa(lp2290
I-1
a(lp2291
I4
aI5
aa(lp2292
I4
aI10
aa(lp2293
I9
aI5
aa(lp2294
I9
aI10
aa(lp2295
I14
aI5
aa(lp2296
I14
aI10
aaI25
aa(lp2297
I-1
a(lp2298
I4
aI6
aa(lp2299
I4
aI11
aa(lp2300
I9
aI6
aa(lp2301
I9
aI11
aa(lp2302
I14
aI6
aa(lp2303
I14
aI11
aaI25
aa(lp2304
I-1
a(lp2305
I4
aI7
aa(lp2306
I4
aI12
aa(lp2307
I9
aI7
aa(lp2308
I9
aI12
aa(lp2309
I14
aI7
aa(lp2310
I14
aI12
aaI25
aa(lp2311
I-1
a(lp2312
I4
aI8
aa(lp2313
I4
aI13
aa(lp2314
I9
aI8
aa(lp2315
I9
aI13
aa(lp2316
I14
aI8
aa(lp2317
I14
aI13
aaI25
aa(lp2318
I-1
a(lp2319
I5
aI3
aa(lp2320
I5
aI8
aa(lp2321
I10
aI3
aa(lp2322
I10
aI8
aa(lp2323
I15
aI3
aa(lp2324
I15
aI8
aaI25
aa(lp2325
I-1
a(lp2326
I5
aI4
aa(lp2327
I5
aI9
aa(lp2328
I10
aI4
aa(lp2329
I10
aI9
aa(lp2330
I15
aI4
aa(lp2331
I15
aI9
aaI25
aa(lp2332
I-1
a(lp2333
I5
aI5
aa(lp2334
I5
aI10
aa(lp2335
I10
aI5
aa(lp2336
I10
aI10
aa(lp2337
I15
aI5
aa(lp2338
I15
aI10
aaI25
aa(lp2339
I-1
a(lp2340
I5
aI6
aa(lp2341
I5
aI11
aa(lp2342
I10
aI6
aa(lp2343
I10
aI11
aa(lp2344
I15
aI6
aa(lp2345
I15
aI11
aaI25
aa(lp2346
I-1
a(lp2347
I5
aI7
aa(lp2348
I5
aI12
aa(lp2349
I10
aI7
aa(lp2350
I10
aI12
aa(lp2351
I15
aI7
aa(lp2352
I15
aI12
aaI25
aa(lp2353
I-1
a(lp2354
I5
aI8
aa(lp2355
I5
aI13
aa(lp2356
I10
aI8
aa(lp2357
I10
aI13
aa(lp2358
I15
aI8
aa(lp2359
I15
aI13
aaI25
aa(lp2360
I-1
a(lp2361
I5
aI9
aa(lp2362
I5
aI14
aa(lp2363
I10
aI9
aa(lp2364
I10
aI14
aa(lp2365
I15
aI9
aa(lp2366
I15
aI14
aaI25
aa(lp2367
I-1
a(lp2368
I6
aI0
aa(lp2369
I6
aI5
aa(lp2370
I11
aI0
aa(lp2371
I11
aI5
aa(lp2372
I16
aI0
aa(lp2373
I16
aI5
aaI25
aa(lp2374
I-1
a(lp2375
I6
aI1
aa(lp2376
I6
aI6
aa(lp2377
I11
aI1
aa(lp2378
I11
aI6
aa(lp2379
I16
aI1
aa(lp2380
I16
aI6
aaI25
aa(lp2381
I-1
a(lp2382
I6
aI11
aa(lp2383
I6
aI16
aa(lp2384
I11
aI11
aa(lp2385
I11
aI16
aa(lp2386
I16
aI11
aa(lp2387
I16
aI16
aaI25
aa(lp2388
I-1
a(lp2389
I6
aI12
aa(lp2390
I6
aI17
aa(lp2391
I11
aI12
aa(lp2392
I11
aI17
aa(lp2393
I16
aI12
aa(lp2394
I16
aI17
aaI25
aa(lp2395
I-1
a(lp2396
I6
aI13
aa(lp2397
I6
aI18
aa(lp2398
I11
aI13
aa(lp2399
I11
aI18
aa(lp2400
I16
aI13
aa(lp2401
I16
aI18
aaI25
aa(lp2402
I-1
a(lp2403
I4
aI4
aa(lp2404
I4
aI9
aa(lp2405
I10
aI4
aa(lp2406
I10
aI9
aa(lp2407
I16
aI4
aa(lp2408
I16
aI9
aaI30
aa(lp2409
I-1
a(lp2410
I4
aI5
aa(lp2411
I4
aI10
aa(lp2412
I10
aI5
aa(lp2413
I10
aI10
aa(lp2414
I16
aI5
aa(lp2415
I16
aI10
aaI30
aa(lp2416
I-1
a(lp2417
I4
aI8
aa(lp2418
I4
aI13
aa(lp2419
I10
aI8
aa(lp2420
I10
aI13
aa(lp2421
I16
aI8
aa(lp2422
I16
aI13
aaI30
aa(lp2423
I-1
a(lp2424
I5
aI13
aa(lp2425
I5
aI18
aa(lp2426
I11
aI13
aa(lp2427
I11
aI18
aa(lp2428
I17
aI13
aa(lp2429
I17
aI18
aaI30
aa(lp2430
I-1
a(lp2431
I6
aI13
aa(lp2432
I6
aI18
aa(lp2433
I12
aI13
aa(lp2434
I12
aI18
aa(lp2435
I18
aI13
aa(lp2436
I18
aI18
aaI30
aa(lp2437
I-1
a(lp2438
I6
aI3
aa(lp2439
I6
aI9
aa(lp2440
I10
aI3
aa(lp2441
I10
aI9
aa(lp2442
I14
aI3
aa(lp2443
I14
aI9
aaI24
aa(lp2444
I-1
a(lp2445
I6
aI4
aa(lp2446
I6
aI10
aa(lp2447
I10
aI4
aa(lp2448
I10
aI10
aa(lp2449
I14
aI4
aa(lp2450
I14
aI10
aaI24
aa(lp2451
I-1
a(lp2452
I6
aI5
aa(lp2453
I6
aI11
aa(lp2454
I10
aI5
aa(lp2455
I10
aI11
aa(lp2456
I14
aI5
aa(lp2457
I14
aI11
aaI24
aa(lp2458
I-1
a(lp2459
I6
aI6
aa(lp2460
I6
aI12
aa(lp2461
I10
aI6
aa(lp2462
I10
aI12
aa(lp2463
I14
aI6
aa(lp2464
I14
aI12
aaI24
aa(lp2465
I-1
a(lp2466
I6
aI7
aa(lp2467
I6
aI13
aa(lp2468
I10
aI7
aa(lp2469
I10
aI13
aa(lp2470
I14
aI7
aa(lp2471
I14
aI13
aaI24
aa(lp2472
I-1
a(lp2473
I6
aI8
aa(lp2474
I6
aI14
aa(lp2475
I10
aI8
aa(lp2476
I10
aI14
aa(lp2477
I14
aI8
aa(lp2478
I14
aI14
aaI24
aa(lp2479
I-1
a(lp2480
I6
aI9
aa(lp2481
I6
aI15
aa(lp2482
I10
aI9
aa(lp2483
I10
aI15
aa(lp2484
I14
aI9
aa(lp2485
I14
aI15
aaI24
aa(lp2486
I-1
a(lp2487
I6
aI11
aa(lp2488
I6
aI17
aa(lp2489
I10
aI11
aa(lp2490
I10
aI17
aa(lp2491
I14
aI11
aa(lp2492
I14
aI17
aaI24
aa(lp2493
I-1
a(lp2494
I6
aI12
aa(lp2495
I6
aI18
aa(lp2496
I10
aI12
aa(lp2497
I10
aI18
aa(lp2498
I14
aI12
aa(lp2499
I14
aI18
aaI24
aa(lp2500
I-1
a(lp2501
I7
aI0
aa(lp2502
I7
aI6
aa(lp2503
I11
aI0
aa(lp2504
I11
aI6
aa(lp2505
I15
aI0
aa(lp2506
I15
aI6
aaI24
aa(lp2507
I-1
a(lp2508
I7
aI11
aa(lp2509
I7
aI17
aa(lp2510
I11
aI11
aa(lp2511
I11
aI17
aa(lp2512
I15
aI11
aa(lp2513
I15
aI17
aaI24
aa(lp2514
I-1
a(lp2515
I7
aI12
aa(lp2516
I7
aI18
aa(lp2517
I11
aI12
aa(lp2518
I11
aI18
aa(lp2519
I15
aI12
aa(lp2520
I15
aI18
aaI24
aa(lp2521
I-1
a(lp2522
I4
aI7
aa(lp2523
I4
aI13
aa(lp2524
I9
aI7
aa(lp2525
I9
aI13
aa(lp2526
I14
aI7
aa(lp2527
I14
aI13
aaI30
aa(lp2528
I-1
a(lp2529
I5
aI3
aa(lp2530
I5
aI9
aa(lp2531
I10
aI3
aa(lp2532
I10
aI9
aa(lp2533
I15
aI3
aa(lp2534
I15
aI9
aaI30
aa(lp2535
I-1
a(lp2536
I5
aI4
aa(lp2537
I5
aI10
aa(lp2538
I10
aI4
aa(lp2539
I10
aI10
aa(lp2540
I15
aI4
aa(lp2541
I15
aI10
aaI30
aa(lp2542
I-1
a(lp2543
I5
aI5
aa(lp2544
I5
aI11
aa(lp2545
I10
aI5
aa(lp2546
I10
aI11
aa(lp2547
I15
aI5
aa(lp2548
I15
aI11
aaI30
aa(lp2549
I-1
a(lp2550
I5
aI6
aa(lp2551
I5
aI12
aa(lp2552
I10
aI6
aa(lp2553
I10
aI12
aa(lp2554
I15
aI6
aa(lp2555
I15
aI12
aaI30
aa(lp2556
I-1
a(lp2557
I5
aI7
aa(lp2558
I5
aI13
aa(lp2559
I10
aI7
aa(lp2560
I10
aI13
aa(lp2561
I15
aI7
aa(lp2562
I15
aI13
aaI30
aa(lp2563
I-1
a(lp2564
I5
aI8
aa(lp2565
I5
aI14
aa(lp2566
I10
aI8
aa(lp2567
I10
aI14
aa(lp2568
I15
aI8
aa(lp2569
I15
aI14
aaI30
aa(lp2570
I-1
a(lp2571
I5
aI9
aa(lp2572
I5
aI15
aa(lp2573
I10
aI9
aa(lp2574
I10
aI15
aa(lp2575
I15
aI9
aa(lp2576
I15
aI15
aaI30
aa(lp2577
I-1
a(lp2578
I6
aI11
aa(lp2579
I6
aI17
aa(lp2580
I11
aI11
aa(lp2581
I11
aI17
aa(lp2582
I16
aI11
aa(lp2583
I16
aI17
aaI30
aa(lp2584
I-1
a(lp2585
I6
aI12
aa(lp2586
I6
aI18
aa(lp2587
I11
aI12
aa(lp2588
I11
aI18
aa(lp2589
I16
aI12
aa(lp2590
I16
aI18
aaI30
aa(lp2591
I-1
a(lp2592
I4
aI4
aa(lp2593
I4
aI10
aa(lp2594
I10
aI4
aa(lp2595
I10
aI10
aa(lp2596
I16
aI4
aa(lp2597
I16
aI10
aaI36
aa(lp2598
I-1
a(lp2599
I4
aI8
aa(lp2600
I4
aI14
aa(lp2601
I10
aI8
aa(lp2602
I10
aI14
aa(lp2603
I16
aI8
aa(lp2604
I16
aI14
aaI36
aa(lp2605
I-1
a(lp2606
I5
aI12
aa(lp2607
I5
aI18
aa(lp2608
I11
aI12
aa(lp2609
I11
aI18
aa(lp2610
I17
aI12
aa(lp2611
I17
aI18
aaI36
aa(lp2612
I-1
a(lp2613
I6
aI2
aa(lp2614
I6
aI9
aa(lp2615
I10
aI2
aa(lp2616
I10
aI9
aa(lp2617
I14
aI2
aa(lp2618
I14
aI9
aaI28
aa(lp2619
I-1
a(lp2620
I6
aI3
aa(lp2621
I6
aI10
aa(lp2622
I10
aI3
aa(lp2623
I10
aI10
aa(lp2624
I14
aI3
aa(lp2625
I14
aI10
aaI28
aa(lp2626
I-1
a(lp2627
I6
aI4
aa(lp2628
I6
aI11
aa(lp2629
I10
aI4
aa(lp2630
I10
aI11
aa(lp2631
I14
aI4
aa(lp2632
I14
aI11
aaI28
aa(lp2633
I-1
a(lp2634
I6
aI6
aa(lp2635
I6
aI13
aa(lp2636
I10
aI6
aa(lp2637
I10
aI13
aa(lp2638
I14
aI6
aa(lp2639
I14
aI13
aaI28
aa(lp2640
I-1
a(lp2641
I6
aI7
aa(lp2642
I6
aI14
aa(lp2643
I10
aI7
aa(lp2644
I10
aI14
aa(lp2645
I14
aI7
aa(lp2646
I14
aI14
aaI28
aa(lp2647
I-1
a(lp2648
I6
aI8
aa(lp2649
I6
aI15
aa(lp2650
I10
aI8
aa(lp2651
I10
aI15
aa(lp2652
I14
aI8
aa(lp2653
I14
aI15
aaI28
aa(lp2654
I-1
a(lp2655
I6
aI9
aa(lp2656
I6
aI16
aa(lp2657
I10
aI9
aa(lp2658
I10
aI16
aa(lp2659
I14
aI9
aa(lp2660
I14
aI16
aaI28
aa(lp2661
I-1
a(lp2662
I7
aI8
aa(lp2663
I7
aI15
aa(lp2664
I11
aI8
aa(lp2665
I11
aI15
aa(lp2666
I15
aI8
aa(lp2667
I15
aI15
aaI28
aa(lp2668
I-1
a(lp2669
I5
aI2
aa(lp2670
I5
aI9
aa(lp2671
I10
aI2
aa(lp2672
I10
aI9
aa(lp2673
I15
aI2
aa(lp2674
I15
aI9
aaI35
aa(lp2675
I-1
a(lp2676
I5
aI3
aa(lp2677
I5
aI10
aa(lp2678
I10
aI3
aa(lp2679
I10
aI10
aa(lp2680
I15
aI3
aa(lp2681
I15
aI10
aaI35
aa(lp2682
I-1
a(lp2683
I5
aI4
aa(lp2684
I5
aI11
aa(lp2685
I10
aI4
aa(lp2686
I10
aI11
aa(lp2687
I15
aI4
aa(lp2688
I15
aI11
aaI35
aa(lp2689
I-1
a(lp2690
I5
aI5
aa(lp2691
I5
aI12
aa(lp2692
I10
aI5
aa(lp2693
I10
aI12
aa(lp2694
I15
aI5
aa(lp2695
I15
aI12
aaI35
aa(lp2696
I-1
a(lp2697
I5
aI6
aa(lp2698
I5
aI13
aa(lp2699
I10
aI6
aa(lp2700
I10
aI13
aa(lp2701
I15
aI6
aa(lp2702
I15
aI13
aaI35
aa(lp2703
I-1
a(lp2704
I5
aI7
aa(lp2705
I5
aI14
aa(lp2706
I10
aI7
aa(lp2707
I10
aI14
aa(lp2708
I15
aI7
aa(lp2709
I15
aI14
aaI35
aa(lp2710
I-1
a(lp2711
I5
aI8
aa(lp2712
I5
aI15
aa(lp2713
I10
aI8
aa(lp2714
I10
aI15
aa(lp2715
I15
aI8
aa(lp2716
I15
aI15
aaI35
aa(lp2717
I-1
a(lp2718
I5
aI9
aa(lp2719
I5
aI16
aa(lp2720
I10
aI9
aa(lp2721
I10
aI16
aa(lp2722
I15
aI9
aa(lp2723
I15
aI16
aaI35
aa(lp2724
I-1
a(lp2725
I4
aI3
aa(lp2726
I4
aI10
aa(lp2727
I10
aI3
aa(lp2728
I10
aI10
aa(lp2729
I16
aI3
aa(lp2730
I16
aI10
aaI42
aa(lp2731
I-1
a(lp2732
I6
aI2
aa(lp2733
I6
aI10
aa(lp2734
I10
aI2
aa(lp2735
I10
aI10
aa(lp2736
I14
aI2
aa(lp2737
I14
aI10
aaI32
aa(lp2738
I-1
a(lp2739
I6
aI3
aa(lp2740
I6
aI11
aa(lp2741
I10
aI3
aa(lp2742
I10
aI11
aa(lp2743
I14
aI3
aa(lp2744
I14
aI11
aaI32
aa(lp2745
I-1
a(lp2746
I6
aI4
aa(lp2747
I6
aI12
aa(lp2748
I10
aI4
aa(lp2749
I10
aI12
aa(lp2750
I14
aI4
aa(lp2751
I14
aI12
aaI32
aa(lp2752
I-1
a(lp2753
I6
aI6
aa(lp2754
I6
aI14
aa(lp2755
I10
aI6
aa(lp2756
I10
aI14
aa(lp2757
I14
aI6
aa(lp2758
I14
aI14
aaI32
aa(lp2759
I-1
a(lp2760
I6
aI7
aa(lp2761
I6
aI15
aa(lp2762
I10
aI7
aa(lp2763
I10
aI15
aa(lp2764
I14
aI7
aa(lp2765
I14
aI15
aaI32
aa(lp2766
I-1
a(lp2767
I6
aI8
aa(lp2768
I6
aI16
aa(lp2769
I10
aI8
aa(lp2770
I10
aI16
aa(lp2771
I14
aI8
aa(lp2772
I14
aI16
aaI32
aa(lp2773
I-1
a(lp2774
I6
aI9
aa(lp2775
I6
aI17
aa(lp2776
I10
aI9
aa(lp2777
I10
aI17
aa(lp2778
I14
aI9
aa(lp2779
I14
aI17
aaI32
aa(lp2780
I-1
a(lp2781
I5
aI1
aa(lp2782
I5
aI9
aa(lp2783
I10
aI1
aa(lp2784
I10
aI9
aa(lp2785
I15
aI1
aa(lp2786
I15
aI9
aaI40
aa(lp2787
I-1
a(lp2788
I5
aI2
aa(lp2789
I5
aI10
aa(lp2790
I10
aI2
aa(lp2791
I10
aI10
aa(lp2792
I15
aI2
aa(lp2793
I15
aI10
aaI40
aa(lp2794
I-1
a(lp2795
I5
aI3
aa(lp2796
I5
aI11
aa(lp2797
I10
aI3
aa(lp2798
I10
aI11
aa(lp2799
I15
aI3
aa(lp2800
I15
aI11
aaI40
aa(lp2801
I-1
a(lp2802
I5
aI4
aa(lp2803
I5
aI12
aa(lp2804
I10
aI4
aa(lp2805
I10
aI12
aa(lp2806
I15
aI4
aa(lp2807
I15
aI12
aaI40
aa(lp2808
I-1
a(lp2809
I5
aI5
aa(lp2810
I5
aI13
aa(lp2811
I10
aI5
aa(lp2812
I10
aI13
aa(lp2813
I15
aI5
aa(lp2814
I15
aI13
aaI40
aa(lp2815
I-1
a(lp2816
I5
aI6
aa(lp2817
I5
aI14
aa(lp2818
I10
aI6
aa(lp2819
I10
aI14
aa(lp2820
I15
aI6
aa(lp2821
I15
aI14
aaI40
aa(lp2822
I-1
a(lp2823
I5
aI7
aa(lp2824
I5
aI15
aa(lp2825
I10
aI7
aa(lp2826
I10
aI15
aa(lp2827
I15
aI7
aa(lp2828
I15
aI15
aaI40
aa(lp2829
I-1
a(lp2830
I5
aI8
aa(lp2831
I5
aI16
aa(lp2832
I10
aI8
aa(lp2833
I10
aI16
aa(lp2834
I15
aI8
aa(lp2835
I15
aI16
aaI40
aa(lp2836
I-1
a(lp2837
I5
aI9
aa(lp2838
I5
aI17
aa(lp2839
I10
aI9
aa(lp2840
I10
aI17
aa(lp2841
I15
aI9
aa(lp2842
I15
aI17
aaI40
aa(lp2843
I-1
a(lp2844
I6
aI1
aa(lp2845
I6
aI10
aa(lp2846
I10
aI1
aa(lp2847
I10
aI10
aa(lp2848
I14
aI1
aa(lp2849
I14
aI10
aaI36
aa(lp2850
I-1
a(lp2851
I6
aI2
aa(lp2852
I6
aI11
aa(lp2853
I10
aI2
aa(lp2854
I10
aI11
aa(lp2855
I14
aI2
aa(lp2856
I14
aI11
aaI36
aa(lp2857
I-1
a(lp2858
I6
aI3
aa(lp2859
I6
aI12
aa(lp2860
I10
aI3
aa(lp2861
I10
aI12
aa(lp2862
I14
aI3
aa(lp2863
I14
aI12
aaI36
aa(lp2864
I-1
a(lp2865
I6
aI5
aa(lp2866
I6
aI14
aa(lp2867
I10
aI5
aa(lp2868
I10
aI14
aa(lp2869
I14
aI5
aa(lp2870
I14
aI14
aaI36
aa(lp2871
I-1
a(lp2872
I6
aI6
aa(lp2873
I6
aI15
aa(lp2874
I10
aI6
aa(lp2875
I10
aI15
aa(lp2876
I14
aI6
aa(lp2877
I14
aI15
aaI36
aa(lp2878
I-1
a(lp2879
I6
aI7
aa(lp2880
I6
aI16
aa(lp2881
I10
aI7
aa(lp2882
I10
aI16
aa(lp2883
I14
aI7
aa(lp2884
I14
aI16
aaI36
aa(lp2885
I-1
a(lp2886
I6
aI8
aa(lp2887
I6
aI17
aa(lp2888
I10
aI8
aa(lp2889
I10
aI17
aa(lp2890
I14
aI8
aa(lp2891
I14
aI17
aaI36
aa(lp2892
I-1
a(lp2893
I6
aI9
aa(lp2894
I6
aI18
aa(lp2895
I10
aI9
aa(lp2896
I10
aI18
aa(lp2897
I14
aI9
aa(lp2898
I14
aI18
aaI36
aa(lp2899
I-1
a(lp2900
I5
aI1
aa(lp2901
I5
aI10
aa(lp2902
I10
aI1
aa(lp2903
I10
aI10
aa(lp2904
I15
aI1
aa(lp2905
I15
aI10
aaI45
aa(lp2906
I-1
a(lp2907
I5
aI2
aa(lp2908
I5
aI11
aa(lp2909
I10
aI2
aa(lp2910
I10
aI11
aa(lp2911
I15
aI2
aa(lp2912
I15
aI11
aaI45
aa(lp2913
I-1
a(lp2914
I5
aI3
aa(lp2915
I5
aI12
aa(lp2916
I10
aI3
aa(lp2917
I10
aI12
aa(lp2918
I15
aI3
aa(lp2919
I15
aI12
aaI45
aa(lp2920
I-1
a(lp2921
I5
aI4
aa(lp2922
I5
aI13
aa(lp2923
I10
aI4
aa(lp2924
I10
aI13
aa(lp2925
I15
aI4
aa(lp2926
I15
aI13
aaI45
aa(lp2927
I-1
a(lp2928
I5
aI5
aa(lp2929
I5
aI14
aa(lp2930
I10
aI5
aa(lp2931
I10
aI14
aa(lp2932
I15
aI5
aa(lp2933
I15
aI14
aaI45
aa(lp2934
I-1
a(lp2935
I5
aI6
aa(lp2936
I5
aI15
aa(lp2937
I10
aI6
aa(lp2938
I10
aI15
aa(lp2939
I15
aI6
aa(lp2940
I15
aI15
aaI45
aa(lp2941
I-1
a(lp2942
I5
aI7
aa(lp2943
I5
aI16
aa(lp2944
I10
aI7
aa(lp2945
I10
aI16
aa(lp2946
I15
aI7
aa(lp2947
I15
aI16
aaI45
aa(lp2948
I-1
a(lp2949
I5
aI8
aa(lp2950
I5
aI17
aa(lp2951
I10
aI8
aa(lp2952
I10
aI17
aa(lp2953
I15
aI8
aa(lp2954
I15
aI17
aaI45
aa(lp2955
I-1
a(lp2956
I5
aI9
aa(lp2957
I5
aI18
aa(lp2958
I10
aI9
aa(lp2959
I10
aI18
aa(lp2960
I15
aI9
aa(lp2961
I15
aI18
aaI45
aa(lp2962
I-1
a(lp2963
I6
aI2
aa(lp2964
I6
aI12
aa(lp2965
I10
aI2
aa(lp2966
I10
aI12
aa(lp2967
I14
aI2
aa(lp2968
I14
aI12
aaI40
aa(lp2969
I-1
a(lp2970
I6
aI3
aa(lp2971
I6
aI13
aa(lp2972
I10
aI3
aa(lp2973
I10
aI13
aa(lp2974
I14
aI3
aa(lp2975
I14
aI13
aaI40
aa(lp2976
I-1
a(lp2977
I6
aI4
aa(lp2978
I6
aI14
aa(lp2979
I10
aI4
aa(lp2980
I10
aI14
aa(lp2981
I14
aI4
aa(lp2982
I14
aI14
aaI40
aa(lp2983
I-1
a(lp2984
I6
aI5
aa(lp2985
I6
aI15
aa(lp2986
I10
aI5
aa(lp2987
I10
aI15
aa(lp2988
I14
aI5
aa(lp2989
I14
aI15
aaI40
aa(lp2990
I-1
a(lp2991
I6
aI6
aa(lp2992
I6
aI16
aa(lp2993
I10
aI6
aa(lp2994
I10
aI16
aa(lp2995
I14
aI6
aa(lp2996
I14
aI16
aaI40
aa(lp2997
I-1
a(lp2998
I6
aI7
aa(lp2999
I6
aI17
aa(lp3000
I10
aI7
aa(lp3001
I10
aI17
aa(lp3002
I14
aI7
aa(lp3003
I14
aI17
aaI40
aa(lp3004
I-1
a(lp3005
I6
aI8
aa(lp3006
I6
aI18
aa(lp3007
I10
aI8
aa(lp3008
I10
aI18
aa(lp3009
I14
aI8
aa(lp3010
I14
aI18
aaI40
aa(lp3011
I-1
a(lp3012
I5
aI0
aa(lp3013
I5
aI10
aa(lp3014
I10
aI0
aa(lp3015
I10
aI10
aa(lp3016
I15
aI0
aa(lp3017
I15
aI10
aaI50
aa(lp3018
I-1
a(lp3019
I5
aI1
aa(lp3020
I5
aI11
aa(lp3021
I10
aI1
aa(lp3022
I10
aI11
aa(lp3023
I15
aI1
aa(lp3024
I15
aI11
aaI50
aa(lp3025
I-1
a(lp3026
I5
aI2
aa(lp3027
I5
aI12
aa(lp3028
I10
aI2
aa(lp3029
I10
aI12
aa(lp3030
I15
aI2
aa(lp3031
I15
aI12
aaI50
aa(lp3032
I-1
a(lp3033
I5
aI3
aa(lp3034
I5
aI13
aa(lp3035
I10
aI3
aa(lp3036
I10
aI13
aa(lp3037
I15
aI3
aa(lp3038
I15
aI13
aaI50
aa(lp3039
I-1
a(lp3040
I5
aI4
aa(lp3041
I5
aI14
aa(lp3042
I10
aI4
aa(lp3043
I10
aI14
aa(lp3044
I15
aI4
aa(lp3045
I15
aI14
aaI50
aa(lp3046
I-1
a(lp3047
I5
aI5
aa(lp3048
I5
aI15
aa(lp3049
I10
aI5
aa(lp3050
I10
aI15
aa(lp3051
I15
aI5
aa(lp3052
I15
aI15
aaI50
aa(lp3053
I-1
a(lp3054
I5
aI6
aa(lp3055
I5
aI16
aa(lp3056
I10
aI6
aa(lp3057
I10
aI16
aa(lp3058
I15
aI6
aa(lp3059
I15
aI16
aaI50
aa(lp3060
I-1
a(lp3061
I5
aI7
aa(lp3062
I5
aI17
aa(lp3063
I10
aI7
aa(lp3064
I10
aI17
aa(lp3065
I15
aI7
aa(lp3066
I15
aI17
aaI50
aa(lp3067
I-1
a(lp3068
I5
aI8
aa(lp3069
I5
aI18
aa(lp3070
I10
aI8
aa(lp3071
I10
aI18
aa(lp3072
I15
aI8
aa(lp3073
I15
aI18
aaI50
aa(lp3074
I-1
a(lp3075
I6
aI2
aa(lp3076
I6
aI13
aa(lp3077
I10
aI2
aa(lp3078
I10
aI13
aa(lp3079
I14
aI2
aa(lp3080
I14
aI13
aaI44
aa(lp3081
I-1
a(lp3082
I6
aI3
aa(lp3083
I6
aI14
aa(lp3084
I10
aI3
aa(lp3085
I10
aI14
aa(lp3086
I14
aI3
aa(lp3087
I14
aI14
aaI44
aa(lp3088
I-1
a(lp3089
I6
aI4
aa(lp3090
I6
aI15
aa(lp3091
I10
aI4
aa(lp3092
I10
aI15
aa(lp3093
I14
aI4
aa(lp3094
I14
aI15
aaI44
aa(lp3095
I-1
a(lp3096
I6
aI5
aa(lp3097
I6
aI16
aa(lp3098
I10
aI5
aa(lp3099
I10
aI16
aa(lp3100
I14
aI5
aa(lp3101
I14
aI16
aaI44
aa(lp3102
I-1
a(lp3103
I6
aI7
aa(lp3104
I6
aI18
aa(lp3105
I10
aI7
aa(lp3106
I10
aI18
aa(lp3107
I14
aI7
aa(lp3108
I14
aI18
aaI44
aa(lp3109
I-1
a(lp3110
I5
aI-1
aa(lp3111
I5
aI10
aa(lp3112
I10
aI-1
aa(lp3113
I10
aI10
aa(lp3114
I15
aI-1
aa(lp3115
I15
aI10
aaI55
aa(lp3116
I-1
a(lp3117
I5
aI0
aa(lp3118
I5
aI11
aa(lp3119
I10
aI0
aa(lp3120
I10
aI11
aa(lp3121
I15
aI0
aa(lp3122
I15
aI11
aaI55
aa(lp3123
I-1
a(lp3124
I5
aI1
aa(lp3125
I5
aI12
aa(lp3126
I10
aI1
aa(lp3127
I10
aI12
aa(lp3128
I15
aI1
aa(lp3129
I15
aI12
aaI55
aa(lp3130
I-1
a(lp3131
I5
aI2
aa(lp3132
I5
aI13
aa(lp3133
I10
aI2
aa(lp3134
I10
aI13
aa(lp3135
I15
aI2
aa(lp3136
I15
aI13
aaI55
aa(lp3137
I-1
a(lp3138
I5
aI3
aa(lp3139
I5
aI14
aa(lp3140
I10
aI3
aa(lp3141
I10
aI14
aa(lp3142
I15
aI3
aa(lp3143
I15
aI14
aaI55
aa(lp3144
I-1
a(lp3145
I5
aI4
aa(lp3146
I5
aI15
aa(lp3147
I10
aI4
aa(lp3148
I10
aI15
aa(lp3149
I15
aI4
aa(lp3150
I15
aI15
aaI55
aa(lp3151
I-1
a(lp3152
I5
aI5
aa(lp3153
I5
aI16
aa(lp3154
I10
aI5
aa(lp3155
I10
aI16
aa(lp3156
I15
aI5
aa(lp3157
I15
aI16
aaI55
aa(lp3158
I-1
a(lp3159
I5
aI6
aa(lp3160
I5
aI17
aa(lp3161
I10
aI6
aa(lp3162
I10
aI17
aa(lp3163
I15
aI6
aa(lp3164
I15
aI17
aaI55
aa(lp3165
I-1
a(lp3166
I5
aI7
aa(lp3167
I5
aI18
aa(lp3168
I10
aI7
aa(lp3169
I10
aI18
aa(lp3170
I15
aI7
aa(lp3171
I15
aI18
aaI55
aa(lp3172
I-1
a(lp3173
I6
aI2
aa(lp3174
I6
aI14
aa(lp3175
I10
aI2
aa(lp3176
I10
aI14
aa(lp3177
I14
aI2
aa(lp3178
I14
aI14
aaI48
aa(lp3179
I-1
a(lp3180
I6
aI3
aa(lp3181
I6
aI15
aa(lp3182
I10
aI3
aa(lp3183
I10
aI15
aa(lp3184
I14
aI3
aa(lp3185
I14
aI15
aaI48
aa(lp3186
I-1
a(lp3187
I6
aI4
aa(lp3188
I6
aI16
aa(lp3189
I10
aI4
aa(lp3190
I10
aI16
aa(lp3191
I14
aI4
aa(lp3192
I14
aI16
aaI48
aa(lp3193
I-1
a(lp3194
I6
aI6
aa(lp3195
I6
aI18
aa(lp3196
I10
aI6
aa(lp3197
I10
aI18
aa(lp3198
I14
aI6
aa(lp3199
I14
aI18
aaI48
aa(lp3200
I-1
a(lp3201
I5
aI1
aa(lp3202
I5
aI13
aa(lp3203
I10
aI1
aa(lp3204
I10
aI13
aa(lp3205
I15
aI1
aa(lp3206
I15
aI13
aaI60
aa(lp3207
I-1
a(lp3208
I5
aI2
aa(lp3209
I5
aI14
aa(lp3210
I10
aI2
aa(lp3211
I10
aI14
aa(lp3212
I15
aI2
aa(lp3213
I15
aI14
aaI60
aa(lp3214
I-1
a(lp3215
I5
aI3
aa(lp3216
I5
aI15
aa(lp3217
I10
aI3
aa(lp3218
I10
aI15
aa(lp3219
I15
aI3
aa(lp3220
I15
aI15
aaI60
aa(lp3221
I-1
a(lp3222
I5
aI4
aa(lp3223
I5
aI16
aa(lp3224
I10
aI4
aa(lp3225
I10
aI16
aa(lp3226
I15
aI4
aa(lp3227
I15
aI16
aaI60
aa(lp3228
I-1
a(lp3229
I5
aI5
aa(lp3230
I5
aI17
aa(lp3231
I10
aI5
aa(lp3232
I10
aI17
aa(lp3233
I15
aI5
aa(lp3234
I15
aI17
aaI60
aa(lp3235
I-1
a(lp3236
I5
aI6
aa(lp3237
I5
aI18
aa(lp3238
I10
aI6
aa(lp3239
I10
aI18
aa(lp3240
I15
aI6
aa(lp3241
I15
aI18
aaI60
aa(lp3242
I-1
a(lp3243
I6
aI1
aa(lp3244
I6
aI14
aa(lp3245
I10
aI1
aa(lp3246
I10
aI14
aa(lp3247
I14
aI1
aa(lp3248
I14
aI14
aaI52
aa(lp3249
I-1
a(lp3250
I6
aI2
aa(lp3251
I6
aI15
aa(lp3252
I10
aI2
aa(lp3253
I10
aI15
aa(lp3254
I14
aI2
aa(lp3255
I14
aI15
aaI52
aa(lp3256
I-1
a(lp3257
I6
aI3
aa(lp3258
I6
aI16
aa(lp3259
I10
aI3
aa(lp3260
I10
aI16
aa(lp3261
I14
aI3
aa(lp3262
I14
aI16
aaI52
aa(lp3263
I-1
a(lp3264
I6
aI4
aa(lp3265
I6
aI17
aa(lp3266
I10
aI4
aa(lp3267
I10
aI17
aa(lp3268
I14
aI4
aa(lp3269
I14
aI17
aaI52
aa(lp3270
I-1
a(lp3271
I5
aI1
aa(lp3272
I5
aI14
aa(lp3273
I10
aI1
aa(lp3274
I10
aI14
aa(lp3275
I15
aI1
aa(lp3276
I15
aI14
aaI65
aa(lp3277
I-1
a(lp3278
I5
aI2
aa(lp3279
I5
aI15
aa(lp3280
I10
aI2
aa(lp3281
I10
aI15
aa(lp3282
I15
aI2
aa(lp3283
I15
aI15
aaI65
aa(lp3284
I-1
a(lp3285
I5
aI3
aa(lp3286
I5
aI16
aa(lp3287
I10
aI3
aa(lp3288
I10
aI16
aa(lp3289
I15
aI3
aa(lp3290
I15
aI16
aaI65
aa(lp3291
I-1
a(lp3292
I5
aI4
aa(lp3293
I5
aI17
aa(lp3294
I10
aI4
aa(lp3295
I10
aI17
aa(lp3296
I15
aI4
aa(lp3297
I15
aI17
aaI65
aa(lp3298
I-1
a(lp3299
I5
aI5
aa(lp3300
I5
aI18
aa(lp3301
I10
aI5
aa(lp3302
I10
aI18
aa(lp3303
I15
aI5
aa(lp3304
I15
aI18
aaI65
aa(lp3305
I-1
a(lp3306
I6
aI2
aa(lp3307
I6
aI16
aa(lp3308
I10
aI2
aa(lp3309
I10
aI16
aa(lp3310
I14
aI2
aa(lp3311
I14
aI16
aaI56
aa(lp3312
I-1
a(lp3313
I6
aI3
aa(lp3314
I6
aI17
aa(lp3315
I10
aI3
aa(lp3316
I10
aI17
aa(lp3317
I14
aI3
aa(lp3318
I14
aI17
aaI56
aa(lp3319
I-1
a(lp3320
I5
aI1
aa(lp3321
I5
aI15
aa(lp3322
I10
aI1
aa(lp3323
I10
aI15
aa(lp3324
I15
aI1
aa(lp3325
I15
aI15
aaI70
aa(lp3326
I-1
a(lp3327
I5
aI2
aa(lp3328
I5
aI16
aa(lp3329
I10
aI2
aa(lp3330
I10
aI16
aa(lp3331
I15
aI2
aa(lp3332
I15
aI16
aaI70
aa(lp3333
I-1
a(lp3334
I5
aI3
aa(lp3335
I5
aI17
aa(lp3336
I10
aI3
aa(lp3337
I10
aI17
aa(lp3338
I15
aI3
aa(lp3339
I15
aI17
aaI70
aa(lp3340
I-1
a(lp3341
I5
aI4
aa(lp3342
I5
aI18
aa(lp3343
I10
aI4
aa(lp3344
I10
aI18
aa(lp3345
I15
aI4
aa(lp3346
I15
aI18
aaI70
aa(lp3347
I-1
a(lp3348
I5
aI0
aa(lp3349
I5
aI15
aa(lp3350
I10
aI0
aa(lp3351
I10
aI15
aa(lp3352
I15
aI0
aa(lp3353
I15
aI15
aaI75
aa(lp3354
I-1
a(lp3355
I5
aI2
aa(lp3356
I5
aI17
aa(lp3357
I10
aI2
aa(lp3358
I10
aI17
aa(lp3359
I15
aI2
aa(lp3360
I15
aI17
aaI75
aa(lp3361
I-1
a(lp3362
I5
aI3
aa(lp3363
I5
aI18
aa(lp3364
I10
aI3
aa(lp3365
I10
aI18
aa(lp3366
I15
aI3
aa(lp3367
I15
aI18
aaI75
aa(lp3368
I-1
a(lp3369
I5
aI0
aa(lp3370
I5
aI16
aa(lp3371
I10
aI0
aa(lp3372
I10
aI16
aa(lp3373
I15
aI0
aa(lp3374
I15
aI16
aaI80
aa(lp3375
I-1
a(lp3376
I9
aI1
aa(lp3377
I10
aI1
aa(lp3378
I9
aI4
aa(lp3379
I10
aI4
aa(lp3380
I9
aI7
aa(lp3381
I10
aI7
aaI3
aa(lp3382
I-1
a(lp3383
I8
aI1
aa(lp3384
I10
aI1
aa(lp3385
I8
aI4
aa(lp3386
I10
aI4
aa(lp3387
I8
aI7
aa(lp3388
I10
aI7
aaI6
aa.